fd:_glClearStencil
m1f:_Array_Resize_TisByte_t1134296376_m80436779_gshared
aEi:_UInt16_System_IConvertible_ToChar_m2096055221_AdjustorThunk
pTf:_Array_TrueForAll_TisRuntimeObject_m1084992726_gshared
bVc:__ZN5physx2Gu19gjkLocalPenetrationINS0_8CapsuleVENS0_17ShrunkConvexHullVEEEjRKT_RKT0_RKNS_6shdfnd3aos6FloatVERNSB_5Vec3VESG_SG_RSC_PhSI_Rhb
$4h:__Z85RuntimeInvoker_Void_t1185182177_PlayableHandleU26_t645981773_QuaternionU26_t651104941PFvvEPK10MethodInfoPvPS4_
ajm:_TextGenerator_GetPreferredWidth_m2934157277
m$b:__ZN18StreamedBinaryReadILb1EE21TransferSTLStyleArrayIN4core12basic_stringIcNS2_20StringStorageDefaultIcEEEEEEvRT_17TransferMetaFlags
vXk:__ZN6il2cpp2vm5Array13GetByteLengthEP11Il2CppArray
V$f:_Array_InternalArray__set_Item_TisDateTime_t3738529785_m1331437427_gshared
T4j:_KeyBuilder_get_Rng_m3373220441
l4l:__ZL102Image_t2670269651_CustomAttributesCacheGenerator_Image_t2670269651____eventAlphaThreshold_PropertyInfoP21CustomAttributesCache
nRe:__ZN15DownloadHandler7OnAbortEv
Tbm:_Rect_get_y_m3218181675
sdk:_U3CCreateWhereIteratorU3Ec__Iterator1D_1_System_Collections_Generic_IEnumeratorU3CTSourceU3E_get_Current_m1909387290_gshared
cJ:__ZN10StateRange8TransferI14SafeBinaryReadEEvRT_
AQa:__Z21SourceMipLevelForBlitiiii
Rub:__ZN31CanvasBatchIntermediateRenderer15AddAsRenderNodeER15RenderNodeQueueRK20DeprecatedSourceData
s3f:_Dictionary_2_Do_ICollectionCopyTo_TisInt32_t2950945753_m2590022749_gshared
mBi:_TimeSpan_get_Hours_m550761902
rXl:__ZL72GUISkin_t1244372282_CustomAttributesCacheGenerator_m_verticalSliderThumbP21CustomAttributesCache
kPl:__ZL63PlayableOutputHandle_t4208053793_CustomAttributesCacheGeneratorP21CustomAttributesCache
fcf:_CanvasScaler_get_defaultSpriteDPI_m871626936
hNe:__ZN11UnityEngine7Connect14AppUpdateEventD0Ev
Xlg:_Math_Min_m3253079129
dql:__ZL66RuntimeArray_CustomAttributesCacheGenerator_Array_Sort_m3287581440P21CustomAttributesCache
OLd:__ZNK5physx2Sc5Scene24getContactModifyCallbackEv
q6:__ZdlPv
jP:__ZN23AnimationOffsetPlayable11SetRotationE11Quaternionf
hx:__ZN11UnityEngine9Animation28GenericAnimationBindingCacheD2Ev
UOd:__ZN5physx2Sq10AABBPruner10addObjectsEPjPKNS_9PxBounds3EPKNS0_13PrunerPayloadEj
g$j:_X509Store_LoadCrl_m1881903843
t2f:_Array_Sort_TisUICharInfo_t75501106_TisUICharInfo_t75501106_m722747892_gshared
uyf:_CaseInsensitiveComparer__ctor_m2101975011
JQl:__ZL81Physics_t2310948930_CustomAttributesCacheGenerator_Physics_RaycastAll_m2697494287P21CustomAttributesCache
VSh:__Z67RuntimeInvoker_Byte_t1134296376_Int32_t2950945753_Int32_t2950945753PFvvEPK10MethodInfoPvPS4_
pRh:__Z53RuntimeInvoker_UInt32_t2560061978_Decimal_t2948259380PFvvEPK10MethodInfoPvPS4_
hc:invoke_viiiifiiiiif
ahb:__Z18RestoreRenderStateR20CameraRenderOldStateR17ShaderPassContext
z_b:__Z18Transfer_BlittableI18StreamedBinaryReadILb1EELb1E5RectTIfEEvRK29SerializationCommandArgumentsR31RuntimeSerializationCommandInfo
PWb:__Z18Transfer_BlittableI24GenerateTypeTreeTransferLb0E11ColorRGBA32EvRK29SerializationCommandArgumentsR31RuntimeSerializationCommandInfo
Gca:__Z25scripting_class_from_name17ScriptingImagePtrPKcS1_
TOl:__ZL79Object_t631007953_CustomAttributesCacheGenerator_Object_Instantiate_m3242828326P21CustomAttributesCache
WWf:_Array_InternalArray__IndexOf_TisKeyValuePair_2_t3699644050_m1021241249_gshared
wu:__ZNSt3__26vectorIN13AnimationClip10FloatCurveE13stl_allocatorIS2_L18MemLabelIdentifier25ELi16EEE6resizeEj
JPb:__Z29scripting_class_enum_basetype17ScriptingClassPtr
pQl:__ZL91Physics_t2310948930_CustomAttributesCacheGenerator_Physics_Raycast_m325282035____layerMask3P21CustomAttributesCache
h2c:__ZN5physx6shdfnd8PoolBaseINS_2Sc10NPhaseCore16ClothListElementENS0_19ReflectionAllocatorIS4_EEE17releaseEmptySlabsEv
a4f:_Dictionary_2_Do_CopyTo_TisTextEditOp_t1927482598_TisRuntimeObject_m2764429702_gshared
dsb:__ZNK12BaseRenderer18GetRenderNodeCountEv
R5d:__ZN5physx2Sc14ConstraintCore10breakApartEv
qQh:__Z64RuntimeInvoker_RuntimeObject_Int32_t2950945753_Int16_t2552820387PFvvEPK10MethodInfoPvPS4_
Vbm:_Rect_set_y_m946788033
gbe:__ZN5physx2Gu15EdgeListBuilderC2Ev
KPj:_InternalEnumerator_1_get_Current_m1477715453_gshared
Qbk:_Enumerator__ctor_m2827156589_AdjustorThunk
xM:__ZN18StreamedBinaryReadILb0EE21TransferSTLStyleArrayI22OffsetPtrArrayTransferIN4math8ColliderEEEEvRT_17TransferMetaFlags
Fce:__ZN5physx7Cooking20loadTriangleMeshDescERKNS_18PxTriangleMeshDescERNS_19TriangleMeshBuilderE
sJg:_Collection_1_System_Collections_IList_Remove_m1476284619_gshared
JYg:_ContractionComparer__ctor_m3439667810
Lng:_MonoType_IsPrimitiveImpl_m2401722705
QXe:_SHA1CryptoServiceProvider__ctor_m4195188793
k5c:__ZN5physx9NpFactory21releaseConnectorArrayEPNS_16NpConnectorArrayE
AFl:__ZL64MissingFieldException_t1989070983_CustomAttributesCacheGeneratorP21CustomAttributesCache
Ygf:_Graphic_get_defaultGraphicMaterial_m3107284931
VRd:__ZNK5physx2Gu29EPASupportMapPairRelativeImplINS0_9TriangleVENS0_4BoxVEE6getDirEv
Pff:_Dropdown_Hide_m504034854
Vog:_NumberFormatter_NumberToString_m264078176
oSf:_Array_InternalArray__ICollection_Remove_TisLink_t3209266973_m897088622_gshared
uOa:__ZN7ApiGLES17CopyBufferSubDataEjjlll
b_f:_Array_InternalArray__ICollection_CopyTo_TisUInt64_t4134040092_m691431926_gshared
nph:_IPAddress_ToString_m1181734207
$xb:__ZNK20ScriptPlayableOutput7GetTypeEv
Iwi:_StringBuilder_Append_m1965104174
cGh:_ValueCollection_CopyTo_m2188334703_gshared
zSi:_Ext_IsHostOrder_m1193138175
P$j:_EqualityComparer_1__cctor_m3766928733_gshared
r8a:__ZN25CameraStackRenderingState20GetOrCreateBuiltinRTE24BuiltinRenderTextureTypeii17DepthBufferFormat19RenderTextureFormatj22RenderTextureReadWrite14VRTextureUsagei
pvb:__Z32TransferEnumWithNameForceIntSizeI14SafeBinaryRead16LightmappingMaskEvRT_RT0_PKc17TransferMetaFlags
Spf:_Array_GetValue_m116098292
Aud:__ZNK5physx15NpActorTemplateINS_15PxParticleFluidEE22getClientBehaviorFlagsEv
gDg:_List_1_Contains_m2043463915_gshared
YEb:__ZNK14Texture2DArray26CanReuploadDataToGfxDeviceEv
Ycb:__ZN17PrePassRenderLoop14RenderBasePassEP13RenderTextureRK14LightingLayersR13dynamic_arrayI16RenderObjectDataLj4EERbR10MinMaxAABB
hrb:__ZN17GlobalGameManager23VirtualRedirectTransferER17RemapPPtrTransfer
ywe:_sfnt_stream_close
tBc:__ZN5IMGUI18RepaintModalWindowER8GUIState
Kai:__Z60RuntimeInvoker_RuntimeObject_Int16_t2552820387_RuntimeObjectPFvvEPK10MethodInfoPvPS4_
Zkh:_HybridDictionary_get_IsSynchronized_m2987560362
KVi:_NetworkCredential_get_Username_m3814827542
tYl:__ZL85GUIStyle_t3956901511_CustomAttributesCacheGenerator_GUIStyle_get_richText_m4083172303P21CustomAttributesCache
Bbi:__Z59RuntimeInvoker_Boolean_t97287965_ArraySegment_1_t2229370775PFvvEPK10MethodInfoPvPS4_
tQf:_CompareInfo_Finalize_m404687489
FDb:__Z23SetSpriteMeshIndexCountP14SharedMeshDataj
Eyi:_UTF8Decoder_GetChars_m1236346907
i$k:__GLOBAL__sub_I_Assembly_cpp_13069
mqa:__ZN7Texture13SetFilterModeEi
aZk:__ZN6il2cpp8metadata13GenericMethod9GetMethodEPK19Il2CppGenericMethod
Nr:__ZNSt3__26vectorIN4core12basic_stringIcNS1_20StringStorageDefaultIcEEEENS_9allocatorIS5_EEE7reserveEj
i0i:_Default_SelectProperty_m1220817815
koi:_RemotingConfiguration_IsRemotelyActivatedClientType_m4117048589
a8j:_ListPool_1_Get_m738675669_gshared
zSk:__ZNSt3__26__treeINS_12__value_typeIjN6il2cpp2os17SocketHandleEntryEEENS_19__map_value_compareIjS5_NS_4lessIjEELb1EEENS_9allocatorIS5_EEE25__emplace_unique_key_argsIjJNS_4pairIKjS4_EEEEENSE_INS_15__tree_iteratorIS5_PNS_11__tree_nodeIS5_PvEEiEEbEERKT_DpOT0_
iJa:__ZN13GfxDeviceGLES11SetViewportERK5RectTIiE
GWl:__ZL82Event_t2956885303_CustomAttributesCacheGenerator_Event_get_commandName_m3342234398P21CustomAttributesCache
M4h:__Z68RuntimeInvoker_AnimationMixerPlayable_t821371386_Playable_t459825607PFvvEPK10MethodInfoPvPS4_
qkl:_Physics_Internal_Raycast_m1368166979
Zb:invoke_vifiiii
ye:_emscripten_glDepthRange
Bjh:_SslStreamBase_BeginNegotiateHandshake_m4180435790
Nuh:_TcpClient_Close_m3817529922
$Pc:__ZN5physx2Gu24contactConvexHeightfieldERKNS0_13GeometryUnionES3_RKNS_11PxTransformES6_RKfRNS0_5CacheERNS0_13ContactBufferE
N6c:__ZN5physx6shdfnd5ArrayIPvNS0_19ReflectionAllocatorINS_2Cm5BlockIS2_Lj8EEEEEE15growAndPushBackERKS2_
b4b:__Z14resize_trimmedINSt3__26vectorIN9ShaderLab20SerializedSubProgram12UAVParameterENS0_9allocatorIS4_EEEEEvRT_j
dnj:_Camera_get_main_m882983993
laf:_StandaloneInputModule_GetRawMoveVector_m2737091079
mUi:_HttpBase_readHeaders_m3126693301
Unc:__ZN13BuildSettings34ConvertScenePathToDisplayScenePathERKN4core12basic_stringIcNS0_20StringStorageDefaultIcEEEE
W5l:__ZL62Selectable_t3250028441_CustomAttributesCacheGenerator_m_ColorsP21CustomAttributesCache
OTl:__ZL140AnimatorControllerPlayable_t1015767841_CustomAttributesCacheGenerator_AnimatorControllerPlayable_INTERNAL_CALL_CrossFadeInternal_m2674255643P21CustomAttributesCache
bkh:_SslStreamBase_EndWrite_m4073224031
Eea:__ZNSt3__218__insertion_sort_3IRNS_6__lessI14ObjectLoadDataS2_EEPS2_EEvT0_S6_T_
qLl:__ZL86GameObject_t1113636619_CustomAttributesCacheGenerator_GameObject_SetActive_m3735894026P21CustomAttributesCache
_Pa:__ZN4crndL20crnd_default_reallocEPvjPjbS0_
u9k:_SkinChangedDelegate_Invoke_m2228841850
hhi:__Z54RuntimeInvoker_CustomAttributeNamedArgument_t287865710PFvvEPK10MethodInfoPvPS4_
vqm:__ZNSt3__212basic_stringIcNS_11char_traitsIcEENS_9allocatorIcEEEC2ERKS5_
XWd:__ZN5physx24PxsComputeAABBLocalSpaceERKNS_18PxcAABBDataDynamicERNS_9PxBounds3E
vEb:__ZN18SpriteAtlasManager19AddRequestingSpriteE4PPtrI6SpriteE
Dmc:__ZN16PackedQuatVector9PackQuatsEP11Quaternionfi
Cyc:__Z33Texture_CUSTOM_Internal_GetHeightP12Il2CppObject
vfg:_BinaryReader_ReadInt64_m939370142
PFh:_ValueCollection_System_Collections_ICollection_get_SyncRoot_m3381653267_gshared
Klg:_UnmanagedMemoryStream_Write_m930787521
$fb:__ZN23ScriptableRenderContextC2Ev
xv:__ZN7mecanim9animation18ClipMuscleConstant8TransferI24GenerateTypeTreeTransferEEvRT_
zif:_GridLayoutGroup_get_spacing_m2409263614
hvg:_List_1_System_Collections_ICollection_get_IsSynchronized_m704780517_gshared
Msb:__ZN4PPtrI13RenderTextureE8TransferI18StreamedBinaryReadILb0EEEEvRT_
iEh:_Enumerator_MoveNext_m3051926902_gshared
Nrg:_List_1_CheckIndex_m581273900_gshared
vDe:_UNITY_FT_Stream_GetChar
bmk:_WaitForSeconds_t1699091251_marshal_pinvoke
r8j:_ObjectPool_1_get_countAll_m819305395_gshared
Y_b:__Z18Transfer_BlittableI18StreamedBinaryReadILb1EELb1EdEvRK29SerializationCommandArgumentsR31RuntimeSerializationCommandInfo
Jxg:_List_1_ToArray_m190175978_gshared
wPd:__ZN5physx6shdfnd8internal8HashBaseINS0_4PairIKNS_2Sq13PrunerPayloadEjEES5_NS0_4HashIS5_EENS1_11HashMapBaseIS5_jS9_NS0_9AllocatorEE6GetKeyESB_Lb1EE5eraseERS6_
SPb:__Z26BuildSerializationCacheFor17ScriptingClassPtrRb
t6e:_EventSystem_get_firstSelectedGameObject_m1576206896
JSa:__ZN7ApiGLES15BlitFramebufferEN2gl6HandleILNS0_10ObjectTypeE9EEENS0_15FramebufferReadES3_S3_iiiiiiiiNS0_15FramebufferTypeE
o7d:__ZN5physx13GuMeshFactory16createConvexMeshERNS_13PxInputStreamE
nie:__ZN5physx6shdfnd8internal8HashBaseINS0_4PairIKPKcjEES5_NS0_4HashIS5_EENS1_11HashMapBaseIS5_jS9_NS_7profile26WrapperReflectionAllocatorIjEEE6GetKeyESD_Lb1EE6createERS6_Rb
r$h:__Z112RuntimeInvoker_RuntimeObject_RuntimeObject_RuntimeObject_RuntimeObject_RuntimeObject_RuntimeObject_RuntimeObjectPFvvEPK10MethodInfoPvPS4_
ZOj:_InternalEnumerator_1_System_Collections_IEnumerator_get_Current_m3553395619_AdjustorThunk
Uij:_AnimatorStateInfo_get_nameHash_m3988777370_AdjustorThunk
Jpf:_Array_SetValue_m3998268557
Fmi:_ServerContextTerminatorSink__ctor_m2519287841
Wcf:_ColorBlock_set_highlightedColor_m2089444414_AdjustorThunk
ric:__ZN13ProduceHelperI10GUIElementLb1EE7ProduceE18MemLabelIdentifier18ObjectCreationMode
_ci:__Z59RuntimeInvoker_Boolean_t97287965_X509ChainStatus_t133602714PFvvEPK10MethodInfoPvPS4_
Y7h:__Z52RuntimeInvoker_Boolean_t97287965_Vector3_t3722313464PFvvEPK10MethodInfoPvPS4_
egl:_Input_set_imeCompositionMode_m57811281
mRl:__ZL91Collider_t1773347010_CustomAttributesCacheGenerator_Collider_INTERNAL_get_bounds_m555090921P21CustomAttributesCache
Hfh:_Context_EndSwitchingSecurityParameters_m4148956166
AZe:_ToBase64Transform_InternalTransformFinalBlock_m360524956
yCl:__ZL63ThreadStateException_t3003788475_CustomAttributesCacheGeneratorP21CustomAttributesCache
HOl:__ZL85Object_t631007953_CustomAttributesCacheGenerator_Object_DontDestroyOnLoad_m3153277066P21CustomAttributesCache
Uxk:__ZN6il2cpp6icalls8mscorlib6SystemL8IsStaticEPK12PropertyInfo
qN:__ZN13ProduceHelperI8AnimatorLb0EE7ProduceE18MemLabelIdentifier18ObjectCreationMode
koa:__Z9InitInputv
ZHk:__ZN30dense_hashtable_const_iteratorINSt3__24pairIK10KeyWrapperIPK22Il2CppGenericParameterEPK24MonoGenericParameterInfoEES6_N6il2cpp5utils11PointerHashIS4_EEN14dense_hash_mapIS6_SA_SF_NS6_14EqualsComparerINS0_8equal_toIS5_EEEENS0_9allocatorISB_EEE9SelectKeyESK_SM_E30advance_past_empty_and_deletedEv
NXb:__Z29Transfer_Blittable_ArrayFieldI24GenerateTypeTreeTransfer11ColorRGBA32EvRT_R9ArrayInfoRK23StaticTransferFieldInfo
m7d:__ZNK5physx13GuMeshFactory15getConvexMeshesEPPNS_12PxConvexMeshEjj
mEk:__ZN6il2cpp2gc19AppendOnlyGCHashMapINSt3__24pairIPK10MethodInfoP11Il2CppClassEEP22Il2CppReflectionMethod17ReflectionMapHashIS9_ENS2_8equal_toIS9_EEE3AddERKS9_SB_
onb:__ZN16MemoryFileSystem6DeleteER13FileEntryDatab
RVh:__Z81RuntimeInvoker_Void_t1185182177_RuntimeObject_Int64_t3736567304_Int32_t2950945753PFvvEPK10MethodInfoPvPS4_
Zsg:_List_1_set_Item_m1979164443_gshared
LDa:__ZL21BlitScaleStbImageImplRK14ImageReferenceRS_NS_10ColorSpaceE
Pld:__ZN5physx10NpMaterial17setStaticFrictionEf
Esf:_Boolean_System_IConvertible_ToUInt16_m3465173538_AdjustorThunk
sK:__ZN18StreamedBinaryReadILb0EE21TransferSTLStyleArrayI13dynamic_arrayIjLj4EEEEvRT_17TransferMetaFlags
Qzl:__ZL56HashAlgorithm_t1432317219_CustomAttributesCacheGeneratorP21CustomAttributesCache
mGd:__ZNK5physx7NpScene19getFilterShaderDataEv
ulf:_InputField_get_keyboardType_m1248105267
iTb:__Z29Transfer_Blittable_ArrayFieldI14SafeBinaryReadyEvRT_R9ArrayInfoRK23StaticTransferFieldInfo
PX:__ZN20SoundChannelInstance15setChannelGroupEPN4FMOD12ChannelGroupE
zKi:_Match__ctor_m2425511580
Etl:__ZL63FileNotFoundException_t225391025_CustomAttributesCacheGeneratorP21CustomAttributesCache
Sgd:__ZN5physx2Sc19ShapeInstancePairLL26onPoseChangedWhileSleepingEv
dRd:__ZN5physx22PxcSweepCapsuleCapsuleERKNS_11PxsCCDShapeES2_PKNS_12PxsRigidBodyES5_RKNS_11PxTransformES8_S8_S8_fRNS_6PxVec3ESA_RNS_10PxcNpCacheERNS_18PxcNpThreadContextEf
Uc:invoke_vifffii
n1b:__Z35Transfer_Blittable_FixedBufferFieldI18StreamedBinaryReadILb0EEaEvRK29SerializationCommandArgumentsR31RuntimeSerializationCommandInfo
uNk:__ZN6il2cpp2vm9Exception27RaiseNullReferenceExceptionEv
c_c:__ZNK5physx3Cct17CapsuleController21getHalfHeightInternalEv
nZa:__ZNK25MultiBlocksMemoryFileData5CloneEv
mgk:_UnityAction_1_EndInvoke_m36082240_gshared
QIj:_InternalEnumerator_1_System_Collections_IEnumerator_Reset_m3873091784_AdjustorThunk
U2k:_GC_add_ext_descriptor
nZc:__ZN5physx21PxQueryFilterCallbackD2Ev
G4f:_LayoutGroup_SetProperty_TisSingle_t1397266774_m793506911_gshared
Q3k:__ZN6il2cpp2os14WindowsRuntime22GetRestrictedErrorInfoEv
Gti:_CryptoConfig_CreateFromName_m1538277313
lEg:_Queue_1__ctor_m263978079_gshared
AMl:__ZL89Input_t1431474628_CustomAttributesCacheGenerator_Input_get_imeCompositionMode_m2630714036P21CustomAttributesCache
d$a:__ZN17ArchiveFileSystem11CreateAsDirER13FileEntryData
s4c:__ZL30GeomOverlapCallback_CapsuleBoxRKN5physx10PxGeometryERKNS_11PxTransformES2_S5_PNS_2Gu12TriggerCacheE
pcm:_Rect_set_height_m230303970_AdjustorThunk
Bsm:dynCall_iiiiiiiiiiii
Flf:_InputField_set_caretPositionInternal_m3823580651
mSg:_ReadOnlyCollection_1_get_Item_m2700699993_gshared
uO:__ZN26AnimatorControllerPlayable26ParameterControlledByCurveEi
dIa:__ZN22VertexDeclarationCacheD0Ev
egj:_AnimatorControllerPlayable_IsParameterControlledByCurve_m2697541435
r8b:__ZL26KeywordSetToStringDontSortRKNSt3__26vectorIN4core12basic_stringIcNS1_20StringStorageDefaultIcEEEENS_9allocatorIS5_EEEERS5_
bMe:__Z54Register_UnityEngine_Analytics_CustomEventData_AddCharv
Oya:__ZN6prcoreL17RemapGenericFloatI16TexFormatRGFloat17TexFormatRGBAHalfEEvPKNS_9InnerInfoE
SS:__ZN12AudioManager22CreateFMODSoundFromWWWEP10IWWWStream15FMOD_SOUND_TYPE17FMOD_SOUND_FORMATjjbbP10SampleClip
Egc:__ZNK32RendererMaterialAnimationBinding15GenerateBindingERKN4core12basic_stringIcNS0_20StringStorageDefaultIcEEEEbRN11UnityEngine9Animation14GenericBindingE
Qaj:_TargetException__ctor_m4172127019
$cj:_AnimationClipPlayable_SetApplyFootIK_m3678315720_AdjustorThunk
Ewg:_List_1_CheckCollection_m274117203_gshared
w0l:__ZL70EventSystem_t1003666588_CustomAttributesCacheGenerator_m_FirstSelectedP21CustomAttributesCache
Wxk:__ZNSt3__26vectorIN6il2cpp6icalls8mscorlib6System12PropertyPairENS_9allocatorIS5_EEE21__push_back_slow_pathIS5_EEvOT_
Wba:__ZN8Remapper23GetOrGenerateInstanceIDERK26SerializedObjectIdentifier
Nu:__ZN17AnimationCurveTplI8Vector3fEC2ERKS1_
Fdf:_ColorTween_get_startColor_m3792586410_AdjustorThunk
j$a:__ZN17FileSystemHandler10AtomicMoveER13FileEntryDataS1_
ib:invoke_iiiiiifffiiifii
I3j:_GenericEqualityComparer_1_GetHashCode_m2594842298_gshared
NSh:__Z85RuntimeInvoker_Void_t1185182177_Int32_t2950945753_Int32_t2950945753_Int32_t2950945753PFvvEPK10MethodInfoPvPS4_
WNf:_Double_CompareTo_m3151899116
v4g:_X509CertificateCollection__ctor_m3365535796
gpg:_CustomInfo__ctor_m426096741
ogm:_Sprite_INTERNAL_get_border_m2829993226
L6e:_EventSystem_ToString_m3779610692
RDb:__ZN6Sprite8TransferI24GenerateTypeTreeTransferEEvRT_
kni:_SoapTypeAttribute_get_IsInteropXmlType_m629667929
Ezc:__Z48Register_UnityEngine_Transform_SetAsFirstSiblingv
pKj:_InternalEnumerator_1_System_Collections_IEnumerator_get_Current_m694606607_gshared
UDb:__ZN7SubMesh8TransferI24GenerateTypeTreeTransferEEvRT_
pQi:_Literal_IsComplex_m4067122560
ddl:_GUISkin_FindStyle_m3581816133
gDj:_Action_2__ctor_m1537761784_gshared
$Oc:__ZN5physx3Cct10Controller6setPosERKNS_14PxExtendedVec3E
tUh:__Z46RuntimeInvoker_RuntimeObject_Int16_t2552820387PFvvEPK10MethodInfoPvPS4_
gMg:_Collection_1_System_Collections_IList_Contains_m296643274_gshared
gRc:__ZN5physx2GuL14testFaceNormalERKNS0_13PolygonalDataES3_PNS0_12SupportLocalES5_RKNS_6shdfnd3aos15PsMatTransformVESA_RKNS7_6FloatVERSB_RjRNS7_5Vec3VENS0_13FeatureStatusERSI_
Ffg:_DirectoryInfo__ctor_m126519516
gel:_GUIStyle_Draw_m4068961451
k7i:_MethodBase_GetMethodFromIntPtr_m3014201362
yJg:__ZN21InterfaceFuncInvoker1I19Color32_t2600501292iE6InvokeEjP11Il2CppClassP12Il2CppObjecti
cdc:__ZN13ProduceHelperI14Texture2DArrayLb0EE7ProduceE18MemLabelIdentifier18ObjectCreationMode
tPi:_Reference_get_CapturingGroup_m3861468528
jw:__ZN7mecanim5human9HumanGoal8TransferI18StreamedBinaryReadILb0EEEEvRT_
tSh:__Z40RuntimeInvoker_TypeAttributes_t113483779PFvvEPK10MethodInfoPvPS4_
Rhl:_Mesh_PrintErrorBadSubmeshIndexTriangles_m4077719301
Ivc:__Z46Mesh_CUSTOM_PrintErrorCantAccessMeshForIndicesP12Il2CppObject
kte:__ZNK20TextRenderingPrivate7GUIText22GetTypeVirtualInternalEv
Pqc:__ZN9Transform23SetSiblingIndexInternalEib
rxg:_List_1_Clear_m1143167521_gshared
SVl:__ZL106UISystemProfilerApi_t2230074258_CustomAttributesCacheGenerator_UISystemProfilerApi_BeginSample_m2918561291P21CustomAttributesCache
N6i:_AddEventAdapter__ctor_m2428277574
rNl:__ZL95MonoBehaviour_t3962482529_CustomAttributesCacheGenerator_MonoBehaviour_CancelInvoke_m3387619935P21CustomAttributesCache
y4c:__ZL32GeomOverlapCallback_ConvexConvexRKN5physx10PxGeometryERKNS_11PxTransformES2_S5_PNS_2Gu12TriggerCacheE
eOg:_Collection_1_SetItem_m794903769_gshared
buh:_SocketAsyncResult_t2080034863_marshal_pinvoke_cleanup
jCf:_Enumerator_MoveNext_m635366482
U5g:_X509Extension_Equals_m1222951829
$y:__ZN7mecanim5human12HumanPoseSubERNS0_9HumanPoseERKS1_S4_
Zfj:_AnimatorControllerPlayable_ResetTriggerString_m3988207409
cji:__Z37RuntimeInvoker_Enumerator_t1789501480PFvvEPK10MethodInfoPvPS4_
aSk:__ZN6il2cpp8metadata15GenericMetadata15GetGenericClassEiPK17Il2CppGenericInst
Avf:_Char_GetTypeCode_m2433327340_AdjustorThunk
YRb:__Z18Transfer_BlittableI14SafeBinaryReadLb0E10Matrix4x4fEvRK29SerializationCommandArgumentsR31RuntimeSerializationCommandInfo
_0a:__Z24GetFixedBehaviourManagerv
Kol:__ZL69IntPtr_t_CustomAttributesCacheGenerator_IntPtr_op_Equality_m408849716P21CustomAttributesCache
Qwk:__ZN6il2cpp2vm10ThreadPool4WaitEP17Il2CppAsyncResultPPv
OBj:_Text_UpdateGeometry_m3634850647
S_j:_X509Crl_VerifySignature_m1377612461
Jnm:_vfprintf
t9f:_NumberFormatInfo_get_PositiveInfinitySymbol_m1141345134
Bdm:_RectTransform_INTERNAL_set_sizeDelta_m2933696437
zCf:_Stack_Clear_m2010200235
Mwa:__ZL13SortTexByNameRKNSt3__24pairIN9ShaderLab16FastPropertyNameEN18UnityPropertySheet11UnityTexEnvEEES7_
_0h:__Z68RuntimeInvoker_Void_t1185182177_UInt16_t2177724958_SByte_t1669577662PFvvEPK10MethodInfoPvPS4_
y8e:_PointerEventData_set_pointerPressRaycast_m1363193059
n6a:__ZN20DynamicPropertySheetD0Ev
VTj:_SafeHandle_Dispose_m4229010569
Pkb:__ZN14SafeBinaryRead17RegisterConverterEPKcS1_PFbPvRS_E
o6:__ZN35RegisterRuntimeInitializeAndCleanup8RegisterEPFvPvES2_iS0_
Rzd:__ZNK5physx19NpRigidBodyTemplateINS_14PxRigidDynamicEE17getRigidBodyFlagsEv
P3i:_FieldBuilder_SetValue_m828035213
Dt:__ZN7mecanim6memory16ChainedAllocator7ReserveEj
Sfe:__ZN14PhysicMaterial8TransferI18StreamedBinaryReadILb0EEEEvRT_
e$f:_Array_InternalArray__Insert_TisSingle_t1397266774_m3161726127_gshared
pUg:_ReadOnlyCollection_1_System_Collections_IList_get_IsFixedSize_m733459177_gshared
oxb:__ZN20SphericalHarmonicsL215AddAmbientLightERK10ColorRGBAf
lpl:__ZL72Enum_t4135868527_CustomAttributesCacheGenerator_Enum_ToObject_m121962870P21CustomAttributesCache
xsg:__ZN23InterfaceActionInvoker2IP24ObjectU5BU5D_t2843939325iE6InvokeEjP11Il2CppClassP12Il2CppObjectS1_i
ype:__Z47Register_UnityEngine_MeshCollider_get_skinWidthv
NIk:__ZN14dense_hash_mapI10KeyWrapperINSt3__24pairIPK12PropertyInfoP11Il2CppClassEEEj17ReflectionMapHashIS8_ENS9_14EqualsComparerINS1_8equal_toIS8_EEEENS1_9allocatorINS2_IKS9_jEEEEE15set_deleted_keyERSH_
hRd:__ZN5physx25PxcSweepConvexHeightfieldERKNS_11PxsCCDShapeES2_PKNS_12PxsRigidBodyES5_RKNS_11PxTransformES8_S8_S8_fRNS_6PxVec3ESA_RNS_10PxcNpCacheERNS_18PxcNpThreadContextEf
Nzc:__Z21Object_CUSTOM_DestroyP12Il2CppObjectf
c1a:__ZN8Material26ResetAllCachedMaterialDataEP6Shader
SWh:__Z63RuntimeInvoker_Void_t1185182177_RuntimeObject_Int16_t2552820387PFvvEPK10MethodInfoPvPS4_
Jfj:_AnimatorControllerPlayable_SetIntegerString_m3581995673
GDe:_UNITY_TT_Get_MM_Var
_qi:_ObjectManager_AddFixup_m2154325362
hCg:_List_1_Clear_m3097985365_gshared
_Jf:_DateTimeOffset_CompareTo_m1350732322_AdjustorThunk
aa:invoke_diddi
rFe:__ZNK2UI6Canvas13GetRenderModeEv
Dal:_GUILayoutUtility_Internal_GetWindowRect_m3164426898
Gll:_PlayableHandle_GetPlayableTypeOf_m3035006922
OVf:_Array_compare_TisCustomAttributeTypedArgument_t2723150157_m1384644047_gshared
xJ:__Z32TransferEnumWithNameForceIntSizeI14SafeBinaryRead28TransitionInterruptionSourceEvRT_RT0_PKc17TransferMetaFlags
qRb:__Z18Transfer_BlittableI14SafeBinaryReadLb0EiEvRK29SerializationCommandArgumentsR31RuntimeSerializationCommandInfo
Xuk:__ZN6il2cpp2vm13MetadataCache30GetPropertyDefinitionFromIndexEi
q9k:_Object_op_Implicit_m487959476
$4j:_SymmetricTransform_Transform_m1683494363
Vyd:__ZN5physx14NpRigidDynamic7releaseEv
GPe:__ZN22BaseUnityConnectClient17InitializeSessionERKN4core12basic_stringIcNS0_20StringStorageDefaultIcEEEES6_N19CloudServiceHandler13InitModeFlagsE
Yfg:_Path_SameRoot_m1518354096
rTl:__ZL139AnimatorControllerPlayable_t1015767841_CustomAttributesCacheGenerator_AnimatorControllerPlayable_CrossFadeInFixedTime_m3004021736____layer2P21CustomAttributesCache
p4h:__Z74RuntimeInvoker_RuntimeObject_Int32_t2950945753_RuntimeObject_RuntimeObjectPFvvEPK10MethodInfoPvPS4_
xNd:__ZN5physx6shdfnd8PoolBaseINS_21PxsBodyTransformVault13PxsBody2WorldENS0_19ReflectionAllocatorIS3_EEE15disposeElementsEv
ECg:_List_1_get_Item_m200663048_gshared
Cmi:_ReturnMessage_get_Exception_m3375728265
iK:__ZN15SerializeTraitsI9OffsetPtrIN7mecanim9animation23BlendDirectDataConstantEEE8TransferI24GenerateTypeTreeTransferEEvRS4_RT_
kzm:_emscripten_glDeleteBuffers__wrapper
_Qh:__Z52RuntimeInvoker_Boolean_t97287965_Decimal_t2948259380PFvvEPK10MethodInfoPvPS4_
uKj:_InternalEnumerator_1_MoveNext_m3664960764_AdjustorThunk
Zoc:__ZN13MonoBehaviour34StopCoroutineFromEnumeratorManagedE18ScriptingObjectPtr
ave:_gray_raster_reset
iXc:__ZN5physx2Gu30computeCapsule_TriangleMeshMTDERKNS_22PxTriangleMeshGeometryERKNS_11PxTransformERNS0_8CapsuleVEffbRNS_10PxSweepHitE
CNc:__ZN11UnityEngine9Analytics18SceneLoadTimeEvent12SetSceneLoadERKN4core12basic_stringIcNS2_20StringStorageDefaultIcEEEEiyyyy
sOb:__ZN30RuntimeInitializeOnLoadManager8TransferI18StreamedBinaryReadILb0EEEEvRT_
pEf:_DateTimeOffset__ctor_m2084804982
Lve:_UNITY_tt_face_load_pclt
Kpc:__ZL34GetComponentsImplementationRecurseILb1ELi0ELi2EEbR10GameObjectbRK17CompareParametersRK39GetComponentsImplementation_ReturnValue
rqf:_Array_Sort_m3698291233
KEd:__ZThn8_N5physx2Sc19ShapeInstancePairLL10onActivateEj
x0g:_ASN1_get_Length_m1923878580
L0j:_EqualityComparer_1__cctor_m4244842342_gshared
rjj:_AnimatorTransitionInfo_get_exit_m3346751000_AdjustorThunk
D5a:__ZNK6Camera18WorldToScreenPointERK8Vector3fPb
Uil:_MonoBehaviour_StopCoroutine_m18469544
nXd:__ZN5physx2Cm12DelegateTaskINS_10PxsContextEXadL_ZNS2_28mergeCMDiscreteUpdateResultsEPNS_10PxBaseTaskEEEE11runInternalEv
XBh:_ShimEnumerator__ctor_m3540476040_gshared
EKe:__ZN14UnityAnalyticsD0Ev
ace:__ZN5physx19TriangleMeshBuilder10importMeshERKNS_18PxTriangleMeshDescERKNS_15PxCookingParamsEb
tIa:__Z18IsCompressedFormat14GraphicsFormat
sz:__ZN7mecanim9animation19AdjustPoseForMotionERKNS0_14AvatarConstantERKNS0_14SkeletonTQSMapERKN4math4trsXERNS_10ValueArrayERNS_8skeleton13SkeletonPoseTIS8_EESG_
rri:_SerializationEntry_get_Name_m1530029541_AdjustorThunk
Cmh:_TypeConverterAttribute_GetHashCode_m948291090
iba:__ZNSt3__227__insertion_sort_incompleteIRPFbRKN18AwakeFromLoadQueue4ItemES4_EPS2_EEbT0_S9_T_
j5h:__Z71RuntimeInvoker_Boolean_t97287965_AnimatorControllerPlayable_t1015767841PFvvEPK10MethodInfoPvPS4_
d_l:__ZL73RuntimePlatform_t4159857903_CustomAttributesCacheGenerator_MetroPlayerARMP21CustomAttributesCache
Xeg:_InvalidOperationException__ctor_m1685032583
$sk:__ZN14dense_hash_mapI10KeyWrapperIN6il2cpp5utils13dynamic_arrayIPK10Il2CppTypeLj4EEEEPFvvENS1_8metadata19Il2CppSignatureHashENS8_14EqualsComparerINSB_22Il2CppSignatureCompareEEENSt3__29allocatorINSG_4pairIKS8_SA_EEEEE15set_deleted_keyERSJ_
hCi:_TimeSpan_op_Subtraction_m3592306516
O2j:_EqualityComparer_1_System_Collections_IEqualityComparer_GetHashCode_m1517903420_gshared
Vma:__ZNK20LocalFileSystemPosix6ParentERK13FileEntryDataRN4core12basic_stringIcNS3_20StringStorageDefaultIcEEEE
Wrd:__ZN5physx6shdfnd5ArrayINS_18PxClothFabricPhaseENS0_19ReflectionAllocatorIS2_EEE8recreateEj
Cvg:_List_1_IndexOf_m2805654716_gshared
rjm:_Texture_Internal_GetWidth_m2495281491
WAb:__ZN26EnlightenSystemInformation8TransferI14SafeBinaryReadEEvRT_
X6d:__ZN5physx2Sc19ClothFabricBulkData15exportExtraDataERNS_22PxSerializationContextE
H4h:__Z79RuntimeInvoker_Boolean_t97287965_PlayableHandleU26_t645981773_Int32_t2950945753PFvvEPK10MethodInfoPvPS4_
q9h:__Z119RuntimeInvoker_Void_t1185182177_RuntimeObject_Single_t1397266774_Single_t1397266774_SByte_t1669577662_Int32_t2950945753PFvvEPK10MethodInfoPvPS4_
xHd:__ZN5physx2Sq17SceneQueryManager11shiftOriginERKNS_6PxVec3E
lHb:__ZN12MeshRendererD0Ev
mVc:__ZN5physx2Gu16sweepBoxTriangleERKNS_10PxTriangleERKNS_9PxBounds3ERKNS_6PxVec3ES9_RS7_SA_Rf
VEj:_InternalEnumerator_1__ctor_m2515715560_AdjustorThunk
hgm:_Sprite_get_pixelsPerUnit_m2018825938
gi:_utime
Mce:__ZN5physx10writeChunkEaaaaRNS_14PxOutputStreamE
xPi:_BalancingGroup_Compile_m2575117193
Vwk:__ZN6il2cpp6icalls8mscorlib6System8MonoType18IsGenericParameterEPK10Il2CppType
NBk:__ZNSt3__26vectorIN6il2cpp2vm17TypeNameParseInfoENS_9allocatorIS3_EEE8allocateEj
orj:_StateChanged_EndInvoke_m1411426168
lMi:_Mark_get_Index_m3048692661_AdjustorThunk
Zih:_TlsServerSettings_get_CertificateRequest_m842655670
Dgk:_UnityAction_1__ctor_m508631773_gshared
frk:__ZN15dense_hashtableI10KeyWrapperIPK17Il2CppGenericInstES4_N6il2cpp8metadata21Il2CppGenericInstHashEN14dense_hash_setIS4_S7_NS4_14EqualsComparerINS6_24Il2CppGenericInstCompareEEENSt3__29allocatorIS4_EEE8IdentityESB_SE_ED2Ev
Cn:FUNCTION_TABLE_viiiiif
TQj:_DefaultComparer_Compare_m3931992727_gshared
Xak:_KeyValuePair_2_get_Key_m2065642340_gshared
mo:FUNCTION_TABLE_viiiiii
BPj:_InternalEnumerator_1_System_Collections_IEnumerator_get_Current_m1847780851_AdjustorThunk
u0e:_SecurityException_ToString_m3228070608
qEf:_DateTimeOffset__ctor_m74032857
scl:_GUISkin_set_label_m3058193957
Jid:__ZN5physx2Sc9RigidCore13onShapeChangeERNS0_9ShapeCoreENS_7PxFlagsINS0_21ShapeChangeNotifyFlag4EnumEjEENS4_INS_11PxShapeFlag4EnumEhEE
Lvg:_List_1_Sort_m835021664_gshared
QH:__ZN7mecanim9animation22DestroyAvatarWorkspaceEPNS0_15AvatarWorkspaceERNS_6memory9AllocatorE
rVj:_ConfigHandler_ParseElement_m3124222564
bDi:_Type_type_is_assignable_from_m76737532
Euj:_MaskableGraphic_ParentMaskStateChanged_m1092090553
twd:__ZN5physx6shdfnd5ArrayIPvNS0_15InlineAllocatorILj256ENS0_19ReflectionAllocatorINS_2Sc19ParticlePacketShapeEEEEEE15growAndPushBackERKS2_
MTd:__ZN5physx17solveContactBlockEPKNS_23PxcSolverConstraintDescEjRNS_16PxcSolverContextE
Vce:__ZN5physx6shdfnd10FoundationD2Ev
oBc:__ZNSt3__210__list_impIN10GUIManager12SortedScriptE11memory_poolIS2_EE5clearEv
Zxb:__ZN14PlayableOutput17SetSourcePlayableEP8Playable
PIi:_X509ExtensionCollection_get_IsSynchronized_m2607599544
jEc:__Z32GUIStyle_Set_Custom_PropRichTextP12Il2CppObjecth
iH:__ZN7mecanim9animation29MotionOutputGetDeltaTransformEPKNS0_12MotionOutputE
BNc:__ZN27PerformanceReportingManager21OnSceneTimingCallbackERK15SceneLoadTimingRKN4core12basic_stringIcNS3_20StringStorageDefaultIcEEEE
ZN:__ZN8Animator14OnAddComponentEPN5Unity9ComponentE
Ggh:_ValidationResult_get_ErrorCode_m1533688152
bzc:__Z43Transform_CUSTOM_INTERNAL_get_localRotationP12Il2CppObjectP11Quaternionf
UNd:__ZN5physx2Sc10NPhaseCoreD2Ev
v6c:__ZN5physx2Sc7BodySim18onConstraintDetachEv
J0l:__ZL77ExecuteEvents_t3484638744_CustomAttributesCacheGenerator_U3CU3Ef__mgU24cache3P21CustomAttributesCache
zYh:__Z50RuntimeInvoker_Int64_t3736567304_SByte_t1669577662PFvvEPK10MethodInfoPvPS4_
UAk:__ZN6il2cpp2os4File9SetLengthEPNS0_10FileHandleExPi
zhc:__ZZL23RegisterLightPropertiesR22GenericPropertyBindingEN20Wrapper_LightColorr013SetFloatValueEPvf
Jqi:_ObjectReader_ReadObjectGraph_m340866276
XCh:_Transform_1_EndInvoke_m2716226219_gshared
qgl:_JsonUtility_ToJson_m3300244155
Ki:_emscripten_glGetTexParameteriv
sGd:__ZN5physx7NpScene8simulateEfPNS_10PxBaseTaskEPvjb
Oym:_glGenTextures__wrapper
ZEd:__ZThn8_N5physx2Sc24ElementInteractionMarker10onActivateEj
qxi:_UnicodeEncoding_GetHashCode_m354003420
H_e:_SecurityElement_AddAttribute_m311510562
rqg:_List_1_System_Collections_IList_Remove_m3857206540_gshared
abc:__Z13RegisterClassI4MeshEvv
vXi:_PayloadData_Mask_m3042223115
AYi:_WebSocket_processCookies_m1576598990
cPf:_Enum_Equals_m3617313991
f3h:__Z98RuntimeInvoker_Boolean_t97287965_PlayableOutputHandle_t4208053793_PlayableOutputHandle_t4208053793PFvvEPK10MethodInfoPvPS4_
jci:__Z74RuntimeInvoker_Boolean_t97287965_LineTypeU26_t2430394419_Int32_t2950945753PFvvEPK10MethodInfoPvPS4_
xxb:__ZN8PlayableD0Ev
m0:__Z84Register_UnityEngine_Audio_AudioMixerPlayable_INTERNAL_CALL_SetAutoNormalizeInternalv
hU:__ZN12AudioManager8TransferI19StreamedBinaryWriteILb0EEEEvRT_
dAj:_Slider_UpdateCachedReferences_m3259451627
Ljh:_SslStreamBase_get_KeyExchangeStrength_m217695965
oYh:__Z50RuntimeInvoker_Double_t594665363_Double_t594665363PFvvEPK10MethodInfoPvPS4_
QWh:__Z60RuntimeInvoker_Void_t1185182177_StreamingContext_t3711869237PFvvEPK10MethodInfoPvPS4_
O$b:__ZN18StreamedBinaryReadILb1EE21TransferSTLStyleArrayI13dynamic_arrayI11ColorRGBA32Lj4EEEEvRT_17TransferMetaFlags
zjj:_Application_InvokeOnBeforeRender_m1636116954
kgf:_U3CShowU3Ec__AnonStorey1_U3CU3Em__0_m2340880019
hzj:_Selectable_OnSetProperty_m1693943217
Jrg:_List_1_GetIndex_m2300811709_gshared
Dgc:__ZNK32RendererMaterialAnimationBinding12GetPPtrValueERKN11UnityEngine9Animation10BoundCurveE
E0b:__Z18Transfer_BlittableI18StreamedBinaryReadILb0EELb0E8Vector2fEvRK29SerializationCommandArgumentsR31RuntimeSerializationCommandInfo
xfd:__ZN5physx18NpArticulationLink10clearForceENS_11PxForceMode4EnumE
YRc:__ZN5physx2Gu30distanceSegmentTriangleSquaredERKNS_6PxVec3ES3_S3_S3_S3_PfS4_S4_
_He:__ZN2UI11CanvasGroup12CleanupClassEv
SGh:_ValueCollection_CopyTo_m731455634_gshared
Ckh:_TlsStream_Flush_m3793197834
Gsg:_List_1_GetIndex_m2832472557_gshared
lna:__ZN22LocalFileSystemHandler9MakeLocalER13FileEntryDatab
U_k:__ZN6il2cpp2vm8Profiler10AllocationEP12Il2CppObjectP11Il2CppClass
$Pl:__ZL100RectTransform_t3704657025_CustomAttributesCacheGenerator_RectTransform_INTERNAL_get_pivot_m878744508P21CustomAttributesCache
P3l:__ZL61Graphic_t1660335611_CustomAttributesCacheGenerator_m_MaterialP21CustomAttributesCache
Qse:__ZNSt3__23mapIN20TextRenderingPrivate7FontRefENS1_6OSFontENS_4lessIS2_EENS_9allocatorINS_4pairIKS2_S3_EEEEEixERS8_
ZQj:_DefaultComparer_Compare_m3648806637_gshared
Xka:__Z13FormatOrderedPKcz
pyk:__ZN6il2cpp2vm8basepathEPKc
xim:_TextEditor_SelectCurrentParagraph_m1051150365
Ypd:__ZNK5physx15NpActorTemplateINS_7PxClothEE12getAggregateEv
qQf:_CompareInfo_internal_compare_m2522722857
aqe:__ZN14SafeBinaryRead21TransferSTLStyleArrayI10vector_mapINSt3__24pairIttEEfN20TextRenderingPrivate8FontImpl14KerningCompareENS2_9allocatorINS3_IS4_fEEEEEEEvRT_17TransferMetaFlags
seh:_TlsServerFinished__ctor_m1445633918
ybc:__Z13RegisterClassI15QualitySettingsEvv
BZk:__ZN6il2cpp2vm6String21InitializeEmptyStringEP11Il2CppClass
cec:__ZN26SkinnedMeshRendererManager33HandleInvalidationRendererChangesEPK23TransformAccessReadOnlyj
X2g:_PKCS1_RSASP1_m3912327535
Ncb:__ZN25DeferredRenderLoopScratchD0Ev
sB:__ZN27AnimationLayerMixerPlayable14SetInputWeightEif
z2h:__Z83RuntimeInvoker_Void_t1185182177_RuntimeObject_Single_t1397266774_Single_t1397266774PFvvEPK10MethodInfoPvPS4_
b8e:_PhysicsRaycaster_Raycast_m776323695
Xy:__ZN7mecanim9animation17EvaluateHumanPoseERKNS0_18ClipMuscleConstantERKNS0_15ClipMuscleInputEPKfRKNS0_12MotionOutputERNS_5human9HumanPoseE
mQd:__ZNK5physx2Cm12DelegateTaskINS_13PxsCCDContextEXadL_ZNS2_14postCCDAdvanceEPNS_10PxBaseTaskEEEE7getNameEv
r1l:__ZL92PointerEventData_t3807901092_CustomAttributesCacheGenerator_U3CscrollDeltaU3Ek__BackingFieldP21CustomAttributesCache
L3b:__ZN15dense_hashtableINSt3__24pairIKiN4core17string_with_labelILi1EEEEEi18SInt32HashFunctionN14dense_hash_mapIiS5_S7_NS0_8equal_toIiEE13stl_allocatorIS6_L18MemLabelIdentifier1ELi16EEE9SelectKeyESA_SD_E9copy_fromERKSG_j
Nsa:__ZN6Camera11ResetAspectEv
K4a:__ZNSt3__227__insertion_sort_incompleteIRPFbP10GUIElementS2_EPS2_EEbT0_S7_T_
J0j:_EqualityComparer_1_get_Default_m990790318_gshared
Oub:__ZNK17InstancedPropInfo22FillInstancePropertiesER19ShaderPropertySheetjPK17BatchInstanceDatajRK15RenderNodeQueue
Tvj:_GetRayIntersectionAllCallback__ctor_m391992746
mua:__ZN22CreateGpuProgramOutputD2Ev
mfi:__Z76RuntimeInvoker_Void_t1185182177_Int32_t2950945753_KeyValuePair_2_t4237331251PFvvEPK10MethodInfoPvPS4_
c$c:__ZNK5physx3Cct15ObstacleContext14getNbObstaclesEv
Eqj:_ControllerColliderHit_t240592346_marshal_pinvoke_cleanup
yYb:__Z18Transfer_BlittableI19StreamedBinaryWriteILb0EELb1EsEvRK29SerializationCommandArgumentsR31RuntimeSerializationCommandInfo
MOk:__ZN6il2cpp6icalls8mscorlib6System2IO6MonoIO9SetLengthE12Il2CppIntPtrxPi
pUi:_U3CU3Ec__DisplayClass1__ctor_m2954045229
M9d:__ZN5physx6shdfnd8PoolBaseINS_11NpAggregateENS0_19ReflectionAllocatorIS2_EEE12allocateSlabEv
gXg:_Comparison_1_EndInvoke_m624165032_gshared
B_:__ZN13ProduceHelperI13AudioListenerLb0EE7ProduceE18MemLabelIdentifier18ObjectCreationMode
IJ:__ZN7mecanim9animation23BlendDirectDataConstant8TransferI14SafeBinaryReadEEvRT_
fpk:__ZNSt3__26vectorIPK10Il2CppTypeNS_9allocatorIS3_EEE7reserveEj
mkm:_Transform_INTERNAL_get_localRotation_m3945325706
SXe:_SHA1CryptoServiceProvider_Finalize_m1793183797
NEl:__ZL78Convert_t2465617642_CustomAttributesCacheGenerator_Convert_ToUInt64_m409548990P21CustomAttributesCache
y4j:_HashSet_1_System_Collections_Generic_ICollectionU3CTU3E_CopyTo_m408073502_gshared
nxd:__ZN5physx7NpScene26removeFromParticleBaseListERNS_14PxParticleBaseE
Esd:__ZN5physx2Sc9ClothCore23setSelfCollisionIndicesEPKjj
QZa:__ZN12HandlerChain4OpenER13FileEntryData14FilePermission16FileAutoBehavior
Rfi:__Z72RuntimeInvoker_Void_t1185182177_Int32_t2950945753_RaycastHit_t1056001966PFvvEPK10MethodInfoPvPS4_
nEl:__ZL79Convert_t2465617642_CustomAttributesCacheGenerator_Convert_ToUInt16_m1147931813P21CustomAttributesCache
qEk:__ZN15dense_hashtableINSt3__24pairIK10KeyWrapperINS1_IPK10MethodInfoP11Il2CppClassEEEjEES9_17ReflectionMapHashIS8_EN14dense_hash_mapIS9_jSD_NS9_14EqualsComparerINS0_8equal_toIS8_EEEENS0_9allocatorISB_EEE9SelectKeyESI_SK_E6insertERKSB_
KNc:__ZN27PerformanceReportingManager29OnSceneLoadedAfterAwakeStaticEPS_iR18AwakeFromLoadQueueN19RuntimeSceneManager11LoadingModeE
NAa:__ZN18AssetBundleManager55CollectPreloadObjectsFromAssetBundleLoadAssetOperationsER13dynamic_arrayIiLj4EE
g$l:__ZL94UnityString_t1423233093_CustomAttributesCacheGenerator_UnityString_Format_m3741272017____args1P21CustomAttributesCache
bPl:__ZL119PlayableHandle_t1095853803_CustomAttributesCacheGenerator_PlayableHandle_INTERNAL_CALL_SetPlayStateInternal_m1679028774P21CustomAttributesCache
Hpf:_Array_SetValue_m394135409
_da:__ZN14FileCacherReadD2Ev
CFa:__ZN13RendererScene23UpdatePreviousFrameDataEii
x3e:_String_Remove_m562998446
etc:__Z50Register_UnityEngine_CullingGroup_FinalizerFailurev
DBl:__ZL94UTF32Encoding_t312252005_CustomAttributesCacheGenerator_UTF32Encoding_GetByteCount_m3787179419P21CustomAttributesCache
Yvb:__ZN14SafeBinaryRead21TransferSTLStyleArrayI10vector_mapI7Hash128iNSt3__24lessIS2_EE13stl_allocatorINS3_4pairIS2_iEEL18MemLabelIdentifier80ELi16EEEEEvRT_17TransferMetaFlags
D_e:_SecurityPermission_IsSubsetOf_m545000671
vAa:__ZN27UnloadUnusedAssetsOperationD0Ev
Ysb:__ZN6Camera15ThreadedCleanupEv
poh:_IPHostEntry_get_AddressList_m1351062776
jC:__ZN26AnimatorControllerPlayable6MemoryD2Ev
e3j:_GenericComparer_1__ctor_m2809113506_gshared
IOk:__ZN6il2cpp6icalls8mscorlib6System2IO6MonoIO9GetLengthE12Il2CppIntPtrPi
uqm:__ZNKSt3__221__basic_string_commonILb1EE20__throw_out_of_rangeEv
MQd:__ZN5physx10PxsCCDPair12updateShapesEv
K3f:_Dictionary_2_Do_ICollectionCopyTo_TisBoolean_t97287965_m3600337818_gshared
IXi:_WebSocket__ctor_m3471170183
egk:_InvokableCall_4_Find_m4153917558_gshared
UPk:__ZNK15dense_hashtableINSt3__24pairIK10KeyWrapperIP14Il2CppIUnknownEjEES5_N6il2cpp5utils11PointerHashIS3_EEN14dense_hash_mapIS5_jSB_NS5_14EqualsComparerINS0_8equal_toIS4_EEEENS0_9allocatorIS7_EEE9SelectKeyESG_SI_E12test_deletedERK24dense_hashtable_iteratorIS7_S5_SB_SK_SG_SI_E
Ysj:_ArgumentCache_OnAfterDeserialize_m4176438319
jS:__ZN9AudioClip23VirtualRedirectTransferER18StreamedBinaryReadILb0EE
gTi:_Ext_IsNullOrEmpty_m77719352
uLl:__ZL83GameObject_t1113636619_CustomAttributesCacheGenerator_GameObject_set_tag_m551092519P21CustomAttributesCache
dCg:_List_1_AddEnumerable_m2724989594_gshared
k1a:__ZNSt3__26vectorIPN9ShaderLab9SubShaderENS_9allocatorIS3_EEE21__push_back_slow_pathIKS3_EEvRT_
dec:__ZN26SkinnedMeshRendererManager38HandleInvalidationRootHierarchyChangesEPK23TransformAccessReadOnlyj
V7g:_Kernel_modInverse_m652700340
hQj:_ArraySegment_1_get_Array_m2601536033_AdjustorThunk
ctd:__ZN5physx2Sc9ClothCore22removeCollisionCapsuleEj
e6h:__Z82RuntimeInvoker_Vector2_t2156229523_Vector2_t2156229523_RuntimeObject_RuntimeObjectPFvvEPK10MethodInfoPvPS4_
nlm:_Vector2_get_sqrMagnitude_m3719918747
D7c:__ZN5physx16PxsIslandManager25setArticulationLinkHandleEjPvRKNS_20PxsIslandManagerHookIjLj4294967295EEE
ik:_glCopyTexSubImage2D
qdj:_AnimationLayerMixerPlayable_Equals_m2359722989
Mgc:__ZNK24RendererAnimationBinding13GetFloatValueERKN11UnityEngine9Animation10BoundCurveE
I3:__ZNK15DownloadHandler14HasPendingDataEv
uCm:_glActiveTexture__wrapper
EWe:_RIPEMD160Managed_CompressFinal_m497690796
fma:__ZN18ScreenManagerWebGL13SetShowCursorEb
bHj:_InternalEnumerator_1_MoveNext_m1773160976_gshared
Unm:_frexp
bIe:__ZN2UI13CanvasManager14GetRenderOrderEPKNS_6CanvasE
shd:__ZN5physx6shdfnd5ArrayIPNS_3Scb5ShapeENS0_15InlineAllocatorILj16ENS0_19ReflectionAllocatorIS4_EEEEE15growAndPushBackERKS4_
WRb:__Z18Transfer_BlittableI14SafeBinaryReadLb0E5RectTIfEEvRK29SerializationCommandArgumentsR31RuntimeSerializationCommandInfo
deg:_NumberFormatter_NumberToString_m2562899600
WLa:__ZN9GfxDevice18InsertCustomMarkerEi
eZe:_SymmetricAlgorithm_get_FeedbackSize_m3666584308
Onm:_fmt_u
JPa:__ZN18AsyncUploadManager19AsyncResourceUploadER9GfxDeviceii9TextureID
POa:__ZN14GfxContextGLES14GetFramebufferEv
Bzm:_emscripten_glGenVertexArrays__wrapper
xUg:_ReadOnlyCollection_1_get_Count_m2445738777_gshared
TBh:_ShimEnumerator_get_Key_m4155849607_gshared
zxa:__ZN6prcoreL21CreateRemapAnyBlitterE13TextureFormatS0_
hbh:_RSAManaged_ExportParameters_m1754454264
ync:__ZN17AnimationCurveTplIfE16StripInvalidKeysEv
Rsf:_Boolean_Equals_m535526264_AdjustorThunk
fii:__Z71RuntimeInvoker_KeyValuePair_2_t71524366_Int32_t2950945753_RuntimeObjectPFvvEPK10MethodInfoPvPS4_
EAg:_List_1_TrimExcess_m3801445587_gshared
WGe:__ZNK2UI6Canvas17GetSortingLayerIDEv
Dsf:_Convert_ToUInt16_m3116648921
Rol:__ZL40UIntPtr_t_CustomAttributesCacheGeneratorP21CustomAttributesCache
jAk:_il2cpp_method_has_attribute
kjc:__Z13RegisterClassI17GlobalGameManagerEvv
wfb:__ZN8Renderer24SetupNewRendererForSceneEv
XCi:_Type_internal_from_name_m1721940673
CAk:_il2cpp_type_get_class_or_element_class
T2f:_Array_swap_TisCustomAttributeTypedArgument_t2723150157_TisCustomAttributeTypedArgument_t2723150157_m365781156_gshared
Qmm:_socket_test_Update_m1993268638
jPf:_Environment_get_TickCount_m2088073110
dli:_RemotingServices_GetMethodBaseFromName_m3194612939
jKc:__Z35Transfer_Blittable_FixedBufferFieldI8JSONReadtEvRK29SerializationCommandArgumentsR31RuntimeSerializationCommandInfo
zva:__ZN4PPtrI7TextureE8TransferI14SafeBinaryReadEEvRT_
kbl:_GUILayoutEntry_CalcHeight_m52429841
h0d:__ZN5physx2Sc8ClothSim16addCollisionMeshEPKNS0_8ShapeSimE
jkc:__ZN14PlayableOutput6HandleEv
nDb:__ZNK6Sprite22GetTypeVirtualInternalEv
X3k:__ZN6il2cpp5utils10MemoryPool9AddRegionEj
go:FUNCTION_TABLE_iiiiiiiiiiiiii
gkk:__ZL25UnresolvedVirtualCall_181P12Il2CppObjecthhPK10MethodInfo
k5d:__ZN5physx6shdfnd5ArrayIPKNS_10PxsCCDBodyENS0_19ReflectionAllocatorIS4_EEE8recreateEj
mhd:__ZN5physx6shdfnd4sortINS_2Cm19PreallocatingRegionENS0_4LessIS3_EENS0_19ReflectionAllocatorIS3_EEEEvPT_jRKT0_RKT1_j
SOe:__ZN19UnityConnectService18OnPlayerQuitStaticEPS_
kzi:_SynchronizationLockException__ctor_m3407855920
yUl:__ZL135AnimatorControllerPlayable_t1015767841_CustomAttributesCacheGenerator_AnimatorControllerPlayable_INTERNAL_CALL_GetIntegerString_m225398P21CustomAttributesCache
kwb:__ZN11Tetrahedron8TransferI24GenerateTypeTreeTransferEEvRT_
Bwe:_UNITY_tt_get_cmap_info
cjh:_SslClientStream_RaiseServerCertificateValidation_m3477149273
Zib:__ZN16ReflectionProbes8ScheduleEN18ReflectionProbeJob7JobTypeEP15ReflectionProbei
weh:_ClientSessionInfo_KeepAlive_m1020179566
Crj:_Debug_LogWarning_m218105588
xDg:_List_1_ToArray_m4056539300_gshared
V9k:_GUIUtility_set_textFieldInput_m3210268170
Qsl:__ZL51Calendar_t1661121569_CustomAttributesCacheGeneratorP21CustomAttributesCache
fil:_Mesh_SetSizedArrayForChannel_m2433695052
Cna:__Z18IsDirectoryCreatedRKN4core12basic_stringIcNS_20StringStorageDefaultIcEEEE
Dnj:_Canvas_set_sortingOrder_m2825109295
p_e:_String_FormatHelper_m3913915042
Nzd:__ZN5physx19NpRigidBodyTemplateINS_14PxRigidDynamicEE20setRigidDynamicFlagsENS_7PxFlagsINS_15PxRigidBodyFlag4EnumEhEE
WEh:_Enumerator_System_Collections_IEnumerator_get_Current_m183009269_gshared
aGe:__ZN2UI13CanvasManagerD2Ev
n0i:_ConstructorInfo__cctor_m1016079270
mqk:__ZN15dense_hashtableINSt3__24pairIK10KeyWrapperIPKcEP11Il2CppClassEES5_N6il2cpp5utils11StringUtils12StringHasherIS4_EEN14dense_hash_mapIS5_S8_SE_NS5_14EqualsComparerINSB_13VmStringUtils21CaseSensitiveComparerEEENS0_9allocatorIS9_EEE9SelectKeyESJ_SL_E15set_deleted_keyERKS9_
hMg:__ZN21InterfaceFuncInvoker1Ib20UIVertex_t4057497605E6InvokeEjP11Il2CppClassP12Il2CppObjectS0_
m6g:_AttrListImpl_get_Names_m977594476
Syl:__ZL53IFormatter_t3549834567_CustomAttributesCacheGeneratorP21CustomAttributesCache
vse:_UNITY_FT_GlyphLoader_Done
fej:_AnimationOffsetPlayable_SetPositionInternal_m2285514673
wyd:__ZN5physx22NpParticleBaseTemplateINS_16PxParticleSystemENS_16NpParticleSystemEE20setMaxMotionDistanceEf
hNf:_StackTrace_get_FrameCount_m344690939
rhg:_FileStream_BeginRead_m2419864669
xlg:_UnexceptionalStreamWriter_Write_m363195622
tUd:__ZN5physx18ComputeSortedListsEPNS_2Cm10BitMapBaseINS_6shdfnd9AllocatorEEEjjPKjPPNS_8SapBox1DES7_PjSB_jRKNS_2Gu4AxesESB_RjSB_SG_RbSH_
kP:__ZN17AnimationPlayable8OwnAssetEP11NamedObject
pxe:_tt_cmap14_char_var_index
w1b:__Z35Transfer_Blittable_FixedBufferFieldI18StreamedBinaryReadILb0EEdEvRK29SerializationCommandArgumentsR31RuntimeSerializationCommandInfo
Flm:_Vector3_GetHashCode_m4064605418_AdjustorThunk
Swj:_Selectable_OnPointerDown_m1086067264
Oye:_psh_globals_new
Eff:_Dropdown_SetupTemplate_m628218778
Kyi:_Thread_GetCompressedStack_m2923422412
IXk:_il2cpp_z_zcfree
Sxf:_SynchronizedArrayListWrapper_CopyTo_m4207791406
Nvh:_X509BasicConstraintsExtension_ToString_m1809935297
DIa:__ZN9GfxDevice20SetMaxBufferedFramesEi
O7j:_TweenRunner_1_StartTween_m1055628540_gshared
ikm:_Transform_set_localPosition_m3327877514
RW:__ZN24AudioScriptBufferManagerD2Ev
Tsm:dynCall_vdd
zHe:__ZN2UIL17UnloadAllCanvasesEv
imb:__Z23ConvertIntegerToTypePtrIsEbPvR14SafeBinaryRead
fTi:_Cookie_canSetName_m2519791301
Bcd:__ZNK5physx14NpArticulation17releaseDriveCacheERNS_24PxArticulationDriveCacheE
hpk:__ZN6il2cpp2vm5Class12HasAttributeEP11Il2CppClassS3_
Cwf:_ArrayListWrapper_get_Capacity_m51087796
Enf:_LayoutElement_get_minHeight_m4160507569
_$j:_EqualityComparer_1_System_Collections_IEqualityComparer_GetHashCode_m2230215241_gshared
W6l:__ZL60ContentSizeFitter_t3850442145_CustomAttributesCacheGeneratorP21CustomAttributesCache
kAf:_Hashtable_Contains_m2145146412
Hxa:__ZN6prcoreL29inner_stretch_rgb565_bilinearEPKNS_9InnerInfoE
Ydm:_RectTransform_SetSizeWithCurrentAnchors_m3629118313
Fsd:__ZNK5physx2Sc9ClothCore25getSelfCollisionStiffnessEv
tdl:_GUIStyle_InternalOnAfterDeserialize_m1612061878
DCk:__ZNK15dense_hashtableINSt3__24pairIK10KeyWrapperINS1_IPK14Il2CppAssemblyP11Il2CppClassEEEjEES9_17ReflectionMapHashIS8_EN14dense_hash_mapIS9_jSD_NS9_14EqualsComparerINS0_8equal_toIS8_EEEENS0_9allocatorISB_EEE9SelectKeyESI_SK_E12test_deletedEj
N5k:__ZN6il2cpp2os9FastMutex4LockEv
_bg:_Int32_FindCurrency_m3541026887
MLi:_Interval_CompareTo_m3282557545
_6k:__ZN6il2cpp8metadata19Il2CppSignatureHash4HashERKNS_5utils13dynamic_arrayIPK10Il2CppTypeLj4EEE
HAm:_pthread_cond_wait__wrapper
Ubb:__ZNK14RenderSettings19GetFlatAmbientColorEv
nim:_TextEditor_Insert_m2034907741
PDa:__ZN6prcoreL10inner_flipILj4EEEvPhS1_j
TLb:__ZN18StreamedBinaryReadILb0EE21TransferSTLStyleArrayI10vector_mapIPKN5Unity4TypeE7Hash128NSt3__24lessIS6_EENS8_9allocatorINS8_4pairIS6_S7_EEEEEEEvRT_17TransferMetaFlags
lD:__ZNK27StateMachineBehaviourPlayer15IsSenderEnabledEv
x6l:__ZL58Text_t1901882714_CustomAttributesCacheGenerator_m_FontDataP21CustomAttributesCache
j4i:_GenericTypeParameterBuilder_IsPrimitiveImpl_m1952010459
cRg:_ReadOnlyCollection_1_CopyTo_m3474153465_gshared
nWe:_RijndaelManagedTransform_TransformBlock_m1610137419
ayh:_Enumerator_System_Collections_IDictionaryEnumerator_get_Entry_m1355283127_gshared
zzc:__Z40Register_UnityEngine_Transform_SetParentv
QAl:__ZL94WindowsIdentity_t2948242406_CustomAttributesCacheGenerator_WindowsIdentity_Dispose_m3466258450P21CustomAttributesCache
NLl:__ZL79Screen_t3860757715_CustomAttributesCacheGenerator_Screen_get_height_m1569321028P21CustomAttributesCache
eFb:__ZN14Texture2DArray17UploadToGfxDeviceEv
OV:__Z14FMODMemoryFreePvjPKc
gLl:__ZL98GameObject_t1113636619_CustomAttributesCacheGenerator_GameObject_GetComponentInChildren_m230563287P21CustomAttributesCache
Z4g:_X509CertificateEnumerator_MoveNext_m2269241175
Gwe:_tt_cmap0_validate
yuf:_Char_System_IConvertible_ToDecimal_m3534906463
fAe:_cf2_glyphpath_moveTo
Yll:_PlayableHandle_SetTime_m1367610961
oKd:__ZN5physx3Scb4Body9syncStateEv
aXd:__ZN5physx20SingleAABBUpdateTaskD0Ev
Lgd:__ZN5physx12PxsRigidBody23updatePoseDependenciesVERNS_10PxsContextE
Uz:__ZN7mecanim23TransformValueArrayLoopEiiiRKN4math4trsXES3_RNS_10ValueArrayEf
Meh:_ClientSessionInfo_Finalize_m2165787049
Q8d:__ZN5physx2Gu12TriangleMesh4loadERNS_13PxInputStreamE
zdh:_ClientContext_Clear_m1774063253
xfj:_AnimatorControllerPlayable_SetBoolID_m3209658992
jJf:_DateTime_AddSeconds_m332574389_AdjustorThunk
Ctf:_Byte_System_IConvertible_ToSByte_m1869482168
sMk:__GLOBAL__sub_I_Assembly_cpp
fgf:_U3CDelayedDestroyDropdownListU3Ec__Iterator0_MoveNext_m213723240
bkj:_AsyncOperation_set_allowSceneActivation_m1319035743
mal:_GUIContent_set_text_m172527295
fAa:__Z21PlayerStartFirstSceneb
wG:__ZN7mecanim5human10RetargetToEPKNS0_5HumanEPKNS0_9HumanPoseES6_RKN4math4trsXEPS4_PNS_8skeleton13SkeletonPoseTIS8_EESF_
Nz:__ZN7mecanim9animation8SeekClipERKNS0_12StreamedClipERNS0_18StreamedClipMemoryEf
kFg:_Collection_1_Add_m2420538118_gshared
Pm:_emscripten_glIsTexture
av:__ZN24CompressedAnimationCurveaSERKS_
ul:_emscripten_glHint
Xgj:_AnimatorControllerPlayable_GetAnimatorClipInfoInternal_m892909375
t5j:_Check_SourceAndPredicate_m2332465641
R5h:__Z67RuntimeInvoker_Boolean_t97287965_TextGenerationSettings_t1351628751PFvvEPK10MethodInfoPvPS4_
tDe:_ft_var_readpackeddeltas
N$e:_String_op_Inequality_m215368492
ALh:_Dictionary_2_Clear_m1938428402_gshared
Mrl:__ZL72PKCS12_t4101533060_CustomAttributesCacheGenerator_U3CU3Ef__switchU24mapFP21CustomAttributesCache
hxc:__Z65PlayableOutputHandle_CUSTOM_INTERNAL_CALL_GetPlayableOutputTypeOfR15HPlayableOutput
v_b:__Z35Transfer_Blittable_FixedBufferFieldI18StreamedBinaryReadILb1EEtEvRK29SerializationCommandArgumentsR31RuntimeSerializationCommandInfo
zgm:_StackTraceUtility_ExtractFormattedStackTrace_m3979573127
iFi:_UInt32_System_IConvertible_ToInt64_m2261037378
Sm:_SDL_UpperBlit
T4d:__ZN5physx2Cm12DelegateTaskINS_2Sc5SceneEXadL_ZNS3_13ccdBroadPhaseEPNS_10PxBaseTaskEEEED0Ev
x4f:_Mesh_SetListForChannel_TisVector3_t3722313464_m594975523_gshared
Acb:__Z35GetTextureDecodeValuesWithIntensity16TextureUsageMode17TextureColorSpace10ColorSpacef
mSf:_Array_InternalArray__ICollection_Remove_TisChar_t3634460470_m4143749387_gshared
tod:__ZNK5physx7NpShape16getContactOffsetEv
OFk:__ZN15dense_hashtableINSt3__24pairIK10KeyWrapperINS1_IPK12PropertyInfoP11Il2CppClassEEEjEES9_17ReflectionMapHashIS8_EN14dense_hash_mapIS9_jSD_NS9_14EqualsComparerINS0_8equal_toIS8_EEEENS0_9allocatorISB_EEE9SelectKeyESI_SK_ED2Ev
oWd:__ZN5physx14PxsAABBManager21processAggregatePairsEPKNS_19AggregateSortedDataE
tle:_PxCreateCooking
T5f:_GregorianCalendar__ctor_m979779718
zih:_SslClientStream__ctor_m2402546929
kPb:__ZN14SafeBinaryRead20OverrideRootTypeNameEPKc
Blh:_DictionaryNodeEnumerator_get_Entry_m2309234501
hnk:__ZNK10KeyWrapperIPK22Il2CppGenericParameterE14EqualsComparerINSt3__28equal_toIS2_EEEclERKS3_SA_
cea:__ZN14FileCacherRead16UnlockCacheBlockEj
Eck:_Enumerator_Dispose_m951715887_AdjustorThunk
oqe:__ZNSt3__26vectorIN4core12basic_stringIcNS1_20StringStorageDefaultIcEEEE13stl_allocatorIS5_L18MemLabelIdentifier34ELi16EEE6assignINS_11__wrap_iterIPS5_EEEENS_9enable_ifIXaasr21__is_forward_iteratorIT_EE5valuesr16is_constructibleIS5_NS_15iterator_traitsISF_E9referenceEEE5valueEvE4typeESF_SF_
wIj:_InternalEnumerator_1_System_Collections_IEnumerator_Reset_m521819017_AdjustorThunk
zgg:_IsolatedStorageException__ctor_m1022659452
Hjd:__ZNK5physx12NpBatchQuery23getFilterShaderDataSizeEv
NUb:__Z18Transfer_BlittableI17RemapPPtrTransferLb1E8Vector3fEvRK29SerializationCommandArgumentsR31RuntimeSerializationCommandInfo
jwl:__ZL61ClassInterfaceType_t4029497327_CustomAttributesCacheGeneratorP21CustomAttributesCache
UAi:_WaitHandle_get_Handle_m3260446580
xpg:_Enumerator_VerifyState_m1745883925_AdjustorThunk
rd:_emscripten_glUniform1f
EBf:_SortedList__ctor_m1261191695
xje:__ZN5physx7profile11EventBufferINS_24PxDefaultContextProviderENS_6shdfnd6MutexTINS0_26WrapperReflectionAllocatorIhEEEENS0_14ScopedLockImplIS7_EENS_24PxProfileNullEventFilterEE10doAddEventINS0_17RelativeStopEventEEEvhtRKT_
eRh:__Z75RuntimeInvoker_Int32_t2950945753_DecimalU26_t3714369516_Int64U26_t200113976PFvvEPK10MethodInfoPvPS4_
Wse:__Z20ParseImageParametersR11UTF16StringRiRN20TextRenderingPrivate16TextFormatChangeE
L6l:__ZL55CanvasScaler_t2767979955_CustomAttributesCacheGeneratorP21CustomAttributesCache
pNg:_Collection_1_RemoveItem_m2942561924_gshared
wd:_emscripten_glUniform1i
Ojm:_Touch_get_type_m3668036993_AdjustorThunk
cPb:__ZN13MonoBehaviour9CallAwakeEv
Qfa:__Z33UnregisterDeviceEventCallbackImplPFv23UnityGfxDeviceEventTypeE
U3d:__ZN5physx2Sc19ShapeInstancePairLL23postIslandGenSecondPassEv
_fe:__ZN14PhysicsManager23VirtualRedirectTransferER19StreamedBinaryWriteILb0EE
l5b:__ZN9ShaderLab16SerializedTagMapaSERKS0_
c2:__ZN11UnityEngine15CloudWebService16SessionContainer20RestoreSessionHeaderERKN4core12basic_stringIcNS2_20StringStorageDefaultIcEEEES8_RNS0_13SessionHeaderE
Dke:__ZN5physx26PxPhysicsInsertionCallbackD2Ev
ASe:__ZN22UnityWebRequestManager13BackendRetainEv
Fqc:__ZN8Material28ApplyMaterialPropertyDrawersEv
DPd:__ZN5physx2Sq16BucketPrunerCore12updateObjectERKNS_9PxBounds3ERKNS0_13PrunerPayloadE
f3d:__ZN5physx18PxsDynamicsContext23atomIntegrationParallelEfPKPNS_11PxsBodyCoreEPKPNS_12PxsRigidBodyEjPKNS_2Cm13SpatialVectorEPNS_13PxcSolverBodyEPNS_17PxcSolverBodyDataEPSA_RjSI_RNS_10PxBaseTaskE
NSl:__ZL134AnimationMixerPlayable_t821371386_CustomAttributesCacheGenerator_AnimationMixerPlayable_INTERNAL_CALL_CreateHandleInternal_m2432362541P21CustomAttributesCache
kAh:_Enumerator_Dispose_m1360775770_AdjustorThunk
Nnk:__ZN24dense_hashtable_iteratorINSt3__24pairIK10KeyWrapperIPK22Il2CppGenericParameterEP11Il2CppClassEES6_N6il2cpp5utils11PointerHashIS4_EEN14dense_hash_mapIS6_S9_SE_NS6_14EqualsComparerINS0_8equal_toIS5_EEEENS0_9allocatorISA_EEE9SelectKeyESJ_SL_E30advance_past_empty_and_deletedEv
EH:__ZN11UnityEngine9Animation27CreateAvatarBindingConstantER9TransformPKN7mecanim9animation14AvatarConstantERNS3_6memory9AllocatorE
RNb:__ZN14SafeBinaryRead21TransferSTLStyleArrayINSt3__26vectorIN30RuntimeInitializeOnLoadManager9ClassInfoE13stl_allocatorIS4_L18MemLabelIdentifier12ELi16EEEEEEvRT_17TransferMetaFlags
Inh:_MonoTODOAttribute__ctor_m1298576268
kuj:_MaskableGraphic_get_onCullStateChanged_m3331479633
rVh:__Z151RuntimeInvoker_RuntimeObject_Int32_t2950945753_RuntimeObject_ObjectU5BU5DU26_t712384779_RuntimeObject_RuntimeObject_RuntimeObject_ObjectU26_t2146539884PFvvEPK10MethodInfoPvPS4_
sqc:__ZN9BlobWriteC2ER13dynamic_arrayIhLj16EE24TransferInstructionFlags19BuildTargetPlatform
pbf:_CanvasUpdateRegistry__ctor_m2005397069
Wvh:_OidEnumerator__ctor_m257525176
tca:__ZN14MessageHandler3GetEv
c8i:_MonoMethodInfo_GetCallingConvention_m3156036493
BEj:_InternalEnumerator_1__ctor_m1359891754_AdjustorThunk
Hif:_LayoutGroup_SetLayoutInputForAxis_m2458344630
Kd:_emscripten_glAttachShader
CIa:__ZN9GfxDevice13SetActiveTierE12GraphicsTier
chj:_AnimatorControllerPlayable_GetCurrentAnimatorClipInfoCount_m1409370086
mkf:_Image__cctor_m1927508576
vzi:_SendOrPostCallback_EndInvoke_m2485163446
BKb:__ZNSt3__26vectorIN4core12basic_stringIcNS1_20StringStorageDefaultIcEEEENS_9allocatorIS5_EEE6assignIPS5_EENS_9enable_ifIXaasr21__is_forward_iteratorIT_EE5valuesr16is_constructibleIS5_NS_15iterator_traitsISC_E9referenceEEE5valueEvE4typeESC_SC_
JYc:__ZN5physx2Gu19GetRaycastFuncTableEv
gjl:_PlayerEditorConnectionEvents__ctor_m3325332137
Iph:_IPEndPoint_Equals_m306328693
wpe:__Z49Register_UnityEngine_MeshCollider_get_inflateMeshv
FPj:_InternalEnumerator_1_get_Current_m3331252162_AdjustorThunk
Jbl:_Mathf_Clamp_m500974738
fol:__ZL76String_t_CustomAttributesCacheGenerator_String_Concat_m1809518182____values0P21CustomAttributesCache
FRb:__Z18Transfer_BlittableI14SafeBinaryReadLb0E11QuaternionfEvRK29SerializationCommandArgumentsR31RuntimeSerializationCommandInfo
M3d:__ZN5physx17EdgeChangeManager23cleanupBrokenEdgeEventsEPKNS_4EdgeE
e1b:__Z18Transfer_BlittableI18StreamedBinaryReadILb0EELb1E12PropertyNameEvRK29SerializationCommandArgumentsR31RuntimeSerializationCommandInfo
Z6:_tlsf_walk_heap
iVh:__Z49RuntimeInvoker_Void_t1185182177_OpCode_t123070264PFvvEPK10MethodInfoPvPS4_
WHh:_Dictionary_2_System_Collections_Generic_ICollectionU3CSystem_Collections_Generic_KeyValuePairU3CTKeyU2CTValueU3EU3E_Add_m3401902714_gshared
TKk:__ZNK15dense_hashtableINSt3__24pairIK10KeyWrapperIP11Il2CppClassES4_EES5_N6il2cpp8metadata16SZArrayClassHashEN14dense_hash_mapIS5_S4_SA_NS5_14EqualsComparerINS9_19SZArrayClassCompareEEENS0_9allocatorIS7_EEE9SelectKeyESE_SG_E10test_emptyERK24dense_hashtable_iteratorIS7_S5_SA_SI_SE_SG_E
rec:__ZNK25BlendshapePropertyBinding38SerializedPropertyPathToCurveAttributeER6ObjectPKc
S7h:__Z69RuntimeInvoker_Void_t1185182177_Int32_t2950945753_HitInfo_t3229609740PFvvEPK10MethodInfoPvPS4_
LUl:__ZL59AnimatorClipInfo_t3156717155_CustomAttributesCacheGeneratorP21CustomAttributesCache
yHf:_Convert_ToUInt32_m3592050311
Bb:invoke_vif
e4f:_Component_GetComponents_TisRuntimeObject_m2416546752_gshared
Cb:invoke_vid
XLj:_InternalEnumerator_1__ctor_m2202456613_AdjustorThunk
Mqm:__ZNSt3__212basic_stringIcNS_11char_traitsIcEENS_9allocatorIcEEE6insertEjPKc
Eb:invoke_vii
G_i:_Random_Sample_m2289397474
HId:__ZN5physx13NpVolumeCacheD2Ev
vob:__ZN12TLSAllocatorI14StackAllocatorE16ThreadInitializeEP13BaseAllocator
NWh:__Z82RuntimeInvoker_Boolean_t97287965_SByte_t1669577662_RuntimeObject_SByte_t1669577662PFvvEPK10MethodInfoPvPS4_
gjk:__ZL25UnresolvedVirtualCall_127P12Il2CppObjectPK10MethodInfo
Eph:_IPEndPoint_Serialize_m504081642
MSi:_CookieCollection_parseRequest_m4095201389
H0d:__ZThn8_N5physx2Sc35ParticleElementRbElementInteraction12onDeactivateEj
VIe:__Z41CanvasRenderer_CUSTOM_DisableRectClippingP12Il2CppObject
sJh:_Dictionary_2__ctor_m1324730059_gshared
sng:_MonoType_GetConstructorImpl_m441167626
h4h:__Z85RuntimeInvoker_Void_t1185182177_Double_t594665363_Double_t594665363_Double_t594665363PFvvEPK10MethodInfoPvPS4_
ySd:__ZN5physx16PxsThreadContextC2EPNS_10PxsContextE
LFk:__ZN15dense_hashtableINSt3__24pairIK10KeyWrapperINS1_IPK12PropertyInfoP11Il2CppClassEEEjEES9_17ReflectionMapHashIS8_EN14dense_hash_mapIS9_jSD_NS9_14EqualsComparerINS0_8equal_toIS8_EEEENS0_9allocatorISB_EEE9SelectKeyESI_SK_E8min_sizeEjj
CTi:_Ext_IsText_m3074975627
MHg:_Collection_1_IsFixedSize_m3709118201_gshared
DZa:__ZN25SingleBlockMemoryFileDataD0Ev
tqb:__ZNSt3__26vectorI14ConstantStringNS_9allocatorIS1_EEE6assignINS_11__wrap_iterIPS1_EEEENS_9enable_ifIXaasr21__is_forward_iteratorIT_EE5valuesr16is_constructibleIS1_NS_15iterator_traitsISA_E9referenceEEE5valueEvE4typeESA_SA_
GWg:_ReadOnlyCollection_1_CopyTo_m586367390_gshared
aPc:__ZN5physx3Cct10Controller4moveERNS0_11SweptVolumeERKNS_6PxVec3EffRKNS_19PxControllerFiltersEPKNS_17PxObstacleContextEb
Z1:__ZN11UnityEngine15CloudWebService16SessionContainer21ConvertFromFolderTimeERKN4core12basic_stringIcNS2_20StringStorageDefaultIcEEEEPjPt
_zd:__ZN5physx14NpRigidDynamic17setAngularDampingEf
$Sb:__ZNSt3__26vectorI8GUIStyle13stl_allocatorIS1_L18MemLabelIdentifier1ELi16EEE7reserveEj
FRg:_ReadOnlyCollection_1_Contains_m3869904379_gshared
nMk:__ZN6il2cpp6icalls8mscorlib6System9Threading6Thread27GetSerializedCurrentCultureEP12Il2CppThread
ifh:_Context_set_ReadSequenceNumber_m2154909392
iWe:_RijndaelTransform_SubByte_m3037693507
O8k:_GameObject_GetComponentInChildren_m230563287
f5h:__Z53RuntimeInvoker_AnimatorControllerPlayable_t1015767841PFvvEPK10MethodInfoPvPS4_
Xcc:__Z31CalculateHierarchyTransformType23TransformAccessReadOnly
rbc:__Z13RegisterClassI11TimeManagerEvv
EV:__ZN4FMOD8ChannelI11setPositionEjj
X0k:_GC_set_fl_marks
j9c:__ZN5physx6shdfnd8PoolBaseINS_2Sc12SimStateDataENS0_19ReflectionAllocatorIS3_EEE17releaseEmptySlabsEv
aYl:__ZL99GUIStyle_t3956901511_CustomAttributesCacheGenerator_GUIStyle_INTERNAL_set_contentOffset_m1976585748P21CustomAttributesCache
ukm:_Transform_set_parentInternal_m158091544
Yja:__ZN17BaseObjectManager13StaticDestroyEPv
Xwh:_Comparer_1__cctor_m3891417387_gshared
cyi:_UTF7Decoder_GetChars_m3413809261
RSc:__ZN5physx2Gu22closestPtPointTriangleEPNS_6shdfnd3aos5Vec3VES4_S4_Rj
lNb:__ZNSt3__26vectorIN15ResourceManager10DependencyE13stl_allocatorIS2_L18MemLabelIdentifier51ELi16EEEC2INS_11__wrap_iterIPS2_EEEET_SB_RKS5_PNS_9enable_ifIXaasr21__is_forward_iteratorISB_EE5valuesr16is_constructibleIS2_NS_15iterator_traitsISB_E9referenceEEE5valueEvE4typeE
tpl:__ZL70RuntimeArray_CustomAttributesCacheGenerator_Array_get_Rank_m3448755881P21CustomAttributesCache
ejd:__ZN5physx2Cm8PtrTableC2Ev
eig:_FileSystemInfo_get_FullName_m3468398407
yU:__ZN4FMOD6Reverb13setPropertiesEPK22FMOD_REVERB_PROPERTIES
Tud:__ZNK5physx22NpParticleBaseTemplateINS_15PxParticleFluidENS_15NpParticleFluidEE14getRestitutionEv
X6a:__ZN9DepthPass13PrepareSubsetEjRK10RenderNodeifRK17ShaderReplaceData
IVd:__ZN5physx16PxsBroadPhaseMBP6updateEjjRKNS_23PxcBroadPhaseUpdateDataEPNS_10PxBaseTaskE
Umd:__ZN5physx9NpPhysics18createRigidDynamicERKNS_11PxTransformE
_3c:__ZN5physx6shdfnd5ArrayIPvNS0_19ReflectionAllocatorINS_2Sc18TriggerInteractionEEEE15growAndPushBackERKS2_
mQh:__Z82RuntimeInvoker_Int32_t2950945753_RuntimeObject_Int32_t2950945753_Int32_t2950945753PFvvEPK10MethodInfoPvPS4_
U8g:_ASN1__ctor_m3517592395
jQj:_ArraySegment_1_get_Count_m130702878_AdjustorThunk
Zgl:_Material_HasProperty_m4137769941
Xlc:__Z35SetMeshComponentFromArrayFromScriptR4Mesh30InternalScriptingShaderChannel34InternalScriptingVertexChannelTypei17ScriptingArrayPtri
coc:__Z18ExtractTagThrowingR11ICallString
kwa:__ZN4PPtrI6ShaderE8TransferI19StreamedBinaryWriteILb0EEEEvRT_
FYf:_Array_InternalArray__ICollection_Add_TisCustomAttributeNamedArgument_t287865710_m4157175270_gshared
xNl:__ZL97MonoBehaviour_t3962482529_CustomAttributesCacheGenerator_MonoBehaviour_StartCoroutine_m3300076799P21CustomAttributesCache
qXi:_PayloadData__ctor_m1278664845
jWc:__ZN5physx2Gu17intersectRayAABB2ERKNS_6shdfnd3aos5Vec3VES5_S5_S5_RKNS2_6FloatVERS6_S9_
Gr:__ZN4core20StringStorageDefaultIcE6assignEPKcj
dXi:_WebHeaderCollection_GetKey_m609927459
nGi:_UInt64_System_IConvertible_ToUInt64_m2135047981_AdjustorThunk
ojk:__ZL25UnresolvedVirtualCall_135P12Il2CppObject19Vector2_t2156229523S0_PK10MethodInfo
aod:__ZNK5physx7NpShape17getSphereGeometryERNS_16PxSphereGeometryE
m8g:_BigInteger_ModPow_m3776562770
hml:_PlayableHandle_GetHashCode_m4110212337_AdjustorThunk
R6j:_UnityEvent_2__ctor_m3404211184_gshared
Nil:_MonoBehaviour_IsInvoking_m2187914354
lYc:__ZL18intersectAnyVsMeshILi1EEbPKN5physx2Gu6SphereEPKNS1_7CapsuleEPKNS1_3BoxERKNS1_13RTreeMidphaseERKNS0_11PxTransformERKNS0_11PxMeshScaleEP14LimitedResults
NTk:__ZN15dense_hashtableINSt3__24pairIK10KeyWrapperIP12Il2CppObjectEN6il2cpp2gc9CachedCCWEEES5_NS7_5utils11PointerHashIS3_EEN14dense_hash_mapIS5_S9_SD_NS5_14EqualsComparerINS0_8equal_toIS4_EEEENS0_9allocatorISA_EEE9SelectKeyESI_SK_E3endEv
UNb:__Z14resize_trimmedINSt3__26vectorIi13stl_allocatorIiL18MemLabelIdentifier12ELi16EEEEEvRT_j
Chh:_RecordProtocol_ProcessChangeCipherSpec_m15839975
cwf:_ArrayList_IndexOf_m305368842
ZCg:_List_1_Add_m2996644200_gshared
r7c:__ZN5physx6shdfnd5ArrayIPvNS0_15InlineAllocatorILj256ENS0_19ReflectionAllocatorINS_2Cm5BlockIhLj128EEEEEEEE15growAndPushBackERKS2_
Ngb:__ZN6Camera6SetFarEf
fue:_UNITY_FT_Init_Class_ft_bitmap_glyph_class
pya:__ZN6prcoreL12RemapGenericI17TexFormatABGR888817TexFormatARGB8888EEvPKNS_9InnerInfoE
Tqb:__ZN11GameManager17MainThreadCleanupEv
wCf:_Stack_get_Count_m2258661097
zPg:_ReadOnlyCollection_1__ctor_m1345363288_gshared
AKe:__Z50Register_UnityEngine_UISystemProfilerApi_EndSamplev
UHh:_Dictionary_2_System_Collections_ICollection_get_SyncRoot_m2020472285_gshared
CTl:__ZL118AnimatorControllerPlayable_t1015767841_CustomAttributesCacheGenerator_AnimatorControllerPlayable_CrossFade_m3921353923P21CustomAttributesCache
_Nj:_InternalEnumerator_1_System_Collections_IEnumerator_Reset_m1775752715_AdjustorThunk
oVj:_ConfigHandler_OnProcessingInstruction_m4212209262
Eyg:_List_1_Reverse_m3290386475_gshared
Cqi:_SerializationCallbacks_GetSerializationCallbacks_m2939476649
Eqd:__ZNK5physx7NpCloth24getParticleAccelerationsEPNS_6PxVec4E
Szf:_Hashtable__cctor_m4112166779
gCe:_UNITY_tt_slot_init
K0a:__ZZ23InitPlayerLoopCallbacksvEN41PostLateUpdateUpdateResolutionRegistrator7ForwardEv
v2b:__Z25scripting_array_class_get17ScriptingClassPtrj
wIc:__ZL22Transfer_ManagedObjectI9JSONWriteLb1EEvRK29SerializationCommandArgumentsR31RuntimeSerializationCommandInfo
TR:__ZNK10SampleClip22GetTypeVirtualInternalEv
ZJa:__ZN9GfxDevice20DestroyRenderSurfaceER12ObjectHandleI17RenderSurface_TagP17RenderSurfaceBaseE
tCf:_Stack__ctor_m2602729586
Nka:__ZN18SpriteAtlasManagerC2Ev
Adc:__ZL24PrepareSpriteRenderNodesILb1EEvR35RenderNodeQueuePrepareThreadContext
rXa:__ZN9GfxDevice22UpdateComputeResourcesEjPK9TextureIDPK16TextureDimensionPKijPKjjPK15ComputeBufferIDS7_PK20ComputeBufferCounterjSC_S2_S5_S9_SF_
Uic:__ZN12_GLOBAL__N_15qAsinEff
Bxh:_Comparer_1__cctor_m3470905005_gshared
NHj:_InternalEnumerator_1_System_Collections_IEnumerator_get_Current_m2629988057_AdjustorThunk
wob:__ZN12TLSAllocatorI14StackAllocatorE13ThreadCleanupEv
anl:_Random_Range_m2870227214
TY:__Z18GetAudioManagerPtrv
xHi:_ValueType_InternalEquals_m1384040357
qIj:_InternalEnumerator_1_Dispose_m2043273260_AdjustorThunk
B_k:__ZThn4_N6il2cpp2vm13ComObjectBase16MarshalInterfaceEP13Il2CppIStreamRK10Il2CppGuidPvjS7_j
tBf:_Queue_Clone_m178259971
PFb:__ZN4Mesh27SwizzleVertexColorsIfNeededEb
cpb:__Z27FindActiveTransformWithPathPKc
JTg:_ReadOnlyCollection_1_System_Collections_IList_Remove_m4169110229_gshared
OEi:_UInt16_ToString_m3020002356
tEd:__ZN5physx16PxsIslandManager14setEdgeRigidCMERKNS_20PxsIslandManagerHookIjLj4294967295EEEPNS_17PxsContactManagerE
Cof:_LayoutRebuilder_LayoutComplete_m68578143
Xrb:__ZN12BaseRendererD0Ev
$lb:__Z29StdTemplateConversionFunctionIbyEbPvR14SafeBinaryRead
Uqa:__ZN7Texture5ResetEv
mcd:__ZN5physx14NpArticulation25setStabilizationThresholdEf
ahm:_TextEditor_get_localPosition_m645816721
d1l:__ZL90PointerEventData_t3807901092_CustomAttributesCacheGenerator_U3ClastPressU3Ek__BackingFieldP21CustomAttributesCache
UBf:_SortedList_Find_m3363512987
h8d:__ZN5physx2Gu11HeightField7releaseEv
U8a:__ZNK6Camera7GetNearEv
W3i:_GenericTypeParameterBuilder_GetConstructorImpl_m863833310
gSa:__ZN7ApiGLES11UnmapBufferEjN2gl12BufferTargetE
M_k:__ZN6il2cpp5utilsL24Utf32CharToSurrogatePairEjRA2_Ds
Mzb:__Z25GetNextAllowedTextureSizeib13TextureFormat
ina:__ZN20LocalFileSystemWebGL4CopyER13FileEntryDataS1_
y4:__ZN19CloudServiceHandler6RetainEv
P6k:__ZN6il2cpp2os9Semaphore4WaitEb
pQg:_ReadOnlyCollection_1_System_Collections_IList_IndexOf_m198887188_gshared
Tvg:_List_1_set_Item_m1129294121_gshared
uxi:_UTF32Encoding_GetBytes_m3180303867
ksb:__ZN12BaseRenderer20FlattenToRenderQueueER15RenderNodeQueueRK20DeprecatedSourceData
hDg:_List_1_CopyTo_m4034402519_gshared
i0d:__ZN5physx2Sc8ClothSim23addCollisionHeightfieldEPKNS0_8ShapeSimE
GVf:__ZN21InterfaceFuncInvoker2IihhE6InvokeEjP11Il2CppClassP12Il2CppObjecthh
WAa:__Z34scripting_liveness_calculation_endPv
cWk:__ZN6il2cpp2os6ThreadC2Ev
_Xl:__ZL85GUIStyle_t3956901511_CustomAttributesCacheGenerator_GUIStyle_set_clipping_m2402710559P21CustomAttributesCache
BDj:_U3CGetEnumeratorU3Ec__Iterator0_System_Collections_Generic_IEnumeratorU3CTU3E_get_Current_m1566629109_gshared
eSl:__ZL124AudioClipPlayable_t785069022_CustomAttributesCacheGenerator_AudioClipPlayable_INTERNAL_CALL_SetStartDelayInternal_m806827543P21CustomAttributesCache
mKf:_DateTimeOffset_get_UtcDateTime_m1021718282_AdjustorThunk
iz:__ZN21AnimationClipPlayable22ProcessAnimationNoClipEPK35AnimationPlayableEvaluationConstantPK32AnimationPlayableEvaluationInputP33AnimationPlayableEvaluationOutput
rEe:__ZNK19TextRenderingModule8TMGenGetERK11UTF16StringPN13TextRendering4FontE10TextAnchor13TextAlignmentfffbb11ColorRGBA32fii
Ykh:_HybridDictionary_get_Count_m1166314536
geh:_TlsStream_Write_m1412844442
TJc:__Z18Transfer_BlittableI8JSONReadLb0E8Vector3fEvRK29SerializationCommandArgumentsR31RuntimeSerializationCommandInfo
Eu:__ZN13AnimationClip12Vector3Curve8TransferI14SafeBinaryReadEEvRT_
$Kk:__ZN6il2cpp2vm6Thread6DetachEP12Il2CppThread
aYj:_GeneralNames_get_DNSNames_m3788548987
wsg:_List_1_AddCollection_m2026039026_gshared
Yxe:_Render_Single_Pass
daj:_MonoProperty_GetOptionalCustomModifiers_m62958967
Sfd:__ZNK5physx18NpArticulationLink13isSubordinateEv
Uhk:__ZL24UnresolvedVirtualCall_59P12Il2CppObjectS0_aPK10MethodInfo
nri:_SerializationEntry_t648286436_marshal_pinvoke
KH:__ZN7mecanim8skeleton30SkeletonBuildReverseIndexArrayEPiPKiPKNS0_8SkeletonES6_
DAc:__Z19GetGUIBlendMaterialv
fOh:_DefaultComparer_GetHashCode_m177499767_gshared
Ylg:_Math_Round_m3018379666
NXh:__Z41RuntimeInvoker_Boolean_t97287965_IntPtr_tPFvvEPK10MethodInfoPvPS4_
QWk:__ZN6il2cpp2os10ThreadImpl5SleepEjb
rQg:_ReadOnlyCollection_1_System_Collections_IList_Remove_m1965826685_gshared
WUd:__ZN5physx14SapPairManager12shrinkMemoryEv
HIc:__ZN9JSONWrite8TransferI13GUIStyleStateEEvRT_PKc17TransferMetaFlags
HM:__ZN19StreamedBinaryWriteILb0EE21TransferSTLStyleArrayI22OffsetPtrArrayTransferIN7mecanim5human6HandleEEEEvRT_17TransferMetaFlags
mMf:_Delegate_CreateDelegate_m1051651521
vce:__ZN5physx6shdfnd8internal7median3IjKNS_19SortBoundsPredicateEEEvPT_iiRT0_
wpj:_Collision_GetEnumerator_m1912447147
FI:__ZN18AnimatorController23VirtualRedirectTransferER24GenerateTypeTreeTransfer
bzm:_glBindSampler__wrapper
qg:_emscripten_set_mouseup_callback
u3b:__Z14resize_trimmedINSt3__26vectorIN9ShaderLab14SerializedPassENS0_9allocatorIS3_EEEEEvRT_j
gXa:__ZN9GfxDevice27SetRandomWriteTargetTextureEi9TextureID
tKh:_Dictionary_2_System_Collections_Generic_ICollectionU3CSystem_Collections_Generic_KeyValuePairU3CTKeyU2CTValueU3EU3E_Contains_m3033743418_gshared
p_l:__ZL104SendMouseEvents_t3273302915_CustomAttributesCacheGenerator_SendMouseEvents_DoSendMouseEvents_m4217845379P21CustomAttributesCache
bXh:__Z165RuntimeInvoker_Void_t1185182177_UInt32U26_t3735378166_Int32_t2950945753_UInt32U26_t3735378166_Int32_t2950945753_Int32_t2950945753_Int32_t2950945753_Int32_t2950945753PFvvEPK10MethodInfoPvPS4_
msg:_List_1_System_Collections_IList_Remove_m3140917266_gshared
fvi:_Encoding_get_DecoderFallback_m1525880676
lyl:__ZL59ITrackingHandler_t1244553475_CustomAttributesCacheGeneratorP21CustomAttributesCache
vlj:_AudioPlayableOutput__ctor_m270302921
PNi:_CompositeExpression__ctor_m2434860303
Gsl:__ZL70AssemblyVersionCompatibility_t766556580_CustomAttributesCacheGeneratorP21CustomAttributesCache
UTe:_DSASignatureDeformatter__ctor_m2759753186
fHd:__ZN5physx7NpScene22removeBroadPhaseRegionEj
sKa:__ZN9GfxDevice47SwitchColorRenderSurfaceOutOfFastMemoryPlatformEP17RenderSurfaceBaseb
r4c:__ZL34GeomOverlapCallback_CapsuleCapsuleRKN5physx10PxGeometryERKNS_11PxTransformES2_S5_PNS_2Gu12TriggerCacheE
eMg:_Collection_1_System_Collections_IEnumerable_GetEnumerator_m801406918_gshared
qma:__ZNK18ScreenManagerWebGL8GetWidthEv
nGd:__ZNK5physx7NpScene23getFilterShaderDataSizeEv
Suk:__ZN6il2cpp2vm13MetadataCache33GetFieldDefaultValueDataFromIndexEi
QR:__ZN10SampleClipD2Ev
p4i:_GenericTypeParameterBuilder_get_AssemblyQualifiedName_m2323022482
mjj:_AnimatorTransitionInfo_get_durationUnit_m785951678_AdjustorThunk
Bek:_Predicate_1_Invoke_m2389850270_gshared
PWk:__ZN6il2cpp2os10ThreadImpl13SetWaitObjectEPNS0_5posix15PosixWaitObjectE
i4:__ZN11UnityEngine15CloudWebService20WebRequestRestClientC2Ev
CBe:_cff_cmap_unicode_init
T3a:__ZNSt3__224__buffered_inplace_mergeIRN10vector_mapIiN17InstancedPropInfo12PropertyTypeENS_4lessIiEE13stl_allocatorINS_4pairIiS3_EEL18MemLabelIdentifier1ELi16EEE13value_compareENS_11__wrap_iterIPS8_EEEEvT0_SH_SH_T_NS_15iterator_traitsISH_E15difference_typeESL_PNSK_10value_typeE
yRf:_Array_InternalArray__ICollection_Contains_TisRuntimeObject_m4067783231_gshared
fea:__ZN14FileCacherRead13GetFileLengthEv
w7h:__Z75RuntimeInvoker_Single_t1397266774_IntPtr_t_RuntimeObject_Single_t1397266774PFvvEPK10MethodInfoPvPS4_
OCc:__Z36Event_CUSTOM_Internal_SetNativeEvent13Il2Cpp_IntPtr
lGg:_Collection_1_IsValidItem_m3080586124_gshared
Fff:_DropdownItem_set_text_m3702712387
Ncf:_ClipperRegistry_Register_m2407166513
mpm:_readlink
iGk:__ZN15dense_hashtableINSt3__24pairIK10KeyWrapperINS1_IPK9EventInfoP11Il2CppClassEEEjEES9_17ReflectionMapHashIS8_EN14dense_hash_mapIS9_jSD_NS9_14EqualsComparerINS0_8equal_toIS8_EEEENS0_9allocatorISB_EEE9SelectKeyESI_SK_E12resize_deltaEjj
Z7i:_MonoCMethod_Invoke_m2700167622
QAf:_KeyMarker__cctor_m2590194914
lzh:_Enumerator_Reset_m627751027_AdjustorThunk
p_k:__ZN6il2cpp6icalls8mscorlib6System15MonoCustomAttrs31GetCustomAttributesDataInternalEP12Il2CppObject
DHi:_Version__ctor_m872301635
UJb:__ZNK6Sprite9GetBoundsE8Vector2fbb
A2a:__ZNK19RenderEventsContext21CleanupCommandBuffersEv
xkk:__ZL25UnresolvedVirtualCall_198P12Il2CppObject6Guid_tS1_PK10MethodInfo
yJ:__ZN7mecanim12statemachine13StateConstant8TransferI14SafeBinaryReadEEvRT_
ktg:_List_1_System_Collections_Generic_ICollectionU3CTU3E_get_IsReadOnly_m507350231_gshared
lNa:__ZN11ContextGLES6CreateEi
LXc:__ZN5physx6shdfnd5ArrayINS_10PxTriangleENS0_19ReflectionAllocatorIS2_EEE15growAndPushBackERKS2_
Hlm:_Vector3_Equals_m496167795_AdjustorThunk
p1g:_DSAManaged_GenerateParams_m2848737814
qnf:_U3CMouseDragOutsideRectU3Ec__Iterator1_Dispose_m267465418
PLf:_Decimal_CompareTo_m3502307243_AdjustorThunk
W1b:__Z19TransferField_ArrayI18StreamedBinaryReadILb0EE27Converter_SimpleNativeClassI17AnimationCurveTplIfEEEvRK23StaticTransferFieldInfoR31RuntimeSerializationCommandInfoRT0_
hob:__ZN14StackAllocator16FrameMaintenanceEb
bTc:__ZL11SweepBoxBoxPKN5physx3Cct9SweepTestEPKNS0_11SweptVolumeEPKNS0_11TouchedGeomERKNS_14PxExtendedVec3ERKNS_6PxVec3ERNS0_12SweptContactE
Kqb:__Z18ReadStringFromFilePN4core17string_with_labelILi1EEERKNS_12basic_stringIcNS_20StringStorageDefaultIcEEEE
owj:_Scrollbar_get_value_m760470106
O8:__ZNK10GameObject20QueryComponentByTypeEPKN5Unity4TypeE
wUi:_HttpRequest_GetResponse_m4168170030
gLf:_Decimal_System_IConvertible_ToInt32_m1488426794_AdjustorThunk
zmg:_MonoCustomAttrs_IsUserCattrProvider_m2878058089
v4l:__ZL71InputField_t3762917431_CustomAttributesCacheGenerator_m_HideMobileInputP21CustomAttributesCache
VQ:__Z78AnimatorControllerPlayable_CUSTOM_INTERNAL_CALL_IsParameterControlledByCurveIDR9HPlayablei
KEa:__ZN11TextureData5ResetEv
suc:__Z53Register_UnityEngine_GameObject_get_activeInHierarchyv
u6g:_ActivationContext_Dispose_m2038725770
DUb:__Z35Transfer_Blittable_FixedBufferFieldI17RemapPPtrTransferiEvRK29SerializationCommandArgumentsR31RuntimeSerializationCommandInfo
kaa:__ZL30InitializeCoreScriptingClassesv
lWf:_Array_compare_TisVector4_t3319028937_m1974066282_gshared
lh:_glBlitFramebuffer
n$a:__ZN17ArchiveFileSystem5TouchER13FileEntryData
jMd:__ZNK5physx2Sc5Scene17prefetchForRemoveERKNS0_10StaticCoreE
upg:_Enumerator_System_Collections_IEnumerator_get_Current_m3594024719_gshared
yUb:__Z35Transfer_Blittable_SingleValueFieldI14SafeBinaryReadhEvRT_R17GeneralMonoObjectRK23StaticTransferFieldInfo
s1l:__ZL97PointerEventData_t3807901092_CustomAttributesCacheGenerator_U3CuseDragThresholdU3Ek__BackingFieldP21CustomAttributesCache
Iud:__ZN5physx22NpParticleBaseTemplateINS_15PxParticleFluidENS_15NpParticleFluidEE13setVelocitiesEjRKNS_16PxStrideIteratorIKjEERKNS4_IKNS_6PxVec3EEE
KQe:__ZN22BaseUnityConnectClientC2ERN11UnityEngine7Connect20BasePersistentValuesE
l7a:__ZN13dynamic_arrayI11CulledLightLj4EE6insertEPS0_PKS0_S4_
_wc:__Z81Register_UnityEngine_Playables_PlayableHandle_INTERNAL_CALL_SetInputCountInternalv
yyb:__ZNK12CubemapArray22GetTypeVirtualInternalEv
swb:__ZN11Tetrahedron8TransferI18StreamedBinaryReadILb0EEEEvRT_
Ko:FUNCTION_TABLE_vif
Lo:FUNCTION_TABLE_vid
No:FUNCTION_TABLE_vii
iBa:__Z40scripting_liveness_calculation_from_root18ScriptingObjectPtrPv
qri:_SerializationEntry__ctor_m1411687997_AdjustorThunk
vbm:_RaycastHit_get_point_m177058539_AdjustorThunk
xxl:__ZL65IContributeDynamicSink_t2255997386_CustomAttributesCacheGeneratorP21CustomAttributesCache
lnh:_WriteMethod_BeginInvoke_m2181678049
XSi:_Ext_ToUri_m1852947268
sta:__ZN7Texture23VirtualRedirectTransferER24GenerateTypeTreeTransfer
Are:_UNITY_FT_Set_Transform
Cgc:__ZNK32RendererMaterialAnimationBinding12SetPPtrValueERKN11UnityEngine9Animation10BoundCurveEi
oSk:__ZN6il2cpp8metadata15GenericMetadata20RegisterGenericClassEP18Il2CppGenericClass
Iym:_glDeleteFramebuffers__wrapper
qTh:__Z220RuntimeInvoker_Boolean_t97287965_RuntimeObject_Int32U26_t1369213839_Int32_t2950945753_Int32_t2950945753_Int32_t2950945753_RuntimeObject_SByte_t1669577662_Int32_t2950945753_ContractionU26_t961830454_ContextU26_t3937453398PFvvEPK10MethodInfoPvPS4_
Y6j:_UnityEvent_4_FindMethod_Impl_m96988021_gshared
cEh:_Enumerator__ctor_m920120158_AdjustorThunk
Ftc:__Z36Register_UnityEngine_RectOffset_Initv
mtl:__ZL78TextInfo_t3810425522_CustomAttributesCacheGenerator_TextInfo_Clone_m3838580862P21CustomAttributesCache
Dyk:__ZN6il2cpp2vm7Runtime17GetDelegateInvokeEP11Il2CppClass
$uh:_WebHeaderCollection_ToString_m1263025316
fLj:_InternalEnumerator_1_MoveNext_m1015797184_gshared
jzd:__ZNK5physx15NpActorTemplateINS_14PxRigidDynamicEE14getOwnerClientEv
OVh:__Z91RuntimeInvoker_Void_t1185182177_RuntimeObject_RuntimeObject_RuntimeObject_Int32_t2950945753PFvvEPK10MethodInfoPvPS4_
iaj:_GetterAdapter_Invoke_m3767885970
Uwg:_List_1__ctor_m747758800_gshared
_4i:_MethodBuilder_get_ReflectedType_m3038768129
a4e:_String_CreateString_m2818852475
Arj:__ZN23InterfaceActionInvoker2IP21Exception_t1436737249P17Object_t631007953E6InvokeEjP11Il2CppClassP12Il2CppObjectS1_S3_
kck:_Enumerator_get_Current_m335492761_AdjustorThunk
g6e:_BaseRaycaster_get_renderOrderPriority_m1110184610
Kjd:__ZN5physx12NpBatchQuery13getUserMemoryEv
Du:__Z14resize_trimmedINSt3__26vectorIN13AnimationClip12Vector3CurveE13stl_allocatorIS3_L18MemLabelIdentifier25ELi16EEEEEvRT_j
jYa:__ZNK15Lz4Decompressor16DecompressMemoryEPKvPjPvS2_
swe:_UNITY_tt_face_build_cmaps
fmg:_MemberAccessException__ctor_m3713703094
ful:__ZL117GenericTypeParameterBuilder_t1988827940_CustomAttributesCacheGenerator_GenericTypeParameterBuilder_Equals_m3260957994P21CustomAttributesCache
Ihk:__ZL24UnresolvedVirtualCall_47P12Il2CppObject20DateTime_t3738529785PK10MethodInfo
Ioi:_ServerIdentity_get_ObjectType_m1709199788
Bnb:__ZNSt3__26__treeINS_12__value_typeIN4core12basic_stringIcNS2_20StringStorageDefaultIcEEEEPN16MemoryFileSystem4NodeEEENS_19__map_value_compareIS6_SA_NS_4lessIS6_EELb1EEE13stl_allocatorISA_L18MemLabelIdentifier54ELi16EEE4findIS6_EENS_15__tree_iteratorISA_PNS_11__tree_nodeISA_PvEEiEERKT_
NGl:__ZL72PKCS12_t4101533061_CustomAttributesCacheGenerator_U3CU3Ef__switchU24map8P21CustomAttributesCache
Fve:_UNITY_tt_face_load_os2
b_d:__ZN5physx2GuL34fullContactsGenerationSphereConvexERKNS0_8CapsuleVERKNS0_11ConvexHullVERKNS_6shdfnd3aos12PsTransformVESB_PNS0_17PersistentContactERjRNS0_13ContactBufferEbRNS0_25PersistentContactManifoldERNS8_5Vec3VERKNS8_6FloatVEb
Ozd:__ZN5physx19NpRigidBodyTemplateINS_14PxRigidDynamicEE16setRigidBodyFlagENS_15PxRigidBodyFlag4EnumEb
OP:__Z90Register_UnityEngine_Animations_AnimationOffsetPlayable_INTERNAL_CALL_CreateHandleInternalv
f7c:__ZN5physx6shdfnd8PoolBaseINS_2Sc19ConstraintGroupNodeENS0_19ReflectionAllocatorIS3_EEE17releaseEmptySlabsEv
$Tb:__Z29Transfer_Blittable_ArrayFieldI14SafeBinaryRead8Vector4fEvRT_R9ArrayInfoRK23StaticTransferFieldInfo
Wme:__ZNSt3__27__sort4IRNS_6__lessI24InterpolationDepthHandleS2_EEPS2_EEjT0_S6_S6_S6_T_
nmj:_Bounds_get_size_m1171376090
Yzf:_Hashtable_get_IsSynchronized_m1426775249
wyi:_UTF8Encoding_GetMaxCharCount_m3762459613
k1i:_ModuleBuilder_RegisterToken_m4166846047
bPc:__ZN5physx3Cct8SweptBoxD2Ev
B0a:__ZZ23InitPlayerLoopCallbacksvEN51PostLateUpdateUpdateCustomRenderTexturesRegistrator7ForwardEv
yQd:__ZN5physx2Cm12DelegateTaskINS_13PxsCCDContextEXadL_ZNS2_12postCCDSweepEPNS_10PxBaseTaskEEEED0Ev
Bvj:_RawImage_OnPopulateMesh_m1115858855
QUh:__Z74RuntimeInvoker_MonoFileType_t221779374_IntPtr_t_MonoIOErrorU26_t1548853198PFvvEPK10MethodInfoPvPS4_
evk:__ZN6il2cpp2vm13MetadataCache25GetStringLiteralFromIndexEi
Czf:_Hashtable_ToPrime_m33531354
Gz:__ZN7mecanim9animation12EvaluateClipEPKNS0_4ClipEPKNS0_9ClipInputEPNS0_10ClipMemoryEPNS0_10ClipOutputE
MMg:_Collection_1_IsSynchronized_m1117613618_gshared
_Rg:_ReadOnlyCollection_1_System_Collections_IList_Insert_m2506606514_gshared
n$c:__ZN5physx3Cct9SweepTest15onObstacleAddedEjPKNS_17PxObstacleContextERKNS_6PxVec3ES7_f
ste:__ZN20TextRenderingPrivate7GUIText18GetFontAndMaterialEv
R4c:__ZN5physx2Gu10SupportMapD2Ev
RDi:_TypeInitializationException__ctor_m3546444694
gXf:_Array_InternalArray__IndexOf_TisInt32_t2950945753_m738632427_gshared
hBb:__ZN4PPtrI11LightProbesE8TransferI18StreamedBinaryReadILb0EEEEvRT_
Fwk:__ZNSt3__214__split_bufferI6pollfdRNS_9allocatorIS1_EEEC2EjjS4_
YUj:_CrossAppDomainData_get_DomainID_m3516796532
_ed:__ZNK5physx15NpActorTemplateINS_18PxArticulationLinkEE22getClientBehaviorFlagsEv
tig:_MemoryStream_set_Position_m3169779190
hfb:__ZN13RenderManager29SetCurrentCameraAndStackStateEP6CameraP25CameraStackRenderingState
K7e:_ExecuteEvents_get_scrollHandler_m2659345019
NKk:__ZN15dense_hashtableINSt3__24pairIK10KeyWrapperINS1_IP11Il2CppClassjEEES4_EES6_N6il2cpp8metadata14ArrayClassHashEN14dense_hash_mapIS6_S4_SB_NS6_14EqualsComparerINSA_17ArrayClassCompareEEENS0_9allocatorIS8_EEE9SelectKeyESF_SH_E12resize_deltaEjj
zi:_JS_WebRequest_Release
$ed:__ZNK5physx15NpActorTemplateINS_18PxArticulationLinkEE12getAggregateEv
NPl:__ZL82Transform_t3600365921_CustomAttributesCacheGenerator_Transform_IsChildOf_m98488483P21CustomAttributesCache
x2:__ZN11UnityEngine15CloudWebService14DataErrorEventD0Ev
v3j:_GenericEqualityComparer_1__ctor_m1453861043_gshared
L$k:__ZN6il2cpp6icalls8mscorlib6System7Runtime15InteropServices8GCHandle18CheckCurrentDomainEi
f0l:__ZL72RequiredByNativeCodeAttribute_t4130846357_CustomAttributesCacheGeneratorP21CustomAttributesCache
QGd:__ZNK5physx7NpScene18getStaticStructureEv
PVj:_Context__ctor_m254302079
BQd:__ZN5physx13PxsCCDContext12postCCDSweepEPNS_10PxBaseTaskE
kSk:__ZN6il2cpp8metadata15GenericMetadata7InflateEPK19Il2CppGenericMethodPK20Il2CppGenericContext
L5h:__Z45RuntimeInvoker_SendMessageOptions_t3580193095PFvvEPK10MethodInfoPvPS4_
J3g:_KeyGeneratedEventHandler_EndInvoke_m3057317531
J1a:__ZN19ShaderPropertySheet16SetArrayPropertyEN9ShaderLab16FastPropertyNameENS_12PropertyTypeEPKvj
exj:_Selectable_FindSelectable_m2348614027
S7a:__ZN22PerThreadPageAllocatorC2Ev
fef:_FloatTween_get_duration_m1227071020
tTk:__ZN15dense_hashtableINSt3__24pairIK10KeyWrapperIP12Il2CppObjectEN6il2cpp2gc9CachedCCWEEES5_NS7_5utils11PointerHashIS3_EEN14dense_hash_mapIS5_S9_SD_NS5_14EqualsComparerINS0_8equal_toIS4_EEEENS0_9allocatorISA_EEE9SelectKeyESI_SK_E16reset_thresholdsEv
ycm:_Rect_get_yMax_m2926206027_AdjustorThunk
bde:__ZN5physx6shdfnd10Foundation19AlignCheckAllocator28deregisterAllocationListenerERNS_20PxAllocationListenerE
Aed:__ZN5physx2Sc21ArticulationJointCore12setChildPoseERKNS_11PxTransformE
DGh:_ValueCollection_System_Collections_ICollection_get_SyncRoot_m1849311106_gshared
bkk:__ZL25UnresolvedVirtualCall_176P12Il2CppObject19Vector2_t2156229523PK10MethodInfo
oUh:__Z91RuntimeInvoker_Void_t1185182177_Int32U26_t1369213839_Int32U26_t1369213839_Int32_t2950945753PFvvEPK10MethodInfoPvPS4_
SBc:__ZN8GUIState8EndOnGUIEv
xOk:__ZN6il2cpp6icalls8mscorlib6System2IO6MonoIO16get_ConsoleErrorEv
nCe:_UNITY_TT_Get_VMetrics
Pai:__Z63RuntimeInvoker_Boolean_t97287965_RuntimeObject_Byte_t1134296376PFvvEPK10MethodInfoPvPS4_
Iwh:_X509Chain__cctor_m993507223
PSd:__ZN5physx33solveContactCoulombBlockWriteBackEPKNS_23PxcSolverConstraintDescEjRNS_16PxcSolverContextEPNS_25PxcThresholdStreamElementEjPi
Z0j:_EqualityComparer_1__ctor_m2283513024_gshared
txf:_SimpleEnumerator__cctor_m2844299657
Mlg:_LocalDataStoreSlot__ctor_m4104083971
j1f:_Array_qsort_TisVector3_t3722313464_m4117329442_gshared
aUg:_ReadOnlyCollection_1_System_Collections_Generic_IListU3CTU3E_RemoveAt_m3849058645_gshared
h_j:_X509CertificateEnumerator_System_Collections_IEnumerator_Reset_m2039524926
C_d:__ZN5physx9PxTaskMgr17submitUnnamedTaskERNS_6PxTaskENS_10PxTaskType4EnumE
q_h:__Z128RuntimeInvoker_Void_t1185182177_RuntimeObject_BooleanU26_t4125257963_SByte_t1669577662_Int32U26_t1369213839_Int32U26_t1369213839PFvvEPK10MethodInfoPvPS4_
NPa:__ZN7Texture21GetMasterTextureLimitEv
YDh:_Enumerator_Dispose_m3503748991_AdjustorThunk
Rhb:__Z12CanAddScriptR10GameObject17ScriptingClassPtrPS1_S2_
hJk:__ZN6il2cpp2vm10Reflection12HasAttributeEP12Il2CppObjectP11Il2CppClass
_5h:__Z103RuntimeInvoker_Boolean_t97287965_RuntimeObject_Vector2_t2156229523_RuntimeObject_Vector3U26_t3464235976PFvvEPK10MethodInfoPvPS4_
dMc:__ZN8JSONRead21TransferSTLStyleArrayI13dynamic_arrayI4AABBLj4EEEEvRT_18MemLabelIdentifier17TransferMetaFlags
ZWg:_Comparison_1_BeginInvoke_m3263247262_gshared
X8:__ZN9ShaderLabL25StaticInitializeShaderLabEPv
qfe:__ZN12MeshCollider23VirtualRedirectTransferER24GenerateTypeTreeTransfer
uOd:__ZNK5physx2Sq12BucketPruner5sweepERKNS0_9ShapeDataERKNS_6PxVec3ERfRNS0_14PrunerCallbackE
U:Math_max
e7l:__ZL64HorizontalLayoutGroup_t2586782146_CustomAttributesCacheGeneratorP21CustomAttributesCache
zik:__ZL24UnresolvedVirtualCall_92P12Il2CppObjectPK10MethodInfo
pzk:_il2cpp_class_get_methods
gNf:_StackTrace_get_trace_m1194606084
z1e:_Single_CompareTo_m2785801815_AdjustorThunk
kWk:__ZN6il2cpp2os6Thread16GetCurrentThreadEv
tMh:_Dictionary_2_OnDeserialization_m1544659954_gshared
x$f:_Array_InternalArray__Insert_TisUILineInfo_t4195266810_m3191124053_gshared
njc:__ZN10GameObject13ComponentPair15SetComponentPtrEPN5Unity9ComponentE
xle:__ZN5physx6shdfnd8internal8HashBaseINS0_4PairIKPKNS0_14NamedAllocatorEPKcEES6_NS0_4HashIS6_EENS1_11HashMapBaseIS6_S9_SC_NS0_20NonTrackingAllocatorEE6GetKeyESE_Lb1EE15reserveInternalEj
bbc:__Z13RegisterClassI10MeshFilterEvv
FO:__ZNK26AnimatorControllerPlayable24GetAnimatorClipInfoCountEib
R2l:__ZL75U3COnFinishSubmitU3Ec__Iterator0_t3413438900_CustomAttributesCacheGeneratorP21CustomAttributesCache
Rrb:__ZN10TagManager8TransferI19StreamedBinaryWriteILb0EEEEvRT_
KQb:__ZN11PreloadData23VirtualRedirectTransferER18StreamedBinaryReadILb0EE
sEb:__ZN13sorted_vectorI4PPtrI11SpriteAtlasENSt3__24lessIS2_EE13stl_allocatorIS2_L18MemLabelIdentifier1ELi16EEE21sort_clear_duplicatesEv
pyh:_Enumerator_VerifyCurrent_m2516497577_AdjustorThunk
OE:__Z17dynamic_pptr_castIP10MonoScript6ObjectET_RK4PPtrIT0_E
E3l:__ZL60FontData_t746620069_CustomAttributesCacheGenerator_m_MinSizeP21CustomAttributesCache
nBh:_ShimEnumerator_Reset_m1479883403_gshared
wuf:_Char_System_IConvertible_ToDateTime_m3564102661
i4f:_BaseInvokableCall_ThrowOnInvalidArg_TisBoolean_t97287965_m1128114209_gshared
sDk:__ZN15dense_hashtableINSt3__24pairIK10KeyWrapperINS1_IPK9FieldInfoP11Il2CppClassEEEjEES9_17ReflectionMapHashIS8_EN14dense_hash_mapIS9_jSD_NS9_14EqualsComparerINS0_8equal_toIS8_EEEENS0_9allocatorISB_EEE9SelectKeyESI_SK_E16reset_thresholdsEv
jBf:_SyncHashtable_Clone_m3726939774
lDb:__ZN6Sprite17MainThreadCleanupEv
ixm:_glBlendFuncSeparate__wrapper
NGi:_UIntPtr_System_Runtime_Serialization_ISerializable_GetObjectData_m1767630151
WDi:_TypeLoadException_GetObjectData_m2127700107
UW:__ZN10AudioMixer14UpdateMuteSoloEv
p2a:__Z17GetMonoManagerPtrv
hhj:_AnimatorControllerPlayable_INTERNAL_CALL_GetNextAnimatorClipInfoInternal_m2371459754
vTf:_PlayableHandle_IsPlayableOfType_TisRuntimeObject_m1023351752_AdjustorThunk
mmd:__ZN5physx6shdfnd5ArrayINS_3Scb13MaterialEventENS0_19ReflectionAllocatorIS3_EEE15growAndPushBackERKS3_
Dil:_MeshCollider_set_skinWidth_m2434276555
NYl:__ZL87GUIUtility_t1868551600_CustomAttributesCacheGenerator_U3CguiIsExitingU3Ek__BackingFieldP21CustomAttributesCache
ZZh:__Z69RuntimeInvoker_UInt64_t4134040092_Int32_t2950945753_SByte_t1669577662PFvvEPK10MethodInfoPvPS4_
eua:__ZN9ShaderLab10SubProgram7CompileEv
CCm:_glDepthFunc__wrapper
Yvj:_Raycast2DCallback_Invoke_m1500574149
AHa:__ZNSt3__218__insertion_sort_3IRNS_4lessIN22BuiltinResourceManager8ResourceEEEPS3_EEvT0_S7_T_
TPi:_CharacterClass_Compile_m3296067317
yTi:_Ext_IsData_m3395643302
W8c:__ZN5physx2Sc5Scene11onBodySleepEPNS0_7BodySimE
cYk:__ZN6il2cpp2gc16GarbageCollector16InvokeFinalizersEv
J$a:__ZN10MemoryFileC2E18MemLabelIdentifierP14MemoryFileData14FilePermission
Btf:_Byte_System_IConvertible_ToInt64_m285584218_AdjustorThunk
AVi:_NetworkCredential_get_Password_m1692968435
Q8j:_AttributeHelperEngine_GetCustomAttributeOfType_TisRuntimeObject_m2601070632_gshared
Dnk:__ZN6il2cpp2vm5Class20FromGenericParameterEPK22Il2CppGenericParameter
X4:__ZN19CloudServiceHandler11FlushEventsEv
yja:__ZN15GlobalCallbacksC2Ev
oli:_MethodCall_System_Runtime_Remoting_Messaging_IInternalMessage_set_Uri_m1919576807
tsm:dynCall_vff
HYf:_Array_InternalArray__ICollection_Add_TisLabelData_t360167391_m1648183135_gshared
xR:__Z82Register_UnityEngine_Animations_AnimatorControllerPlayable_INTERNAL_CALL_SetBoolIDv
Sxh:_Comparer_1_System_Collections_IComparer_Compare_m2016223770_gshared
mvi:_Encoding_GetBytes_m3823106599
l8l:__ZL57BaseMeshEffect_t2440176439_CustomAttributesCacheGeneratorP21CustomAttributesCache
oZh:__Z74RuntimeInvoker_DateTime_t3738529785_DateTime_t3738529785_Int32_t2950945753PFvvEPK10MethodInfoPvPS4_
_se:_UNITY_FT_New_Memory_Face
Old:__ZNK5physx10NpMaterial18getDynamicFrictionEv
qJg:_Collection_1_System_Collections_IList_IndexOf_m3271188411_gshared
pQ:__Z81AnimatorControllerPlayable_CUSTOM_INTERNAL_CALL_GetAnimatorTransitionInfoInternalR9HPlayablei
Tqe:__ZN20TextRenderingPrivate21TextMeshGeneratorImpl5FlushEv
fig:_MonoIO_GetFileStat_m678141354
$Og:_ReadOnlyCollection_1_System_Collections_Generic_ICollectionU3CTU3E_Remove_m1363008147_gshared
E$e:__Z15CastclassSealedP12Il2CppObjectP11Il2CppClass
uac:__ZN15ApplicationInfo14GetSandboxTypeEv
Jmd:__ZN5physx9NpPhysics16createConvexMeshERNS_13PxInputStreamE
FUb:__Z18Transfer_BlittableI17RemapPPtrTransferLb1EhEvRK29SerializationCommandArgumentsR31RuntimeSerializationCommandInfo
ELf:_Decimal_IsZero_m4250358244_AdjustorThunk
ylg:_UnmanagedMemoryStream_get_CanRead_m3770815400
AYk:__ZNSt3__26vectorIjNS_9allocatorIjEEE26__swap_out_circular_bufferERNS_14__split_bufferIjRS2_EE
kgb:__ZN16ReflectionProbes40UpdateRealtimeReflectionProbesTimeslicedEv
rRk:__ZNSt3__26__treeINS_12__value_typeIP24Il2CppReflectionAssemblyPvEENS_19__map_value_compareIS3_S5_NS_4lessIS3_EELb1EEENS_9allocatorIS5_EEE16__insert_node_atEPNS_16__tree_node_baseIS4_EERSF_SF_
tDf:_Decimal_u64_m3374804932
xhm:_TextEditor_MoveTextStart_m3741528544
h8c:__ZN5physx2Sq17SceneQueryManager8addShapeERKNS_7NpShapeERKNS_12PxRigidActorEbPNS_9PxBounds3E
kEi:_UInt16_System_IConvertible_ToInt32_m1950778303_AdjustorThunk
INb:__ZNK30RuntimeInitializeOnLoadManager22GetTypeVirtualInternalEv
usk:__ZN15dense_hashtableINSt3__24pairIK10KeyWrapperIN6il2cpp5utils13dynamic_arrayIPK10Il2CppTypeLj4EEEEPFvvEEESA_NS3_8metadata19Il2CppSignatureHashEN14dense_hash_mapISA_SD_SG_NSA_14EqualsComparerINSF_22Il2CppSignatureCompareEEENS0_9allocatorISE_EEE9SelectKeyESK_SM_E12resize_deltaEjj
hgc:__ZN16ReflectionProbes15InitializeClassEv
Mte:_UNITY_FT_Destroy_Class_psnames_module_class
ESi:_Ext_Decompress_m4005664730
Jtk:__ZNK15dense_hashtableINSt3__24pairIK10KeyWrapperIPK11Il2CppClassEPKcEES6_N6il2cpp5utils11PointerHashIS3_EEN14dense_hash_mapIS6_S9_SE_NS6_14EqualsComparerINS0_8equal_toIS5_EEEENS0_9allocatorISA_EEE9SelectKeyESJ_SL_E12test_deletedEj
zql:__ZL107ArrayReadOnlyList_1_t221793636_CustomAttributesCacheGenerator_ArrayReadOnlyList_1_GetEnumerator_m2012327150P21CustomAttributesCache
OBf:_SortedList_get_IsSynchronized_m2987909703
D3f:_Dictionary_2_Do_ICollectionCopyTo_TisKeyValuePair_2_t3699644050_m4159638770_gshared
qQk:__ZN6il2cpp2vm5Image9GetCorlibEv
xlk:__ZL25UnresolvedVirtualCall_252P12Il2CppObject19Vector4_t3319028937PK10MethodInfo
wue:_ft_bitmap_glyph_bbox
Hvj:_RectMask2D__ctor_m1497447338
UE:__ZN8Animator13BatchedFKPassERK13dynamic_arrayIP14PlayableOutputLj4EE
Fvl:__ZL50Pointer_t2088917139_CustomAttributesCacheGeneratorP21CustomAttributesCache
Vpd:__ZNK5physx15NpActorTemplateINS_7PxClothEE14getOwnerClientEv
Xwc:__Z75Register_UnityEngine_Playables_PlayableHandle_INTERNAL_CALL_SetTimeInternalv
wSd:__ZNK5physx2Gu29EPASupportMapPairRelativeImplINS0_8CapsuleVES2_E9doSupportERKNS_6shdfnd3aos5Vec3VERS6_S9_S9_
x7e:_ExecuteEvents_Execute_m113814934
Y0f:_Array_qsort_TisColor32_t2600501292_m1362211604_gshared
cqj:_Component_GetComponentsInChildren_m2110248505
mce:__ZN5physx10SubSortSAH5sort4EPjjRNS_6shdfnd5ArrayINS_11RTreeNodeNQENS2_19ReflectionAllocatorIS4_EEEERjjPS4_
vyh:_Enumerator_System_Collections_IEnumerator_get_Current_m2979767597_AdjustorThunk
CVe:_MD5CryptoServiceProvider_ProcessFinalBlock_m2241588515
oyj:_ScrollRect_GetBounds_m449872505
xk:_glIsVertexArray
ohe:__ZN14SphereCollider16TransformChangedEi
Qbg:_Int16_Parse_m2276856944
jLj:_InternalEnumerator_1__ctor_m3443175323_AdjustorThunk
lOb:__ZNSt3__26vectorIN4core12basic_stringIcNS1_20StringStorageDefaultIcEEEE13stl_allocatorIS5_L18MemLabelIdentifier12ELi16EEEC2INS_11__wrap_iterIPS5_EEEET_SE_RKS8_PNS_9enable_ifIXaasr21__is_forward_iteratorISE_EE5valuesr16is_constructibleIS5_NS_15iterator_traitsISE_E9referenceEEE5valueEvE4typeE
SYa:__ZN25SingleBlockMemoryFileDataC2E18MemLabelIdentifierPvjb
xpb:__ZN5Unity9Component8TransferI18StreamedBinaryReadILb0EEEEvRT_
hvl:__ZL131CustomAttributeData_t1084486650_CustomAttributesCacheGenerator_CustomAttributeData_t1084486650____ConstructorArguments_PropertyInfoP21CustomAttributesCache
ga:invoke_fff
efm:_SceneManager_Internal_ActiveSceneChanged_m1220784726
TZi:_WebSocketFrame_System_Collections_IEnumerable_GetEnumerator_m3955528742
Ivm:b14
Gke:__ZN5physx2Sc7PhysicsC2ERKNS_17PxTolerancesScaleERKNS_14PxvOffsetTableE
Ume:__ZNSt3__26__sortIRNS_6__lessI24InterpolationDepthHandleS2_EEPS2_EEvT0_S6_T_
aFe:__ZN2UI6Canvas17MainThreadCleanupEv
Zxa:__ZN6prcoreL12RemapGenericI17TexFormatARGB155517TexFormatRGBA8888EEvPKNS_9InnerInfoE
Hpk:__ZN13Il2CppHashMapIPK19Il2CppGenericMethodPK26Il2CppGenericMethodIndicesN6il2cpp8metadata23Il2CppGenericMethodHashENS7_26Il2CppGenericMethodCompareENSt3__29allocatorINSA_4pairIK10KeyWrapperIS2_ES5_EEEEEC2EjRKS8_RKS9_
Gvm:b12
cRj:_Comparer_1__ctor_m2785105123_gshared
q6i:_TypeBuilder_HasElementTypeImpl_m1871001960
E0e:_SecurityFrame__ctor_m2140076703_AdjustorThunk
r$j:_DefaultComparer_Equals_m2458578172_gshared
IVa:__ZN7ApiGLES13CreateProgramEv
Ntb:__ZN11HaloManager7AddHaloEv
t9l:__ZL67Ext_t2749166018_CustomAttributesCacheGenerator_Ext_Emit_m2151477629P21CustomAttributesCache
szh:_Enumerator_VerifyState_m4003066746_gshared
ZPa:__ZN4crnd12crn_unpackerD2Ev
Kk:_emscripten_glTexImage2D
_Be:_tt_driver_class_pic_init
aaa:__ZN18ScriptingArguments9AddStringEPKc
VHj:_InternalEnumerator_1_System_Collections_IEnumerator_get_Current_m2742943179_gshared
wvf:_Char_ToString_m3588025615
YTf:_SetPropertyUtility_SetStruct_TisAspectMode_t3417192999_m1565063249_gshared
NMj:_InternalEnumerator_1_System_Collections_IEnumerator_get_Current_m1911422882_AdjustorThunk
Nrm:runPostSets
vSd:__ZNK5physx2Gu29EPASupportMapPairRelativeImplINS0_8CapsuleVES2_E18doWarmStartSupportEiiRNS_6shdfnd3aos5Vec3VES7_S7_
j1g:_CryptoConvert_ToCapiKeyBlob_m3371450375
VDa:__ZL23stbir__resize_arbitraryPvPKviiiS_iiiffffPfiij14stbir_datatype12stbir_filterS4_10stbir_edgeS5_16stbir_colorspace
KWb:__Z18Transfer_BlittableI24GenerateTypeTreeTransferLb1E8Vector4fEvRK29SerializationCommandArgumentsR31RuntimeSerializationCommandInfo
Mvm:b18
Vk:_pthread_detach
awk:__ZN6il2cpp2vm19SocketPollingThread7RunLoopEv
Gml:_ScriptPlayableOutput_Create_m2994737113
Ugf:_FontUpdateTracker_UntrackText_m1981515690
cyg:_List_1_System_Collections_ICollection_get_SyncRoot_m1937857346_gshared
ENd:__ZN5physx11EdgeManager6resizeEj
Rjc:__ZN15DirectorManager20ScheduleGraphDestroyERK14HPlayableGraph
MGa:__ZNSt3__213__stable_sortIRN10vector_mapI17ScriptingClassPtrPKN5Unity4TypeENS_4lessIS2_EENS_9allocatorINS_4pairIS2_S6_EEEEE13value_compareENS_11__wrap_iterIPSB_EEEEvT0_SJ_T_NS_15iterator_traitsISJ_E15difference_typeEPNSM_10value_typeEi
PZg:_SimpleCollator_FillSurrogateSortKeyRaw_m725998232
jzg:_List_1_AddEnumerable_m1284696147_gshared
qph:_IPAddress_Equals_m1823478787
FZj:_X509Certificate_get_RSA_m1755006809
zWj:_Context_CreateNewContext_m3053563976
Z5b:__ZN9ShaderLab25SerializedTextureProperty8TransferI24GenerateTypeTreeTransferEEvRT_
kgl:_DefaultValueAttribute__ctor_m150507638
g3f:_Array_swap_TisVector2_t2156229523_TisVector2_t2156229523_m345092822_gshared
iGg:_Collection_1_get_Item_m1773274637_gshared
$Gk:__ZN6il2cpp2gc19AppendOnlyGCHashMapINSt3__24pairIPK14Il2CppAssemblyP11Il2CppClassEEP24Il2CppReflectionAssembly17ReflectionMapHashIS9_ENS2_8equal_toIS9_EEEC2Ev
oxe:_tt_cmap14_char_next
QLa:__ZN13GfxDeviceGLES28GetNativeVertexBufferPointerEP9GfxBuffer
xAd:__ZN5physx2Sc5Scene12removeStaticERNS0_10StaticCoreERNS_6shdfnd11InlineArrayIPKNS0_9ShapeCoreELj64ENS4_19ReflectionAllocatorIS8_EEEEb
LAg:_List_1__ctor_m404557453_gshared
qsa:__ZN11NamedObject8TransferI18StreamedBinaryReadILb0EEEEvRT_
DUa:__ZNK17GPUSkinPoseBuffer12GetBoneCountEv
eZl:__ZL93GUIUtility_t1868551600_CustomAttributesCacheGenerator_GUIUtility_Internal_ExitGUI_m1320927180P21CustomAttributesCache
eEc:__Z32GUIStyle_Get_Custom_PropFontSizeP12Il2CppObject
jAf:_Hashtable_Clear_m3112193608
aTl:__ZL144AnimatorControllerPlayable_t1015767841_CustomAttributesCacheGenerator_AnimatorControllerPlayable_INTERNAL_CALL_GetLayerIndexInternal_m3431949908P21CustomAttributesCache
eyi:_UTF8Encoding_InternalGetByteCount_m771565606
FPk:__ZNK15dense_hashtableINSt3__24pairIK10KeyWrapperIP14Il2CppIUnknownEjEES5_N6il2cpp5utils11PointerHashIS3_EEN14dense_hash_mapIS5_jSB_NS5_14EqualsComparerINS0_8equal_toIS4_EEEENS0_9allocatorIS7_EEE9SelectKeyESG_SI_E12test_deletedEj
JKc:__Z18Transfer_BlittableI8JSONReadLb1EyEvRK29SerializationCommandArgumentsR31RuntimeSerializationCommandInfo
hug:_List_1_System_Collections_IList_Remove_m3654336679_gshared
eMl:__ZL51GUILayer_t2783472903_CustomAttributesCacheGeneratorP21CustomAttributesCache
Vrl:__ZL56IDictionary_2_t3177279192_CustomAttributesCacheGeneratorP21CustomAttributesCache
bVf:_Array_InternalArray__IEnumerable_GetEnumerator_TisUInt64_t4134040092_m1382862496_gshared
ql:_emscripten_glMatrixMode
Iuj:_MaskableGraphic_UnityEngine_UI_IClippable_get_gameObject_m1739855597
o9f:_NumberFormatInfo_get_RawPercentGroupSizes_m97703232
yx:__ZN8Animator23VirtualRedirectTransferER18StreamedBinaryReadILb0EE
Dag:_Guid__ctor_m3562600567_AdjustorThunk
N4:__ZN19CloudServiceHandler19StopEventDispatcherEv
c8d:__ZN5physx13GuMeshFactory17createHeightFieldERNS_13PxInputStreamE
GDd:__ZN5physx2Sc10NPhaseCore25createShapeInstancePairLLERNS0_8ShapeSimES3_NS_7PxFlagsINS_10PxPairFlag4EnumEtEE
Slj:_PCMSetPositionCallback_BeginInvoke_m2733210754
Ajm:_Texture2D_INTERNAL_CALL_GetPixelBilinear_m3709190890
T1:__ZN11UnityEngine15CloudWebService14DataDispatcher16PrepareDataBlockERNS0_16SessionContainerE
ZVa:__ZN18GfxFramebufferGLES5ClearE13GfxClearFlagsRK10ColorRGBAffib
LEd:__ZThn8_N5physx2Sc19ShapeInstancePairLL12onDeactivateEj
Elc:__Z21CalculateClosestPointRK8Vector3fRK4AABBRS_Rf
cYf:_MonoProperty_StaticGetterAdapterFrame_TisRuntimeObject_m4131530968_gshared
WGi:_UIntPtr_ToString_m984583492_AdjustorThunk
j1b:__ZL26Transfer_SimpleNativeClassI18StreamedBinaryReadILb0EE10RectOffsetLb0EEvRK29SerializationCommandArgumentsR31RuntimeSerializationCommandInfo
Jte:_UNITY_ft_destroy_default_module_classes
G6a:__ZL12DepthPassJobPN21GfxDeviceAsyncCommand10ArgScratchEPKNS_3ArgE
A4b:__ZNSt3__26vectorIN9ShaderLab20SerializedSubProgram16TextureParameterENS_9allocatorIS3_EEE6assignINS_11__wrap_iterIPS3_EEEENS_9enable_ifIXaasr21__is_forward_iteratorIT_EE5valuesr16is_constructibleIS3_NS_15iterator_traitsISC_E9referenceEEE5valueEvE4typeESC_SC_
pDh:_Transform_1_EndInvoke_m1701794896_gshared
Ode:__ZN9Rigidbody16ApplyConstraintsEv
Qzi:_Thread_SetCachedCurrentUICulture_m1729523031
RIe:__Z55Register_UnityEngine_CanvasGroup_get_ignoreParentGroupsv
cnf:_InputField_get_minHeight_m2822964544
Ebc:__Z13RegisterClassI19LowerResBlitTextureEvv
lbh:_KeyGeneratedEventHandler__ctor_m4032730305
yn:FUNCTION_TABLE_iiiiiiiiiiii
Myg:_List_1_get_Item_m1686506901_gshared
bll:_Playable_Equals_m1961591669
nwd:__ZN5physx2Sc17ParticleSystemSim8setFlagsEj
ptb:__ZN16GraphicsSettingsD0Ev
Glb:__Z29StdTemplateConversionFunctionIshEbPvR14SafeBinaryRead
Leb:__ZN15LODGroupManager21CalculateLODDataArrayERK13LODParametersPK6Cameraf
n:cttz_i8
Tze:_UNITY_FT_GlyphLoader_Add
ebe:__ZN5physx2Gu15EdgeListBuilder18CreateEdgesToFacesEjPKjPKt
wXc:__ZN5physx11PxMeshQuery5sweepERKNS_6PxVec3EfRKNS_10PxGeometryERKNS_11PxTransformEjPKNS_10PxTriangleERNS_10PxSweepHitENS_7PxFlagsINS_9PxHitFlag4EnumEtEEPKjfb
_Nl:__ZL102DataUtility_t2196215967_CustomAttributesCacheGenerator_DataUtility_INTERNAL_CALL_GetInnerUV_m254329766P21CustomAttributesCache
rQj:_DefaultComparer_Compare_m1878901918_gshared
_rj:_DisplaysUpdatedDelegate__ctor_m274078413
ewl:__ZL62ActivationArguments_t4219999170_CustomAttributesCacheGeneratorP21CustomAttributesCache
gVi:_Logger_Warn_m466054747
oOb:__ZN15SerializeTraitsINSt3__26vectorIN30RuntimeInitializeOnLoadManager9ClassInfoE13stl_allocatorIS3_L18MemLabelIdentifier12ELi16EEEEE8TransferI24GenerateTypeTreeTransferEEvRS7_RT_
M0h:__Z53RuntimeInvoker_Interval_t1802865632_Int32_t2950945753PFvvEPK10MethodInfoPvPS4_
gHf:_Convert_ToUInt16_m867476252
mm:_emscripten_glViewport
iqg:_List_1__ctor_m1672885191_gshared
w4a:__ZN4Mesh21UnswizzleVertexColorsEb
yck:_Enumerator__ctor_m40451936_AdjustorThunk
W7h:__Z53RuntimeInvoker_Vector3_t3722313464_Single_t1397266774PFvvEPK10MethodInfoPvPS4_
f9k:_Gradient_t3067099924_marshal_pinvoke_back
Sfm:_SkeletonBone_t4134054672_marshal_pinvoke_back
Dka:__ZN30dense_hashtable_const_iteratorINSt3__24pairIKN4core12basic_stringIcNS2_20StringStorageDefaultIcEEEEP11AssetBundleEES6_20StringHash32FunctionIS6_EN14dense_hash_mapIS6_S9_SC_NS0_8equal_toIS6_EENS0_9allocatorISA_EEE9SelectKeyESF_SH_EppEv
r0i:_CustomAttributeData_get_Constructor_m489601093
rjk:__ZL25UnresolvedVirtualCall_138P12Il2CppObjectiPK10MethodInfo
XBe:_cff_parse_font_bbox
oge:__ZThn28_N14PhysicsManagerD0Ev
rrc:__Z35Application_Get_Custom_PropIsEditorv
KYc:__Z14raycast_sphereRKN5physx10PxGeometryERKNS_11PxTransformERKNS_6PxVec3ES8_fNS_7PxFlagsINS_9PxHitFlag4EnumEtEEjPNS_12PxRaycastHitEbPFbRSD_PvESG_
dx:__GLOBAL__sub_I_runtime_animation2_lump_cpp
a8h:__Z87RuntimeInvoker_Void_t1185182177_RuntimeObject_StringU26_t181565287_StringU26_t181565287PFvvEPK10MethodInfoPvPS4_
cMb:__ZN14PlayerSettings23VirtualRedirectTransferER18StreamedBinaryReadILb0EE
xNf:_Double_System_IConvertible_ToDateTime_m2414543049_AdjustorThunk
YMe:__ZN11UnityEngine15PlatformWrapper16GetVRFieldOfViewEv
Ppi:_BinaryFormatter_get_SurrogateSelector_m2111882017
i7k:__ZN6il2cpp2os5Event5ResetEv
ccb:__Z26CombineDepthNormalsTextureRK17RenderLoopContextR13dynamic_arrayI16RenderObjectDataLj4EE
DCj:_ToggleGroup__ctor_m3308114662
YRk:__ZN6il2cpp8metadata15GenericMetadata17InflateParametersEPK13ParameterInfohPK20Il2CppGenericContextb
dba:__ZN18AwakeFromLoadQueue28InvokePersistentManagerAwakeEPNS_4ItemEj17AwakeFromLoadMode
zXe:_RSAParameters_t1728406613_marshal_pinvoke_back
x2f:_Array_Sort_TisUILineInfo_t4195266810_m3737783007_gshared
xll:_PlayableBinding__cctor_m1720564240
ED:__ZNK17AnimationPlayable27GetNextCompatibleDescendantEi
Q3d:__ZNK5physx2Cm12DelegateTaskINS_2Sc5SceneEXadL_ZNS3_23postIslandGenSecondPassEPNS_10PxBaseTaskEEEE7getNameEv
e5k:__ZNSt3__26__treeINS_12__value_typeIPvxEENS_19__map_value_compareIS2_S3_NS_4lessIS2_EELb1EEENS_9allocatorIS3_EEE16__insert_node_atEPNS_16__tree_node_baseIS2_EERSD_SD_
kqb:__ZN4PPtrI6SpriteE8TransferI18StreamedBinaryReadILb0EEEEvRT_
osf:_Convert_ToInt16_m3324557887
Gkh:_TlsStream_Write_m188217214
Qij:_AnimatorControllerParameter_GetHashCode_m2306059248
v1h:__Z50RuntimeInvoker_Ray_t3785851493_Vector3_t3722313464PFvvEPK10MethodInfoPvPS4_
Koa:__Z25SetNeedToPerformRenderingb
Xqm:__ZN10__cxxabiv116__shim_type_infoD2Ev
POi:_Alternation__ctor_m1629257642
aGi:_UInt64_System_IConvertible_ToInt32_m949522652_AdjustorThunk
pab:__ZNSt3__227__insertion_sort_incompleteIR23CompareReflectionProbesP31RuntimeReflectionProbeBlendInfoEEbT0_S5_T_
V6a:__ZN14qsort_internal30FindAndMovePivotToLastPositionIP15RODataDepthPassi17ROSorterDepthPassEEvT_S4_T0_T1_
Qqj:_ControllerColliderHit_set_push_m2495521645
TRe:__ZN20UnityWebRequestProtoI19TransportJavaScript16AtomicRefCounter14RedirectHelper14ResponseHelper15DownloadHandler13UploadHandler12HeaderHelper14AsyncOperationE35Task_FinalizeAfterDHCompleteContentEPv
hmg:_MethodAccessException__ctor_m3411913042
nhk:__ZL24UnresolvedVirtualCall_26P12Il2CppObjectS0_iiPK10MethodInfo
yRd:__ZN5physxL27PxcSweepAnyShapeHeightfieldERKNS_11PxsCCDShapeES2_PKNS_12PxsRigidBodyES5_RKNS_11PxTransformES8_fRNS_6PxVec3ESA_RNS_10PxcNpCacheERNS_18PxcNpThreadContextE
s2j:_EqualityComparer_1__ctor_m1767308726_gshared
tak:_KeyValuePair_2_get_Key_m2106922848_gshared
Xeb:__ZN12CullingGroup10SendEventsEPK17CullingGroupEventj
Ikb:__ZN13sorted_vectorINSt3__24pairIN4core12basic_stringIcNS2_20StringStorageDefaultIcEEEES6_EEN10vector_mapIS6_S6_27compare_tstring_insensitiveIS6_E13stl_allocatorIS7_L18MemLabelIdentifier37ELi16EEE13value_compareESD_E9erase_oneIS6_EEjRKT_
_L:__ZN15SerializeTraitsIN7mecanim5human6HandleEE8TransferI14SafeBinaryReadEEvRS2_RT_
s9f:_NumberFormatInfo_get_PerMilleSymbol_m1360140831
EDh:_Transform_1_BeginInvoke_m942628308_gshared
Abh:_EncryptedData_get_EncryptionAlgorithm_m905084934
OUf:_Array_InternalArray__IEnumerable_GetEnumerator_TisCustomAttributeTypedArgument_t2723150157_m1333528454_gshared
W8e:_PointerInputModule__ctor_m3728889932
PBb:__ZThn32_NK8Renderer8GetLayerEv
Qmc:__ZNK4Mesh17GetPrimitiveCountEv
EMd:__ZN5physx3Scb5SceneD2Ev
uY:__ZN17AudioClipPlayable12PrepareFrameERK19DirectorVisitorInfo
gSj:_ResourceSet_System_Collections_IEnumerable_GetEnumerator_m2807499934
t0e:_SecurityException_GetObjectData_m1968030344
WQk:__ZN30dense_hashtable_const_iteratorINSt3__24pairIK10KeyWrapperINS1_IPKcS4_EEEiEES6_24NamespaceAndNamePairHashN14dense_hash_mapIS6_iS9_NS6_14EqualsComparerI26NamespaceAndNamePairEqualsEENS0_9allocatorIS8_EEE9SelectKeyESD_SF_E30advance_past_empty_and_deletedEv
$bg:_Int32_ValidDigit_m1059003769
lhm:_TextEditor_InitKeyActions_m3794941998
jGl:__ZL54MemberFilter_t426314064_CustomAttributesCacheGeneratorP21CustomAttributesCache
Iif:_LayoutGroup_get_rectTransform_m442863741
NJl:__ZL86Behaviour_t1437897464_CustomAttributesCacheGenerator_Behaviour_set_enabled_m3107225489P21CustomAttributesCache
gAk:_il2cpp_method_get_param_count
W9b:__ZN10systeminfo19ISOToSystemLanguageERN4core12basic_stringIcNS0_20StringStorageDefaultIcEEEE
_$l:__ZL88U3CInvokeMessageIdSubscribersU3Ec__AnonStorey0_t907692441_CustomAttributesCacheGeneratorP21CustomAttributesCache
UFk:__ZNK15dense_hashtableINSt3__24pairIK10KeyWrapperINS1_IPK12PropertyInfoP11Il2CppClassEEEjEES9_17ReflectionMapHashIS8_EN14dense_hash_mapIS9_jSD_NS9_14EqualsComparerINS0_8equal_toIS8_EEEENS0_9allocatorISB_EEE9SelectKeyESI_SK_E3endEv
I4f:_LayoutGroup_SetProperty_TisAxis_t3613393006_m3591044743_gshared
Xde:__Z16GetDynamicsScenev
RDd:__ZThn8_N5physx2Sc18TriggerInteraction7destroyEv
Epl:__ZL69RuntimeArray_CustomAttributesCacheGenerator_Array_SetValue_m282347242P21CustomAttributesCache
$gj:_AnimatorControllerPlayable_GetNextAnimatorClipInfo_m2483688939_AdjustorThunk
nye:_ps_dimension_done
SEe:__Z46Register_UnityEngine_TextGenerator_Dispose_cppv
UVh:__Z67RuntimeInvoker_GCHandle_t3351438187_RuntimeObject_Int32_t2950945753PFvvEPK10MethodInfoPvPS4_
yEg:_Queue_1_get_Count_m1743975800_gshared
_Nf:_Double_Parse_m4153729520
e7j:_IndexedSet_1_AddUnique_m861843892_gshared
xal:_GUIStyle_get_none_m2186533979
HLk:__ZN6il2cpp6icalls8mscorlib6System7Runtime15InteropServices7Marshal17GetLastWin32ErrorEv
DAb:__ZN16LightmapSettings8TransferI14SafeBinaryReadEEvRT_
hRa:__ZN17BufferManagerGLES13ReleaseBufferEP14DataBufferGLES
RMf:_StackFrame__ctor_m343464319
n5c:__ZN5physx6shdfnd5ArrayIPvNS0_19ReflectionAllocatorINS_16NpConnectorArrayEEEE15growAndPushBackERKS2_
Ikg:_SynchronizedWriter_Write_m301917713
OCd:__ZN5physx2Sc5Scene15prepareSimulateEv
cWf:__ZN21InterfaceFuncInvoker1Ii22UILineInfo_t4195266810E6InvokeEjP11Il2CppClassP12Il2CppObjectS0_
GKc:__Z18Transfer_BlittableI8JSONReadLb1EjEvRK29SerializationCommandArgumentsR31RuntimeSerializationCommandInfo
T6c:__ZN5physx6shdfnd5ArrayIPNS_2Sc11InteractionENS0_19ReflectionAllocatorIS4_EEE8recreateEj
E9l:__ZL71Ext_t2749166018_CustomAttributesCacheGenerator_Ext_ToString_m1007665309P21CustomAttributesCache
WCi:_Type_internal_from_handle_m3156085815
Oii:__Z90RuntimeInvoker_Boolean_t97287965_AnimatorClipInfo_t3156717155_AnimatorClipInfo_t3156717155PFvvEPK10MethodInfoPvPS4_
Csj:_Event_set_character_m2587156137
mWg:_ReadOnlyCollection_1_System_Collections_Generic_IListU3CTU3E_RemoveAt_m4037795630_gshared
tXh:__Z117RuntimeInvoker_Void_t1185182177_RuntimeObject_Int32_t2950945753_Int32_t2950945753_Int32_t2950945753_Int32_t2950945753PFvvEPK10MethodInfoPvPS4_
T4l:__ZL81U3CMouseDragOutsideRectU3Ec__Iterator1_t3909241878_CustomAttributesCacheGeneratorP21CustomAttributesCache
Pbf:_U3COnFinishSubmitU3Ec__Iterator0_Reset_m3632769946
oq:stackSave
Hdf:_ColorTween_get_targetColor_m1724075482_AdjustorThunk
Jye:_ps_dimension_end
kec:__ZN19SkinnedMeshRenderer26DeallocateClothAndSkinInfoEv
Tvc:__Z41Register_UnityEngine_Mesh_Internal_Createv
xnb:__ZN16MemoryFileSystem5TouchER13FileEntryData
vJb:__ZN14SpriteRenderer23VirtualRedirectTransferER24GenerateTypeTreeTransfer
WRk:__ZNK15dense_hashtableI10KeyWrapperIP18Il2CppGenericClassES3_N6il2cpp8metadata22Il2CppGenericClassHashEN14dense_hash_setIS3_S6_NS3_14EqualsComparerINS5_25Il2CppGenericClassCompareEEENSt3__29allocatorIS3_EEE8IdentityESA_SD_E12test_deletedERK30dense_hashtable_const_iteratorIS3_S3_S6_SF_SA_SD_E
Fok:__ZN6il2cpp2vm5Class14GetNestedTypesEP11Il2CppClassPPv
Woe:__Z63Register_UnityEngine_Physics_INTERNAL_CALL_Internal_RaycastTestv
cZi:_WebSocketFrame_get_IsFragment_m3099187678
wpg:_Enumerator_Dispose_m2498245804_AdjustorThunk
IRi:_Uri_get_Fragment_m575158891
QCf:_Console_Open_m3077673205
o_j:_X509StoreManager_get_CurrentUser_m4040993045
tLc:__ZN8JSONRead21TransferSTLStyleArrayI13dynamic_arrayIaLj1EEEEvRT_18MemLabelIdentifier17TransferMetaFlags
Ugb:__ZN6Camera9SetAspectEf
cXf:_Array_InternalArray__IndexOf_TisDateTime_t3738529785_m2463359116_gshared
gSe:__ZN19TransportJavaScript9DoRequestERKN4core12basic_stringIcNS0_20StringStorageDefaultIcEEEEm21UnityWebRequestMethodS6_bbP12HeaderHelperP13UploadHandlerP15DownloadHandlerP14ResponseHelperP15UnityWebRequest
wqh:_SslStream_Dispose_m3651067425
Ba:invoke_viiffiii
xJj:_InternalEnumerator_1_MoveNext_m4138204635_gshared
T_g:_BigInteger_Randomize_m2194703121
aDm:_emscripten_glBindVertexArray__wrapper
Pvg:_List_1_get_Capacity_m1678280693_gshared
mVk:__ZN6il2cpp6icalls8mscorlib6System4Enum19get_underlying_typeEP20Il2CppReflectionType
BQi:_Parser_IsECMAScript_m674158805
NR:__ZN10ObjectPoolIN4FMOD3DSPENS0_4DSPIEE7GetFreeEi
Khb:__ZN9Transform37InitializeTransformHierarchyRecursiveER18TransformHierarchyRii
Wcc:__Z34DefaultPrepareDispatchBoundsUpdateR13RendererScene18MemLabelIdentifier
ZMe:__ZN11UnityEngine15PlatformWrapper30GetVRPlayAreaBoundaryDimensionEv
I1f:_Array_Resize_TisVector2_t2156229523_m1564542050_gshared
Yom:_fscanf
ihe:__ZN14SphereCollider23VirtualRedirectTransferER24GenerateTypeTreeTransfer
vvm:_glTexSubImage3D__wrapper
Xai:__Z100RuntimeInvoker_Boolean_t97287965_RuntimeObject_SByte_t1669577662_SByte_t1669577662_SByte_t1669577662PFvvEPK10MethodInfoPvPS4_
P2a:__ZN17MeshRenderingData4InitEP4MeshS1_iP15SharedGfxBufferS3_
pQj:_ArraySegment_1_GetHashCode_m3428798772_AdjustorThunk
Dta:__ZN19ShaderPropertySheet38CopyTextureWithAuxiliaryPropertiesFromERKN9ShaderLab16FastPropertyNameERKS_
HLg:_Collection_1_Add_m3747592157_gshared
HMb:__ZN10VRSettings8TransferI19StreamedBinaryWriteILb0EEEEvRT_
TBd:__ZN5physx2Sc9StaticSim21postActor2WorldChangeEv
b4f:_Dictionary_2_Do_CopyTo_TisTextEditOp_t1927482598_TisTextEditOp_t1927482598_m2365000843_gshared
RZi:_U3CGetEnumeratorU3Ed__18__ctor_m1912311703
QWl:__ZL81GUI_t1624858472_CustomAttributesCacheGenerator_GUI_CallWindowDelegate_m1835901068P21CustomAttributesCache
rzc:__Z57Register_UnityEngine_Transform_INTERNAL_set_localPositionv
dMa:__ZN13GfxDeviceGLES26SetRandomWriteTargetBufferEi15ComputeBufferID
d2k:_GC_split_block
D1f:_Array_Resize_TisUICharInfo_t75501106_m3903846016_gshared
ZSg:_ReadOnlyCollection_1_System_Collections_Generic_ICollectionU3CTU3E_get_IsReadOnly_m3887826072_gshared
o0a:__ZZ23InitPlayerLoopCallbacksvEN49EarlyUpdateResetFrameStatsAfterPresentRegistrator7ForwardEv
Uhd:__ZN5physx6shdfnd4sortIPvNS0_4LessIS2_EENS0_19ReflectionAllocatorINS_2Cm5BlockIhLj256EEEEEEEvPT_jRKT0_RKT1_j
ypm:_poll
$Sg:_ReadOnlyCollection_1_System_Collections_IEnumerable_GetEnumerator_m1671097018_gshared
AGi:_UInt64_ToString_m1529093114_AdjustorThunk
i6l:__ZL85Selectable_t3250028441_CustomAttributesCacheGenerator_Selectable_IsPressed_m907486548P21CustomAttributesCache
YTj:_TypeLibImportClassAttribute__ctor_m2302178978
x_g:_Escape_t3294788190_marshal_pinvoke
nbc:__Z13RegisterClassI19SkinnedMeshRendererEvv
Fmf:_InputField_OnUpdateSelected_m1118869681
WEk:__ZN6il2cpp2gc19AppendOnlyGCHashMapINSt3__24pairIPK11Il2CppImageP11Il2CppClassEEP22Il2CppReflectionModule17ReflectionMapHashIS9_ENS2_8equal_toIS9_EEE10CopyValuesEPv
T8d:__ZN5physx20InternalTriangleMesh7releaseEv
dQd:__ZN5physx6shdfnd5ArrayINS_16PxsCCDBlockArrayINS_13PxsCCDOverlapELi128EE9BlockInfoENS0_19ReflectionAllocatorIS5_EEE15growAndPushBackERKS5_
g8c:__ZNK5physx7NpShape8getFlagsEv
uri:_SerializationException__ctor_m3131447373
doc:__ZNK11ICallString6ToUTF8Ev
Jnk:__ZN15dense_hashtableINSt3__24pairIK10KeyWrapperIPK22Il2CppGenericParameterEP11Il2CppClassEES6_N6il2cpp5utils11PointerHashIS4_EEN14dense_hash_mapIS6_S9_SE_NS6_14EqualsComparerINS0_8equal_toIS5_EEEENS0_9allocatorISA_EEE9SelectKeyESJ_SL_E15insert_noresizeERKSA_
VCh:_Transform_1_Invoke_m2468053724_gshared
gWh:__Z51RuntimeInvoker_Void_t1185182177_TimeSpan_t881159249PFvvEPK10MethodInfoPvPS4_
W6a:__ZNSt3__211__sift_downIR17ROSorterDepthPassP15RODataDepthPassEEvT0_S5_T_NS_15iterator_traitsIS5_E15difference_typeES5_
Dva:__ZN18UnityPropertySheet11UnityTexEnvC2Ev
Grd:__ZNK5physx7NpCloth16getContactOffsetEv
wqc:__ZNSt3__214__split_bufferIPN9BlobWrite11TypeContextENS_9allocatorIS3_EEE10push_frontERKS3_
g7g:_ArgumentException__ctor_m3200406061
lF:__ZN8Animator17ApplyOnAnimatorIKEiRNS_11AnimatorJobE
nea:__ZN12FileAccessor4ReadEyyPvPy
O5k:__ZN6il2cpp2os9FastMutex6UnlockEv
bua:__ZN13dynamic_arrayI16ShaderKeywordSetLj4EE6insertEPS0_PKS0_S4_
n2b:__Z29Transfer_Blittable_ArrayFieldI18StreamedBinaryReadILb0EE11QuaternionfEvRT_R9ArrayInfoRK23StaticTransferFieldInfo
tvk:__ZNSt3__26vectorIN6il2cpp2os11PollRequestENS_9allocatorIS3_EEE26__swap_out_circular_bufferERNS_14__split_bufferIS3_RS5_EE
GAg:_List_1_set_Capacity_m2777925136_gshared
Vam:__ZL93socket_test_t749711105_CustomAttributesCacheGenerator_socket_test_U3CStartU3Em__0_m2628513417P21CustomAttributesCache
ioc:__Z21GetSceneHierarchyPathPK6Object
zHl:__ZL88U3CBeginAuthenticateAsClientU3Ec__AnonStorey7_t1222040293_CustomAttributesCacheGeneratorP21CustomAttributesCache
V4l:__ZL195U3CMouseDragOutsideRectU3Ec__Iterator1_t3909241878_CustomAttributesCacheGenerator_U3CMouseDragOutsideRectU3Ec__Iterator1_System_Collections_Generic_IEnumeratorU3CobjectU3E_get_Current_m3688496850P21CustomAttributesCache
ugb:__ZN13RenderTexture9SetHeightEi
Ty:__ZN7mecanim9animation17ClearMotionOutputEPNS0_18AnimationNodeStateE
fdh:_CipherSuiteCollection_get_IsFixedSize_m3127823890
Hwb:__ZN16LevelGameManager8TransferI24GenerateTypeTreeTransferEEvRT_
JPj:_InternalEnumerator_1_System_Collections_IEnumerator_get_Current_m3537550566_gshared
_Jh:_Dictionary_2_OnDeserialization_m1254782141_gshared
cZj:_PKCS12_get_Keys_m2165478388
EOk:__ZN6il2cpp6icalls8mscorlib6System2IO6MonoIO17GetFileAttributesEP12Il2CppStringPi
NUe:_HMACMD5__ctor_m3008609295
dEf:_DateTime__ParseAmPm_m3478436123
Vwe:_tt_cmap8_char_index
yaa:__Z24scripting_class_get_name17ScriptingClassPtr
H8l:__ZL69Ext_t2749166018_CustomAttributesCacheGenerator_Ext_CopyTo_m2952241857P21CustomAttributesCache
pjg:_Stream_WriteByte_m1519852120
SCj:_VerticalLayoutGroup_CalculateLayoutInputHorizontal_m1404590745
Bga:__ZN13RuntimeStaticI15GUIEventManagerLb0EE13StaticDestroyEPv
lng:_ShortComparer_Compare_m1881262465
kTb:__Z29Transfer_Blittable_ArrayFieldI14SafeBinaryReadjEvRT_R9ArrayInfoRK23StaticTransferFieldInfo
D8l:__ZL71Ext_t2749166018_CustomAttributesCacheGenerator_Ext_Compress_m2136705663P21CustomAttributesCache
Pe:_emscripten_set_keydown_callback
Srb:__ZN19StreamedBinaryWriteILb0EE21TransferSTLStyleArrayINSt3__26vectorI17SortingLayerEntryNS2_9allocatorIS4_EEEEEEvRT_17TransferMetaFlags
eLi:_Interpreter_IsWordChar_m2858055765
gAf:_Hashtable_CopyTo_m2905447224
vea:__ZN12FileAccessorC2Ev
Jib:__ZN9Transform35SetLocalPositionWithoutNotificationERKN4math7_float3E
PTl:__ZL123AnimatorControllerPlayable_t1015767841_CustomAttributesCacheGenerator_AnimatorControllerPlayable_PlayInFixedTime_m991483965P21CustomAttributesCache
q2j:_EqualityComparer_1_System_Collections_IEqualityComparer_Equals_m3855544238_gshared
Lcd:__ZN5physx2Sc15ArticulationSim12applyImpulseERNS0_8BodyCoreERKNS_9PxcFsDataERKNS_6PxVec3ES9_
Pyd:__ZNK5physx22NpParticleBaseTemplateINS_16PxParticleSystemENS_16NpParticleSystemEE7getTypeEv
$6j:_EventFunction_1_Invoke_m2429482587_gshared
WYi:_WebSocket_processPongFrame_m3128298466
Jvh:_AsnEncodedData_SubjectAltName_m4049949414
brm:__ZNK10__cxxabiv117__class_type_info16search_below_dstEPNS_19__dynamic_cast_infoEPKvib
ufj:_AnimatorControllerPlayable_INTERNAL_CALL_SetBoolString_m3514398973
Ayk:__ZN6il2cpp2vm7Runtime12GetConfigDirEv
RCj:_VerticalLayoutGroup__ctor_m321345421
uK:__ZN4PPtrI13MonoBehaviourE8TransferI18StreamedBinaryReadILb0EEEEvRT_
atj:_InvokableCall__ctor_m2864671469
ecd:__ZNK5physx14NpArticulation26getInternalDriveIterationsEv
eAj:_Slider_UpdateVisuals_m3662961057
JXl:__ZL77GUIStyle_t3956901511_CustomAttributesCacheGenerator_GUIStyle_Init_m1266520473P21CustomAttributesCache
r2i:_DerivedType_get_FullName_m1025358827
H9f:_RegionInfo_get_ISOCurrencySymbol_m441808484
z4l:__ZL70InputField_t3762917431_CustomAttributesCacheGenerator_m_OnValueChangedP21CustomAttributesCache
UPb:__Z39WriteQueueForTransferSignatureIntoCacheRK31TransferFunctionScriptingTraitsRK24TransferRequestSignature17ScriptingClassPtrR23CachedSerializationDataRb
hCa:__ZN13RenderManager18UpdateAllRenderersEv
Yvi:_Encoding_get_UTF8UnmarkedUnsafe_m320312322
$zi:_Thread_Thread_free_internal_m333849022
nK:__ZN18AnimatorController19TransferRuntimeDataI18StreamedBinaryReadILb0EEEEvRT_
bMi:_CostDelegate_BeginInvoke_m2828452701
DMe:__ZN22BaseUnityConnectClient30OnEnteringStatePausedOrStoppedEv
nLg:_Collection_1_ConvertItem_m1556170494_gshared
ez:__ZN7mecanim5human12HumanPoseAddERNS0_9HumanPoseERKS1_S4_
tEf:_DateTime_ToUniversalTime_m1945318289
rkj:_AudioClipPlayable_op_Implicit_m572370855
kem:_Transform_INTERNAL_get_rotation_m3154993025
rwf:_ArrayList_ToArray_m3827492363
wAj:_Slider_get_stepSize_m1423227661
Ru:__Z14resize_trimmedINSt3__26vectorI24CompressedAnimationCurve13stl_allocatorIS2_L18MemLabelIdentifier25ELi16EEEEEvRT_j
vGi:_UInt64_Parse_m819899889
cMl:__ZL97RectOffset_t1369453676_CustomAttributesCacheGenerator_RectOffset_INTERNAL_CALL_Remove_m1664379383P21CustomAttributesCache
J4i:_GenericTypeParameterBuilder_GetHashCode_m852224381
uHf:_Convert_ToUInt32_m1453583008
wQf:_CompareInfo_Compare_m894311506
Fib:__Z24MergeTransformComponentsR9TransformS0_b
Ork:__ZNK15dense_hashtableI10KeyWrapperIPK19Il2CppGenericMethodES4_N6il2cpp8metadata23Il2CppGenericMethodHashEN14dense_hash_setIS4_S7_NS4_14EqualsComparerINS6_26Il2CppGenericMethodCompareEEENSt3__29allocatorIS4_EEE8IdentityESB_SE_E10test_emptyEj
VPj:_InternalEnumerator_1_System_Collections_IEnumerator_get_Current_m3982010935_AdjustorThunk
L7c:__ZThn24_N5physx2Sc20ArticulationJointSimD0Ev
K5e:_EventSystem_UpdateModules_m3643806022
$Xk:__ZN6il2cpp2gc16GarbageCollector10StartWorldEv
Xpi:_ObjectReader_ReadObjectGraph_m1689734232
Vge:__ZN14PhysicsManager32AddToTriggerStayStatesIfRequiredEPK9Rigidbody
Gbm:_RaycastHit2D_get_point_m3958944977_AdjustorThunk
kqh:_SslStream_get_Position_m2568970827
h0:__Z71Register_UnityEngine_Audio_AudioClipPlayable_INTERNAL_CALL_ValidateTypev
g$e:_Evidence_get_SyncRoot_m2835084965
R1c:__ZN5physx14PxsAABBManager12createBPElemEv
XTf:_SetPropertyUtility_SetStruct_TisTouchScreenKeyboardType_t1530597702_m2455393348_gshared
qNh:_DefaultComparer__ctor_m2280347240_gshared
God:__ZThn12_N5physx7NpShape14onRefCountZeroEv
Rzl:__ZL59ICryptoTransform_t2733259762_CustomAttributesCacheGeneratorP21CustomAttributesCache
YPc:__ZL26GeomMTDCallback_ConvexMeshRN5physx6PxVec3ERfRKNS_10PxGeometryERKNS_11PxTransformES5_S8_
q_k:__ZN6il2cpp2vm13ComObjectBase19GetRuntimeClassNameEPP15Il2CppHString__
t1b:__Z35Transfer_Blittable_FixedBufferFieldI18StreamedBinaryReadILb0EEyEvRK29SerializationCommandArgumentsR31RuntimeSerializationCommandInfo
kid:__ZN5physx15NpActorTemplateINS_18PxArticulationLinkEE22setClientBehaviorFlagsENS_7PxFlagsINS_25PxActorClientBehaviorFlag4EnumEhEE
vk:_emscripten_glVertexAttribPointer
vrm:__ZNSt11logic_errorD0Ev
Dub:__ZNK20IntermediateRenderer12GetSceneMaskEv
mAa:__ZN14PreloadManager26UpdatePreloadingSingleStepENS_21UpdatePreloadingFlagsEi
G7j:_TweenRunner_1__ctor_m340723704_gshared
bzj:_ScrollRect_SetLayoutHorizontal_m3078869633
g4d:__ZN18ScBeforeSolverTask11runInternalEv
Hnj:_Canvas_get_rootCanvas_m753521845
jwb:__ZN26ProbeSetTetrahedralization8TransferI24GenerateTypeTreeTransferEEvRT_
k_l:__ZL99SetupCoroutine_t2062820429_CustomAttributesCacheGenerator_SetupCoroutine_InvokeMoveNext_m3444040730P21CustomAttributesCache
mZg:_SimpleCollator__ctor_m1587210019
zxc:__Z57Register_UnityEngine_RectTransform_INTERNAL_set_anchorMinv
t4c:__ZL33GeomOverlapCallback_CapsuleConvexRKN5physx10PxGeometryERKNS_11PxTransformES2_S5_PNS_2Gu12TriggerCacheE
pHf:_Convert_ToUInt16_m1480956416
Gxa:__ZN6prcoreL25inner_stretch_i8_bilinearEPKNS_9InnerInfoE
$Eh:_Enumerator_MoveNext_m1359058366_gshared
OAa:__ZL30RegisterFilteredObjectCallbackPP12Il2CppObjectiPv
KVg:_ReadOnlyCollection_1_System_Collections_Generic_IListU3CTU3E_RemoveAt_m3317217538_gshared
wSl:__ZL54AudioSource_t3935305588_CustomAttributesCacheGeneratorP21CustomAttributesCache
n2:__ZN11UnityEngine15CloudWebService16SessionContainer24GetSessionHeaderJsonDataERKN4core12basic_stringIcNS2_20StringStorageDefaultIcEEEERNS2_13StringBuilderE
W1i:_DerivedType_GetEvent_m4157575360
mga:__ZN13RuntimeStaticI21AssetReferenceStorageLb0EE13StaticDestroyEPv
_8d:__ZN5physx20InternalTriangleMesh9loadRTreeERNS_13PxInputStreamEj
vff:_Image_get_sprite_m1811690853
MAd:__ZN5physx19NpRigidBodyTemplateINS_14PxRigidDynamicEE25setCMassLocalPoseInternalERKNS_11PxTransformE
izf:_Comparer__ctor_m2831654082
ABd:__ZNK5physx15NpActorTemplateINS_13PxRigidStaticEE14getOwnerClientEv
Q$f:_Array_InternalArray__set_Item_TisKeyValuePair_2_t2530217319_m258011711_gshared
R9h:__Z72RuntimeInvoker_Bounds_t2266837910_RuntimeObject_Matrix4x4U26_t3606180965PFvvEPK10MethodInfoPvPS4_
nbk:_Enumerator_MoveNext_m2041610666_AdjustorThunk
VVk:__ZN6il2cpp6icalls8mscorlib6System9AppDomain22InternalGetProcessGuidEP12Il2CppString
jac:__ZN15dense_hashtableINSt3__24pairIKN4core12basic_stringIcNS2_20StringStorageDefaultIcEEEE10vector_setI4PPtrI11SpriteAtlasENS0_4lessISB_EE13stl_allocatorISB_L18MemLabelIdentifier79ELi16EEEEES6_20StringHash32FunctionIS6_EN14dense_hash_mapIS6_SH_SK_NS0_8equal_toIS6_EESE_ISI_LSF_79ELi16EEE9SelectKeyESN_SO_E15insert_noresizeERKSI_
K8l:__ZL73Ext_t2749166018_CustomAttributesCacheGenerator_Ext_EqualsWith_m2300290460P21CustomAttributesCache
Vwd:__ZN5physx2Sc18ParticleSystemCore16releaseParticlesEv
xRd:__ZNK5physx2Gu29EPASupportMapPairRelativeImplINS0_8CapsuleVENS0_4BoxVEE6getDirEv
yYc:__ZN5physx2Gu20intersectTriangleBoxERKNS_6shdfnd3aos5Vec3VES5_S5_S5_S5_
f1e:_Single_System_IConvertible_ToInt32_m872115569
rZ:__ZN19AudioPlayableOutput19DeallocateResourcesEv
pAi:_ThreadStart_EndInvoke_m3768045394
q8k:_ScriptableRenderContext__ctor_m2145902433_AdjustorThunk
dSl:__ZL125AudioClipPlayable_t785069022_CustomAttributesCacheGenerator_AudioClipPlayable_INTERNAL_CALL_GetStartDelayInternal_m1567417367P21CustomAttributesCache
sxk:__ZNSt3__214__split_bufferIP9FieldInfoRNS_9allocatorIS2_EEEC2EjjS5_
Mri:_StreamingContext__ctor_m2604757771_AdjustorThunk
dXb:__Z18Transfer_BlittableI24GenerateTypeTreeTransferLb1EjEvRK29SerializationCommandArgumentsR31RuntimeSerializationCommandInfo
dBg:_List_1_AddCollection_m1469681717_gshared
qFk:__ZNK15dense_hashtableINSt3__24pairIK10KeyWrapperINS1_IPK11Il2CppImageP11Il2CppClassEEEjEES9_17ReflectionMapHashIS8_EN14dense_hash_mapIS9_jSD_NS9_14EqualsComparerINS0_8equal_toIS8_EEEENS0_9allocatorISB_EEE9SelectKeyESI_SK_E10test_emptyERK30dense_hashtable_const_iteratorISB_S9_SD_SM_SI_SK_E
B3h:__Z103RuntimeInvoker_Boolean_t97287965_Ray_t3785851493_Single_t1397266774_Int32_t2950945753_Int32_t2950945753PFvvEPK10MethodInfoPvPS4_
ipe:__Z49Register_UnityEngine_Collider_INTERNAL_get_boundsv
wub:__ZN11ColorRGBA328TransferI14SafeBinaryReadEEvRT_
rHg:_Collection_1_Add_m1736908447_gshared
bke:__ZN5physx6shdfnd5ArrayIPvNS0_19ReflectionAllocatorINS_24NpPtrTableStorageManager8PtrBlockILi4EEEEEE15growAndPushBackERKS2_
dqj:_Component_GetComponentsInChildren_m1870572916
qVe:_MACTripleDES_HashFinal_m3613553534
RFi:_UInt64_System_IConvertible_ToChar_m2074245892
RDa:__Z11IsHDRFormat13TextureFormat
iyi:_UTF8Encoding_InternalGetBytes_m1965760031
sg:_emscripten_glClearDepth
oic:__ZNK8GUILayer22GetTypeVirtualInternalEv
Exb:__ZN8Playable12SetPlayStateE9PlayState
PCb:__ZN14SafeBinaryRead21TransferSTLStyleArrayINSt3__26vectorIN15QualitySettings14QualitySettingENS1_9allocatorIS4_EEEEEEvRT_17TransferMetaFlags
wme:__Z13RegisterClassI12MeshColliderEvv
Pmh:__ZN40il2cpp_native_wrapper_vm_thread_attacherD2Ev
fgk:_UnityAction_1__ctor_m3007623985_gshared
Wci:__Z56RuntimeInvoker_Boolean_t97287965_ILTokenInfo_t2325775114PFvvEPK10MethodInfoPvPS4_
PLb:__ZNSt3__26vectorINS_4pairIPKN5Unity4TypeE7Hash128EENS_9allocatorIS7_EEE8__appendEj
WJk:__ZN15dense_hashtableINSt3__24pairIK10KeyWrapperIP11Il2CppClassES4_EES5_N6il2cpp8metadata16SZArrayClassHashEN14dense_hash_mapIS5_S4_SA_NS5_14EqualsComparerINS9_19SZArrayClassCompareEEENS0_9allocatorIS7_EEE9SelectKeyESE_SG_EC2ERKSJ_j
hBe:_cff_font_load
EXk:__GLOBAL__sub_I_LibraryLoader_cpp
frc:__Z13IsPathCreatedRKN4core12basic_stringIcNS_20StringStorageDefaultIcEEEE
l3l:__ZL99Dropdown_t2274391225_CustomAttributesCacheGenerator_Dropdown_DelayedDestroyDropdownList_m2082128994P21CustomAttributesCache
TTd:__ZN5physx35solveContactPreBlock_ConcludeStaticEPKNS_23PxcSolverConstraintDescEjRNS_16PxcSolverContextE
dN:__ZN13ProduceHelperI13AnimationClipLb0EE7ProduceE18MemLabelIdentifier18ObjectCreationMode
$Da:__ZL22stbir__encode_scanlineP11stbir__infoiPvPfiii
fRl:__ZL90Collider_t1773347010_CustomAttributesCacheGenerator_Collider_set_contactOffset_m2130306487P21CustomAttributesCache
QSj:_ExternalException__ctor_m2877839282
Lpe:__ZN20QuadTreeNodeRenderer13StaticDestroyEPv
j3:__ZN11UnityEngine15CloudWebService20WebRequestRestClient5AbortEv
NOi:_Regex_Matches_m2080913806
Jcc:__ZN9Transform12CleanupClassEv
aSg:_ReadOnlyCollection_1_System_Collections_IList_RemoveAt_m3927477748_gshared
w3k:__ZN6il2cpp6icalls8mscorlib6System9Threading16NativeEventCalls19CloseEvent_internalE12Il2CppIntPtr
TE:__ZN11UnityEngine9Animation33SetGenericTransformPropertyValuesERKNS0_30AnimatorGenericBindingConstantERKN7mecanim10ValueArrayEP9Transformb
A3l:__ZL57FontData_t746620069_CustomAttributesCacheGenerator_m_FontP21CustomAttributesCache
H6c:__ZN5physx6shdfnd5ArrayIPvNS0_15InlineAllocatorILj256ENS0_19ReflectionAllocatorINS_2Cm5BlockIS2_Lj32EEEEEEEE15growAndPushBackERKS2_
g3d:__ZN5physx18PxsSolverStartTask13setupDescTaskEv
bte:_UNITY_FT_Set_Pixel_Sizes
o_i:_OperatingSystem_Clone_m1122165140
W8j:_GameObject_AddComponent_TisRuntimeObject_m3469369570_gshared
yWi:_CookieException_System_Runtime_Serialization_ISerializable_GetObjectData_m3931609585
n5b:__ZNSt3__26vectorIN9ShaderLab19SerializedSubShaderENS_9allocatorIS2_EEE26__swap_out_circular_bufferERNS_14__split_bufferIS2_RS4_EE
FVe:_RandomNumberGenerator_Create_m4162970280
XCl:__ZL59AttributeTargets_t1784037988_CustomAttributesCacheGeneratorP21CustomAttributesCache
tv:__ZN11UnityEngine9Animation28AnimationClipBindingConstant8TransferI24GenerateTypeTreeTransferEEvRT_
yOc:__ZN5physx3Cct13BoxController6resizeEf
Gwg:_List_1_RemoveAll_m3165362277_gshared
PCi:_Type_type_is_subtype_of_m1406623598
ODb:__ZN13dynamic_arrayI7SubMeshLj4EE18resize_initializedEjRKS0_12ResizePolicy
Dhm:_TextEditor_SelectLeft_m3681002005
cqh:_LocalCertificateSelectionCallback_EndInvoke_m561573233
M4d:__ZN5physx6shdfnd5ArrayINS_2Cm12DelegateTaskINS_2Sc5SceneEXadL_ZNS5_19updateCCDSinglePassEPNS_10PxBaseTaskEEEEENS0_19ReflectionAllocatorIS8_EEE8recreateEj
Jyi:_Thread_get_CurrentThread_m4142136012
Lub:__Z30ProcessDynamicBatchGeometryJobP25DynamicVBOGeometryJobDataj
s7a:__ZNSt3__27__sort4IRNS_6__lessI11CulledLightS2_EEPS2_EEjT0_S6_S6_S6_T_
dBk:__ZN6il2cpp2vm14TypeNameParser26ParseArrayModifierOptionalEv
Nba:__Z26scripting_object_get_class18ScriptingObjectPtr
xMk:__ZN6il2cpp6icalls8mscorlib6System10Reflection8Assembly13get_code_baseEP24Il2CppReflectionAssemblyb
Vdl:_GUIStyle_get_Internal_clipOffset_m4000119723
Iid:__ZN5physx34NpShapeGetScRigidObjectFromScbSLOWERKNS_3Scb5ShapeE
VTe:_DSASignatureDeformatter__ctor_m2889130126
Lwh:_X509ChainElementCollection_Clear_m2271223414
CSl:__ZL137AnimationClipPlayable_t3189118652_CustomAttributesCacheGenerator_AnimationClipPlayable_INTERNAL_CALL_GetAnimationClipInternal_m1101607296P21CustomAttributesCache
gcc:__ZNK28MonoBehaviourPropertyBinding15GenerateBindingERKN4core12basic_stringIcNS0_20StringStorageDefaultIcEEEEbRN11UnityEngine9Animation14GenericBindingE
bnh:_DeflateStream_Read_m2462209149
HBg:_List_1_set_Item_m35836043_gshared
S5l:__ZL70ScrollRect_t4137855814_CustomAttributesCacheGenerator_m_OnValueChangedP21CustomAttributesCache
msh:_X509ChainElementCollection__ctor_m3424079155
ZAh:_Enumerator_System_Collections_IDictionaryEnumerator_get_Value_m3881181744_AdjustorThunk
rXf:_Array_InternalArray__IndexOf_TisResourceInfo_t2872965302_m262211955_gshared
iMi:_LinkStack_Push_m3081279930
thm:_TextEditor_MoveWordRight_m2298093338
UOl:__ZL79Object_t631007953_CustomAttributesCacheGenerator_Object_Instantiate_m2891014423P21CustomAttributesCache
BAh:_Enumerator_MoveNext_m1107569389_gshared
tAi:_Timer_Init_m891735195
zad:__ZNK5physx21PxsBodyTransformVault12getTransformERKNS_11PxsBodyCoreE
txk:__ZNSt3__26vectorIP9FieldInfoNS_9allocatorIS2_EEE26__swap_out_circular_bufferERNS_14__split_bufferIS2_RS4_EE
iYk:__ZN6il2cpp6icalls8mscorlib6System11Environment15internalGetHomeEv
QKj:_InternalEnumerator_1__ctor_m4200721464_gshared
SRj:_ResourceCacheItem_t51292791_marshal_pinvoke_cleanup
kYd:__ZN5physx2Gu33MultiplePersistentContactManifold10fromBufferEPh
Xxk:__ZNSt3__214__split_bufferIN6il2cpp6icalls8mscorlib6System12PropertyPairERNS_9allocatorIS5_EEEC2EjjS8_
NVe:_SymmetricAlgorithm_get_KeySize_m4185004893
Dug:_List_1_GetEnumerator_m232588170_gshared
tQc:__ZN44ConvexVsHeightfieldContactGenerationCallback7onEventEjPj
bQj:_ArraySegment_1_Equals_m1171734138_gshared
d6j:_UnityEvent_1_RemoveListener_m389670056_gshared
Xzg:_List_1_System_Collections_IList_Remove_m1070694895_gshared
ckb:__ZN13ScreenManagerD0Ev
lxk:__ZN6il2cpp6icalls8mscorlib6SystemL16CheckMemberMatchI9FieldInfoNS_5utils10functional6FilterINSt3__212basic_stringIcNS8_11char_traitsIcEENS8_9allocatorIcEEEENS5_13VmStringUtils23CaseInsensitiveComparerEEEEEbPKT_PK11Il2CppClassSN_iRKT0_
eG:__ZN7mecanim8skeleton26SkeletonPoseComputeGlobalQEPKNS0_8SkeletonEPKNS0_13SkeletonPoseTIN4math4trsXEEEPS7_ii
QFi:_UInt64_System_IConvertible_ToByte_m1501504925_AdjustorThunk
sMc:__ZN8JSONRead21TransferSTLStyleArrayI13dynamic_arrayIfLj4EEEEvRT_18MemLabelIdentifier17TransferMetaFlags
lgh:_TlsClientHello_ProcessAsTls1_m2549285167
Yii:__Z74RuntimeInvoker_Boolean_t97287965_UIVertex_t4057497605_UIVertex_t4057497605PFvvEPK10MethodInfoPvPS4_
ZRd:__ZN5physx2Gu19_gjkRelativeRayCastINS0_9TriangleVENS0_8CapsuleVEEEbRT_RT0_RKNS_6shdfnd3aos15PsMatTransformVERKNS9_6FloatVERKNS9_5Vec3VESI_RSD_RSG_SK_f
Kxj:_ScrollRect_set_decelerationRate_m723367336
GF:__ZN9BlobWrite8TransferI22OffsetPtrArrayTransferIiEEEvRT_PKc17TransferMetaFlags
Bui:_EncoderExceptionFallback_Equals_m2760188920
znh:_DelegatePInvokeWrapper_ReadMethod_t893206259
zVb:__Z18Transfer_BlittableI17RemapPPtrTransferLb1EjEvRK29SerializationCommandArgumentsR31RuntimeSerializationCommandInfo
RVe:_RC2CryptoServiceProvider_get_EffectiveKeySize_m3835262416
ibd:__ZN5physx6shdfnd5ArrayIPvNS0_15InlineAllocatorILj256ENS0_19ReflectionAllocatorINS_11NpAggregateEEEEEE15growAndPushBackERKS2_
cW:__ZN4FMOD6System7releaseEv
ZNd:__ZN5physx6shdfnd8PoolBaseINS_2Sc18TriggerInteractionENS0_19ReflectionAllocatorIS3_EEE15disposeElementsEv
PYb:__Z18Transfer_BlittableI19StreamedBinaryWriteILb0EELb1E8BitFieldEvRK29SerializationCommandArgumentsR31RuntimeSerializationCommandInfo
Lsf:_Boolean_CompareTo_m3665076258
x2e:_String_Split_m3580120853
j3g:_PrivateKeyInfo__ctor_m2811023496
Sda:__Z18PathToAbsolutePathRKN4core12basic_stringIcNS_20StringStorageDefaultIcEEEE
frl:__ZL76MarshalAsAttribute_t3522571978_CustomAttributesCacheGenerator_MarshalTypeRefP21CustomAttributesCache
G7g:_BigInteger_SetBit_m1723423691
yBi:_TimeSpan_get_TotalMinutes_m3920401708
Tai:__Z86RuntimeInvoker_Boolean_t97287965_RuntimeObject_UriU26_t3442687868_StringU26_t181565287PFvvEPK10MethodInfoPvPS4_
Ts:__ZN13AnimationClip23VirtualRedirectTransferER17RemapPPtrTransfer
Abi:__Z78RuntimeInvoker_RuntimeObject_ObjectU26_t2146539884_RuntimeObject_RuntimeObjectPFvvEPK10MethodInfoPvPS4_
y1k:_GC_push_finalizer_structures
Orl:__ZL65X509ExtensionCollection_t609554708_CustomAttributesCacheGeneratorP21CustomAttributesCache
hLe:__ZN21UnityAnalyticsManager15ThreadedCleanupEv
oQc:__ZL31PointInConvexPolygon2D_OutCodesPKfjffffRh
myd:__ZN5physx22NpParticleBaseTemplateINS_16PxParticleSystemENS_16NpParticleSystemEE18setDynamicFrictionEf
GDa:__ZL13BlitImageImplR14ImageReferenceiiRKS_NS_10ColorSpaceENS_8BlitModeEb
lRj:_Comparer_1__cctor_m3761458313_gshared
d5h:__Z77RuntimeInvoker_PlayableOutput_t3179894105_AnimationPlayableOutput_t1918618239PFvvEPK10MethodInfoPvPS4_
Wu:__ZNSt3__26vectorI24CompressedAnimationCurve13stl_allocatorIS1_L18MemLabelIdentifier25ELi16EEE7reserveEj
ved:__ZN5physx2Sc21ArticulationJointCore21setInternalComplianceEf
Sne:__ZN9Rigidbody12MoveRotationERK11Quaternionf
Qce:__ZNK5physx6shdfnd10Foundation13getErrorLevelEv
X_l:__ZL69PersistentCall_t3407714124_CustomAttributesCacheGenerator_m_ArgumentsP21CustomAttributesCache
xEa:__ZN29SerializeTraitsForStringTypesIN4core12basic_stringIcNS0_20StringStorageDefaultIcEEEEE8TransferI24GenerateTypeTreeTransferEEvRS4_RT_
Lgh:_TlsServerCertificateRequest_ProcessAsSsl3_m1084200341
jU:__ZN12AudioManager29ShutdownReinitializeAndReloadEv
JVj:_LifetimeServices_set_LeaseManagerPollTime_m3035471458
W5d:__ZN5physx2Cm12DelegateTaskINS_2Sc5SceneEXadL_ZNS3_15postNarrowPhaseEPNS_10PxBaseTaskEEEE11runInternalEv
yHj:_InternalEnumerator_1__ctor_m1196506529_gshared
ecl:_GUISkin_get_error_m2501677343
zme:__Z20ConvertContactToMonoP9Collision
__e:_PermissionSet__ctor_m2328457660
Alk:__ZN6il2cpp6icalls8mscorlib6System7Decimal18decimalSetExponentEP19il2cpp_decimal_repri
RDh:_Enumerator__ctor_m1849900510_gshared
AZk:__GLOBAL__sub_I_String_cpp
Gnk:__ZN15dense_hashtableINSt3__24pairIK10KeyWrapperIPK22Il2CppGenericParameterEP11Il2CppClassEES6_N6il2cpp5utils11PointerHashIS4_EEN14dense_hash_mapIS6_S9_SE_NS6_14EqualsComparerINS0_8equal_toIS5_EEEENS0_9allocatorISA_EEE9SelectKeyESJ_SL_E6insertERKSA_
EMl:__ZL100Input_t1431474628_CustomAttributesCacheGenerator_Input_INTERNAL_set_compositionCursorPos_m1791829111P21CustomAttributesCache
MOl:__ZL81Object_t631007953_CustomAttributesCacheGenerator_Object_DestroyObject_m2915873188P21CustomAttributesCache
Omf:_InputField_GenerateCaret_m1459647218
PJl:__ZL49Camera_t4157153871_CustomAttributesCacheGeneratorP21CustomAttributesCache
WYj:_X509CertificateEnumerator__ctor_m85694331
tOa:__ZN14DataBufferGLES16RecreateWithDataEjPKv
Bqc:__Z29GetGlobalAllowNameConversionsv
nQc:__ZL17transformVerticesRfS_S_S_PfjPKN5physx6PxVec3EPKhRKNS1_7PxMat33E
lle:__ZNK5physx2Gu15HeightFieldUtil31getFaceIndexAtShapePointNoTest2Ejff
v_f:_Array_InternalArray__Insert_TisTableRange_t3332867892_m558285859_gshared
xjb:__ZN8Material8SetColorEN9ShaderLab16FastPropertyNameERK10ColorRGBAf
V0l:__ZL77ExecuteEvents_t3484638744_CustomAttributesCacheGenerator_U3CU3Ef__mgU24cacheFP21CustomAttributesCache
r$d:__ZN5physx6shdfnd5ArrayIPNS_14PxLightCpuTaskENS0_13TempAllocatorEE6resizeEjRKS3_
t4g:_StrongName_get_TokenAlgorithm_m1794722022
Ypg:_Enumerator_System_Collections_IEnumerator_Reset_m3754523291_gshared
V8l:__ZL69Ext_t2749166018_CustomAttributesCacheGenerator_Ext_IsData_m1519192471P21CustomAttributesCache
mBm:_glUniform3uiv__wrapper
lDl:__ZL77Convert_t2465617642_CustomAttributesCacheGenerator_Convert_ToByte_m2375887898P21CustomAttributesCache
_Od:__ZNK5physx2Sq10AABBPruner5sweepERKNS0_9ShapeDataERKNS_6PxVec3ERfRNS0_14PrunerCallbackE
aZj:_PKCS12_get_IterationCount_m3005687235
uZb:__ZN10RectOffset8TransferI19StreamedBinaryWriteILb0EEEEvRT_
Ksm:dynCall_iiifiii
Caa:__ZL41AssemblyNameMatchesWithOrWithoutExtensionPKcS0_
Nyg:_List_1_set_Item_m2082115010_gshared
ovi:_Encoding_GetBytes_m3735967069
YJd:__ZN5physx2Sc5Scene21fireCallBacksPostSyncEv
iqf:_Array_Initialize_m3004991267
MSa:__ZN14GfxContextGLES43AddRenderSurfaceToDeferredFBOInvalidateListEPK17RenderSurfaceGLES
Uem:_ResourceRequest_get_asset_m2462824237
EQd:__ZN5physx17PxsCCDAdvanceTask11runInternalEv
lta:__ZN11NamedObject23VirtualRedirectTransferER14SafeBinaryRead
tBj:_Text_get_resizeTextMinSize_m1002355407
Tse:__ZNSt3__26vectorIN20TextRenderingPrivate8FontImpl13CharacterInfoE13stl_allocatorIS3_L18MemLabelIdentifier1ELi16EEE6insertENS_11__wrap_iterIPKS3_EERS9_
wAa:__ZN23PreloadManagerOperation6IsDoneEv
Rpf:_Array_CreateInstance_m1027597705
Jyk:__ZN6il2cpp2vm7Runtime15InvokeWithThrowEPK10MethodInfoPvPS5_
_kc:__Z33GetHasChangedDeprecatedSystemMaskv
UZk:__ZN6il2cpp5utils11StringUtils11Utf16ToUtf8ERKNSt3__212basic_stringIDsNS2_11char_traitsIDsEENS2_9allocatorIDsEEEE
eah:_MD4Managed_Decode_m4273685594
AYh:__Z50RuntimeInvoker_Int64_t3736567304_Int16_t2552820387PFvvEPK10MethodInfoPvPS4_
G_c:__ZN5physx3Cct26CharacterControllerManagerD2Ev
YEa:__ZN21LightProbeProxyVolume18HasHardwareSupportEv
Bxa:__ZN6prcoreL31inner_stretch_argb8888_bilinearEPKNS_9InnerInfoE
F_b:__Z18Transfer_BlittableI18StreamedBinaryReadILb1EELb1E8BitFieldEvRK29SerializationCommandArgumentsR31RuntimeSerializationCommandInfo
p0l:__ZL108NetFxCoreExtensions_t4089902045_CustomAttributesCacheGenerator_NetFxCoreExtensions_GetMethodInfo_m3154548066P21CustomAttributesCache
jve:_UNITY_FT_Outline_Decompose
qdg:_Int64_System_IConvertible_ToChar_m1509243576_AdjustorThunk
bYj:_GeneralNames_get_IPAddresses_m4242915644
gck:_Enumerator_Dispose_m3500272053_AdjustorThunk
v2k:_GC_init_size_map
fQd:__ZN5physx6shdfnd8internal8HashBaseINS0_4PairIKNS3_IPKNS_12PxsRigidCoreEPKNS_12PxsShapeCoreEEEPNS_11PxsCCDShapeEEESA_NS0_4HashISA_EENS1_11HashMapBaseISA_SD_SG_NS0_9AllocatorEE6GetKeyESI_Lb1EE15reserveInternalEj
lmj:_Bounds_set_center_m1602292844
s5a:__Z20scripting_object_new17ScriptingClassPtr
dum:dynCall_iiiiifi
ltc:__Z31Display_CUSTOM_GetSystemExtImpl13Il2Cpp_IntPtrPiS0_
w3g:_KeyGeneratedEventHandler_Invoke_m2527485594
bfm:_SceneManager_LoadSceneAsyncNameIndexInternal_m756833036
fhj:_AnimatorControllerPlayable_GetNextAnimatorClipInfoCount_m2553609802_AdjustorThunk
_Ib:__ZN26SkinnedMeshRendererManager11AddRendererER19SkinnedMeshRenderer
P7h:__Z52RuntimeInvoker_Vector4_t3319028937_Color_t2555686324PFvvEPK10MethodInfoPvPS4_
jkf:_Image_get_layoutPriority_m1290204116
$zc:__Z58Register_UnityEngine_Object_Internal_CloneSingleWithParentv
DDk:__ZN24dense_hashtable_iteratorINSt3__24pairIK10KeyWrapperINS1_IPK9FieldInfoP11Il2CppClassEEEjEES9_17ReflectionMapHashIS8_EN14dense_hash_mapIS9_jSD_NS9_14EqualsComparerINS0_8equal_toIS8_EEEENS0_9allocatorISB_EEE9SelectKeyESI_SK_E30advance_past_empty_and_deletedEv
MQi:_Repetition_get_Expression_m2673886232
OKd:__ZN5physx2Sc5Scene21setDominanceGroupPairEhhRKNS_20PxDominanceGroupPairE
NKf:_Decimal__ctor_m1925875020_AdjustorThunk
Gqi:_SerializationCallbacks__ctor_m3863304525
Mbb:__ZN18ShadowMapJobHeaderD0Ev
dzl:__ZL59SerializationInfo_t950877179_CustomAttributesCacheGeneratorP21CustomAttributesCache
j0h:__Z44RuntimeInvoker_X509KeyUsageFlags_t1431795504PFvvEPK10MethodInfoPvPS4_
P:Math_exp
nfm:_ScriptableObject_CreateInstance_m1668078119
Qp:FUNCTION_TABLE_iiifi
gVk:__ZN6il2cpp2os5posix13PosixAutoLockD2Ev
sHa:__ZNSt3__26vectorINS_4pairIyP17VertexDeclarationEENS_9allocatorIS4_EEE6insertENS_11__wrap_iterIPKS4_EERS9_
Jsh:_Socket_get_SocketType_m1610605419
AIg:_Collection_1_System_Collections_ICollection_CopyTo_m261568672_gshared
qzk:_il2cpp_class_get_name
c5j:_SymmetricTransform_OFB_m3690147804
SOj:_InternalEnumerator_1_MoveNext_m3713722659_AdjustorThunk
b$b:__Z30TransferField_LinearCollectionI18StreamedBinaryReadILb1EEEvRK29SerializationCommandArgumentsR31RuntimeSerializationCommandInfo
uhb:__ZN13MonoBehaviour9SetScriptERK4PPtrI10MonoScriptE18ScriptingObjectPtr
Rue:_UNITY_FT_Create_Class_sfnt_module_class
lfl:_GUIStyleState_t1397964415_marshal_pinvoke_cleanup
xPk:__ZNSt3__218uninitialized_copyIPNS_4pairIK10KeyWrapperIP14Il2CppIUnknownEjEES8_EET0_T_SA_S9_
urh:_X500DistinguishedName_GetSeparator_m1336760642
wVk:__ZN6il2cpp2os10SocketImpl4BindEjt
ogi:__Z77RuntimeInvoker_Void_t1185182177_Vector2U5BU5DU26_t476646542_Int32_t2950945753PFvvEPK10MethodInfoPvPS4_
nCd:__ZN5physx7NpScene12loadFromDescERKNS_11PxSceneDescE
j5g:_PKCS12_get_RNG_m2649456600
Hna:__ZNK10FileSystem16LastErrorMessageEv
B$f:_Array_InternalArray__Insert_TisVector3_t3722313464_m3862657277_gshared
TZl:__ZL104NativeClassAttribute_t2601352714_CustomAttributesCacheGenerator_U3CQualifiedNativeNameU3Ek__BackingFieldP21CustomAttributesCache
v$e:_SecurityException__ctor_m1631242336
Rpk:__ZN15dense_hashtableINSt3__24pairIK10KeyWrapperIPK11Il2CppClassEPKcEES6_N6il2cpp5utils11PointerHashIS3_EEN14dense_hash_mapIS6_S9_SE_NS6_14EqualsComparerINS0_8equal_toIS5_EEEENS0_9allocatorISA_EEE9SelectKeyESJ_SL_E14squash_deletedEv
Hpm:_fputc
J6e:_EventSystem_Update_m1662072334
lnc:__ZN11TimeManager16HasFixedTimeStepEv
_el:_GUIStyle_get_fontSize_m3029870777
DOb:__ZN13MonoBehaviour13AwakeFromLoadE17AwakeFromLoadMode
Dtl:__ZL51FileMode_t1183438340_CustomAttributesCacheGeneratorP21CustomAttributesCache
scj:_AnimationEvent_get_objectReferenceParameter_m3615964334
sVb:__ZL26Transfer_SimpleNativeClassI17RemapPPtrTransfer8GradientLb1EEvRK29SerializationCommandArgumentsR31RuntimeSerializationCommandInfo
l6e:_RaycasterManager_RemoveRaycasters_m3057093063
mlc:__ZN12CachedWriter9InitWriteER15CacheWriterBase
Mjc:__Z21UnsignedInt64ToStringy
yJj:_InternalEnumerator_1_MoveNext_m4138204635_AdjustorThunk
aNi:_PatternCompiler_BeginLink_m1295557963
Vzl:__ZL46MD5_t3177620429_CustomAttributesCacheGeneratorP21CustomAttributesCache
Kbj:_CustomEventData_Add_m3433001325
MKd:__ZN5physx14PxsAABBManager15createAggregateEPvb
kQi:_Group_GetAnchorInfo_m3730312864
O3l:__ZL50Graphic_t1660335611_CustomAttributesCacheGeneratorP21CustomAttributesCache
jwc:__Z36MonoBehaviour_CUSTOM_InvokeRepeatingP12Il2CppObjectP12Il2CppStringff
gCi:_TimeSpan_op_LessThanOrEqual_m300470010
Qkj:_Debug_LogWarning_m3661709751
Czc:__Z66Register_UnityEngine_Transform_INTERNAL_CALL_InverseTransformPointv
Aia:__ZZN15DirectorManager15InitializeClassEvEN41FixedUpdateDirectorFixedUpdateRegistrator7ForwardEv
sig:_MemoryStream_get_Position_m3733941202
s4k:__ZN6il2cpp2os9MutexImpl7TryLockEjb
mb:invoke_iiiiifiiiif
u1a:__ZN6Camera26ClearIntermediateRenderersEj
zSh:__Z58RuntimeInvoker_RuntimeTypeHandle_t3027515415_RuntimeObjectPFvvEPK10MethodInfoPvPS4_
Goj:_CapsuleCollider_get_height_m2472088533
Tnb:__ZL10KeyHandleriPK23EmscriptenKeyboardEventPv
RAf:_Slot_t3975888750_marshal_pinvoke
LCm:_glLinkProgram__wrapper
jya:__ZN6prcoreL12RemapGenericI17TexFormatARGB888815TexFormatBGR888EEvPKNS_9InnerInfoE
fQj:_ArraySegment_1_GetHashCode_m3394884290_gshared
tQ:__Z79AnimatorControllerPlayable_CUSTOM_INTERNAL_CALL_GetNextAnimatorClipInfoInternalR9HPlayablei
M0l:__ZL77ExecuteEvents_t3484638744_CustomAttributesCacheGenerator_U3CU3Ef__mgU24cache6P21CustomAttributesCache
Ezj:_Selectable_OnCanvasGroupChanged_m472903475
Tyi:_EventWaitHandle_Reset_m3348053200
kEh:_Enumerator_get_Current_m2897627569_gshared
Bod:__ZN5physx7NpShape8requiresERNS_23PxProcessPxBaseCallbackE
eQk:__ZN6il2cpp6icalls8mscorlib6System13Globalization11CultureInfo35construct_internal_locale_from_nameEP17Il2CppCultureInfoP12Il2CppString
nqg:_List_1_System_Collections_IList_Add_m2656245659_gshared
sXb:__ZL22Transfer_ManagedObjectI24GenerateTypeTreeTransferLb1EEvRK29SerializationCommandArgumentsR31RuntimeSerializationCommandInfo
PPh:__Z100RuntimeInvoker_Boolean_t97287965_RuntimeObject_Int32_t2950945753_RuntimeObject_UInt16U26_t2814738322PFvvEPK10MethodInfoPvPS4_
Ngi:__Z56RuntimeInvoker_ILTokenInfo_t2325775114_Int32_t2950945753PFvvEPK10MethodInfoPvPS4_
vUe:_HMAC_get_BlockSizeValue_m455678067
SK:__ZN25RuntimeAnimatorController8TransferI19StreamedBinaryWriteILb0EEEEvRT_
XEg:_Collection_1_System_Collections_ICollection_CopyTo_m1597420376_gshared
PRj:_ResourceEnumerator_FillCache_m1661715061
LTc:__ZN24ConvexVsHeightfieldSweepC2ERN5physx2Gu15HeightFieldUtilERKNS1_14ConvexHullDataERKNS0_11PxMeshScaleERKNS0_11PxTransformESC_RKNS0_6PxVec3EfNS0_7PxFlagsINS0_9PxHitFlag4EnumEtEEfbb
HTg:_ReadOnlyCollection_1_System_Collections_IList_IndexOf_m3664838805_gshared
eBl:__ZL72SecuritySafeCriticalAttribute_t3505979402_CustomAttributesCacheGeneratorP21CustomAttributesCache
Dk:_emscripten_set_main_loop_timing
vZl:__ZL95CustomEventData_t317522481_CustomAttributesCacheGenerator_CustomEventData_AddUInt16_m2145178875P21CustomAttributesCache
mtc:__Z34Display_CUSTOM_GetRenderingExtImpl13Il2Cpp_IntPtrPiS0_
iHf:_Convert_ToUInt16_m3523269149
oOa:__ZN14DataBufferGLES12RecordRenderEv
I7e:_ExecuteEvents_get_endDragHandler_m2879610446
Toe:__Z40CapsuleCollider_Set_Custom_PropDirectionP12Il2CppObjecti
bXd:__ZNK5physx20SingleAABBUpdateTask7getNameEv
Wib:__ZN14ImageReference10FlipImageYEv
GKi:_Interpreter_GetLastDefined_m4107643411
Jsb:__Z32TransferEnumWithNameForceIntSizeI14SafeBinaryRead13TargetEyeMaskEvRT_RT0_PKc17TransferMetaFlags
kCc:__Z14GetDefaultSkini
KR:__ZN4FMOD3DSP9setBypassEb
Nnb:__Z19NormalizeWheelInputf
Hhf:_Graphic_DoMeshGeneration_m3548487693
Hlb:__Z29StdTemplateConversionFunctionIsaEbPvR14SafeBinaryRead
jOi:_Repetition__ctor_m1672362629
vMc:__Z29Transfer_Blittable_ArrayFieldI8JSONReadhEvRT_R9ArrayInfoRK23StaticTransferFieldInfo
L0e:_SecurityFrame_ToString_m339310712_AdjustorThunk
k6i:_TypeBuilder_create_runtime_class_m2581270900
foc:__ZN11MonoManager25GetImageFromAssemblyIndexEi
CHj:_InternalEnumerator_1_get_Current_m3008260692_gshared
atd:__ZN5physx2Sc9ClothCore17addCollisionPlaneERKNS_21PxClothCollisionPlaneE
G2a:__ZN22RenderingCommandBuffer20CleanupCommandBufferEv
qFf:_Decimal_op_Implicit_m2299919277
LHc:__Z18Transfer_BlittableI9JSONWriteLb1EtEvRK29SerializationCommandArgumentsR31RuntimeSerializationCommandInfo
Goe:__Z34MeshCollider_Get_Custom_PropConvexP12Il2CppObject
EIf:_DateTime_System_IConvertible_ToType_m1242864300
PEe:__Z37Register_UnityEngine_Font_get_dynamicv
Xk:___syscall85
l8d:__ZNK5physx13PxHeightField8isKindOfEPKc
z2d:__ZN5physx23correlatePatchesCoulombERNS_27PxcCorrelationBufferCoulombERKNS_2Gu13ContactBufferERKNS_11PxTransformES8_fjjj
H4a:__ZNSt3__26__sortIRPFbP10GUIElementS2_EPS2_EEvT0_S7_T_
Xse:__Z14ValidateFormatR13dynamic_arrayIN20TextRenderingPrivate16TextFormatChangeELj4EE
G1i:_ConstructorBuilder_GetILGenerator_m1750792206
Oui:_EncoderFallback_get_ReplacementFallback_m818398284
vWk:__ZN6il2cpp2os6Thread19DetachCurrentThreadEv
c7e:_EventTrigger_OnBeginDrag_m4203438710
$nk:__ZN6il2cpp2vmL21SetupInterfacesLockedEP11Il2CppClassRKNS_2os12FastAutoLockE
XQb:__ZN11MonoManager23VirtualRedirectTransferER24GenerateTypeTreeTransfer
Epj:_Color__ctor_m1673432820_AdjustorThunk
O5d:__ZNK5physx2Sc18ParticleSystemCore16getInternalFlagsEv
w3f:_Dictionary_2_Do_CopyTo_TisRuntimeObject_TisRuntimeObject_m2344529027_gshared
Cwb:__ZN19StreamedBinaryWriteILb0EE8TransferI13dynamic_arrayI8Vector3fLj4EEEEvRT_PKc17TransferMetaFlags
QD:__ZN23AnimationPlayableOutput17SetSourcePlayableEP8Playable
ZXk:__ZN6il2cpp2gc16GarbageCollector22MakeDescriptorForArrayEv
Wli:_MethodReturnDictionary__cctor_m278392388
Ohi:__Z37RuntimeInvoker_UILineInfo_t4195266810PFvvEPK10MethodInfoPvPS4_
oLh:_Dictionary_2_System_Collections_IDictionary_GetEnumerator_m529247385_gshared
lZc:__ZN16ControllerFilter9preFilterERKN5physx12PxFilterDataEPKNS0_7PxShapeEPKNS0_12PxRigidActorERNS0_7PxFlagsINS0_9PxHitFlag4EnumEtEE
j2:__ZN11UnityEngine15CloudWebService14DataDispatcher15SetupWebRequestEv
F7h:__Z64RuntimeInvoker_Boolean_t97287965_RuntimeObject_Int16_t2552820387PFvvEPK10MethodInfoPvPS4_
KNe:__ZN11UnityEngine15PlatformWrapper13GetShaderCapsEv
ZVd:__ZN16MBPOS_TmpBuffers16allocateSleepingEjj
r4i:_GenericTypeParameterBuilder_IsDefined_m98179866
P1g:_KeyPairPersistence_get_MachinePath_m3812267291
ECf:_Stack_Peek_m2216191248
Ovg:_List_1_TrimExcess_m1319219685_gshared
l8j:_ListPool_1_U3Cs_ListPoolU3Em__0_m657844629_gshared
rIf:_DateTime_System_IConvertible_ToDecimal_m1044850612_AdjustorThunk
djc:__ZN21FixedBehaviourManager6UpdateEv
Qqc:__ZN9Transform9SetParentEPS_NS_15SetParentOptionE
x8:__ZN19ShaderPropertySheet8SetFloatEN9ShaderLab16FastPropertyNameEfNS_8SetFlagsE
N6f:_CultureInfo_construct_internal_locale_from_specific_name_m3418948590
KBa:__ZN19RuntimeSceneManager24BeginIntegrateMainThreadEP10UnityScene
fcd:__ZN5physx14NpArticulation26setExternalDriveIterationsEj
RQc:__ZN16RayRTreeCallbackILi0ELb0EED0Ev
S8k:_GameObject_GetComponentsInChildren_m479703998
xgh:_TlsServerCertificate_ProcessAsSsl3_m1306583193
v$d:__ZN5physx20PxsParticleSystemSim23scheduleCollisionUpdateERNS_10PxBaseTaskE
oXk:__ZNSt3__2plIcNS_11char_traitsIcEENS_9allocatorIcEEEENS_12basic_stringIT_T0_T1_EERKS9_S6_
rkg:_StringReader_CheckObjectDisposedException_m3796163530
U4b:__ZN9ShaderLab20SerializedSubProgramaSERKS0_
esm:_roundf
aJh:_Dictionary_2_pick_value_m4268517353_gshared
Qrb:__ZN18StreamedBinaryReadILb0EE21TransferSTLStyleArrayINSt3__26vectorI17SortingLayerEntryNS2_9allocatorIS4_EEEEEEvRT_17TransferMetaFlags
Htf:_Byte_System_IConvertible_ToSingle_m324484566_AdjustorThunk
sDf:_Decimal_op_Explicit_m2848387298
fak:_KeyValuePair_2_ToString_m1238786018_gshared
b0c:__ZN5physx15PxBoxControllerD0Ev
Gx:__ZN8Animator15SetPrepareStageEv
aok:__ZN6il2cpp2vmL24SetupTypeHierarchyLockedEP11Il2CppClassRKNS_2os12FastAutoLockE
Unb:__ZL11TextHandleriPK23EmscriptenKeyboardEventPv
$9a:__Z20CalculateLightMatrixRK15SharedLightDataP10Matrix4x4f
rse:_destroy_face
Vfl:_Input_GetMouseButtonUp_m3875270823
z0c:__ZN5physx19PxAllocatorCallbackD2Ev
Q$a:__ZN24dense_hashtable_iteratorINSt3__24pairIKN4core12basic_stringIcNS2_20StringStorageDefaultIcEEEEP20ArchiveStorageReaderEES6_20StringHash32FunctionIS6_EN14dense_hash_mapIS6_S9_SC_NS0_8equal_toIS6_EE13stl_allocatorISA_L18MemLabelIdentifier54ELi16EEE9SelectKeyESF_SI_EC2EPK15dense_hashtableISA_S6_SC_SK_SF_SI_EPSA_SQ_b
T3k:__ZN6il2cpp6icalls8mscorlib6System8Security12Cryptography24RNGCryptoServiceProvider13RngInitializeEP11Il2CppArray
e0l:__ZL68UsedByNativeCodeAttribute_t1703770351_CustomAttributesCacheGeneratorP21CustomAttributesCache
Oxd:__ZNK5physx15NpActorTemplateINS_16PxParticleSystemEE17getDominanceGroupEv
WPh:__Z81RuntimeInvoker_Void_t1185182177_RuntimeObject_Int32_t2950945753_Int32_t2950945753PFvvEPK10MethodInfoPvPS4_
qhl:_Mathf_Sign_m1998862938
hxb:__ZN4PPtrI5LightE8TransferI19StreamedBinaryWriteILb0EEEEvRT_
z_c:__ZN5physx3Cct26CharacterControllerManager21createObstacleContextEv
dpg:_NumberFormatter_NumberToString_m3906556024
E$b:__Z19TransferField_ArrayI18StreamedBinaryReadILb1EE27Converter_SimpleNativeClassI17AnimationCurveTplIfEEEvRK23StaticTransferFieldInfoR31RuntimeSerializationCommandInfoRT0_
Nvg:_List_1_ToArray_m161611127_gshared
_ig:_NullStream_Flush_m3382897993
hxd:__ZN5physx15NpActorTemplateINS_15PxParticleFluidEE7releaseEv
UOa:__ZN18GfxFramebufferGLES22MakeCurrentFramebufferENS_7BuiltinE
f$k:__ZN6il2cpp2vm12MarshalAlloc4FreeEPv
FWl:__ZL80Event_t2956885303_CustomAttributesCacheGenerator_Event_set_character_m2587156137P21CustomAttributesCache
zEd:__ZN5physx6shdfnd5ArrayIPNS_2Sc19ShapeInstancePairLLENS0_19ReflectionAllocatorIS4_EEE15growAndPushBackERKS4_
N6j:_UnityEvent_1_FindMethod_Impl_m3637444959_gshared
sEa:__ZN12CachedReader4ReadEPvj
iVd:__ZN5physx21MBPPostUpdateWorkTaskD0Ev
MTi:_Ext_ToUInt64_m1889353362
Waj:_TypeFilter_EndInvoke_m998903841
Nze:_cf2_blues_init
tgd:__ZN5physx2Sc8BodyCore24clearSpatialAccelerationEbb
Lak:_KeyValuePair_2__ctor_m1794021352_gshared
s_g:_SimpleCollator_MatchesForwardCore_m850743967
q9a:__Z24CalculateLightShadowFadeRK6CamerafffR8Vector4f
Haa:__ZN19RuntimeSceneManagerD2Ev
o$l:__ZL77DeallocateOnJobCompletionAttribute_t3131681843_CustomAttributesCacheGeneratorP21CustomAttributesCache
Ljl:_Object_set_name_m653319976
ugk:_UnityAction_1_EndInvoke_m312813767_gshared
hQf:_CCGregorianCalendar_GetMonth_m1547203696
z3:__ZN11UnityEngine15CloudWebService25WebRequestDownloadHandler17OnCompleteContentEv
Axa:__ZN6prcore17GetIntegerBlitterE13TextureFormatS0_N14ImageReference8BlitModeE
aMh:_Dictionary_2_System_Collections_ICollection_CopyTo_m2556353211_gshared
sEd:__ZN5physx10PxsContext20createContactManagerERKNS_24PxvManagerDescRigidRigidEPNS_18PxsMaterialManagerE
SEk:__ZN6il2cpp2gc19AppendOnlyGCHashMapINSt3__24pairIPK11Il2CppImageP11Il2CppClassEEP22Il2CppReflectionModule17ReflectionMapHashIS9_ENS2_8equal_toIS9_EEE11TryGetValueERKS9_PSB_
FCd:__ZN5physx2Cm12DelegateTaskINS_7NpSceneEXadL_ZNS2_12executeSolveEPNS_10PxBaseTaskEEEED0Ev
yRc:__ZN5physx2GuL18gPCMHullPrefetchCBEjPKNS_6PxVec3E
o6c:__ZN5physx2Sc5Scene31removeActiveBreakableConstraintEPNS0_13ConstraintSimE
W_e:_SecurityPermissionAttribute_set_Flags_m1110767718
vtl:__ZL51Directory_t828876208_CustomAttributesCacheGeneratorP21CustomAttributesCache
Pqf:_SimpleEnumerator_Reset_m2182001888
rcl:_GUISkin_get_label_m1695095964
Mgm:_StateMachineBehaviour_OnStateEnter_m813140176
xdi:__Z86RuntimeInvoker_Int32_t2950945753_Vector2_t2156229523_Vector2_t2156229523_RuntimeObjectPFvvEPK10MethodInfoPvPS4_
Aqc:__ZN9BlobWrite14ReduceCopyImplERK14ReduceCopyDataj
VXf:_Array_LastIndexOf_TisRuntimeObject_m1677937501_gshared
H1g:_KeyBuilder_IV_m2230195376
_oj:_Collider_set_material_m3939642545
u6h:__Z63RuntimeInvoker_Boolean_t97287965_Rect_t2360479859_RuntimeObjectPFvvEPK10MethodInfoPvPS4_
$Ej:_InternalEnumerator_1_MoveNext_m322127880_gshared
PId:__ZN5physx6shdfnd5ArrayINS_12PxActorShapeENS0_19ReflectionAllocatorIS2_EEE15growAndPushBackERKS2_
oZa:__ZN25MultiBlocksMemoryFileData17AdjustBlocksCountEj
KMk:__ZNSt3__214__split_bufferIN6il2cpp2vm22EmbeddedResourceRecordERNS_9allocatorIS3_EEED2Ev
ahc:__ZZN12MeshRenderer15InitializeClassEvEN29FunctorImpl_134kDidModifyMesh4CallEPviR11MessageData
Dlh:_DictionaryNodeEnumerator_get_Key_m2267812973
zqe:__ZN13TextRendering4Font8TransferI24GenerateTypeTreeTransferEEvRT_
Xkj:_AudioClipPlayable_INTERNAL_CALL_SetPauseDelayInternal_m1322522061
qQj:_DefaultComparer__ctor_m2347022577_gshared
btc:__Z27CullingGroup_CUSTOM_DisposeP12Il2CppObject
vHh:_Dictionary_2_CopyTo_m499078359_gshared
Z2a:__ZN13ComputeShader15SetTextureParamEjRKN9ShaderLab16FastPropertyNameE9TextureID16TextureDimension
sRj:_Comparer_1__ctor_m319670016_gshared
bld:__ZN5physx2Sc14ConstraintCore8setFlagsENS_7PxFlagsINS_16PxConstraintFlag4EnumEtEE
en:_glStencilMask
SWk:__ZN6il2cpp2os10ThreadImpl16GetCurrentThreadEv
f7d:__ZNK5physx2Sc15ClothFabricCore20getNbParticleIndicesEv
Pnb:__ZN15GUIEventManager10QueueEventERK10InputEvent
IRj:_ResourceReader_ReadNonPredefinedValue_m2638853518
HGg:_Collection_1_Clear_m1300437781_gshared
gNg:_Collection_1_Contains_m1707523067_gshared
ySj:_DecimalConstantAttribute__ctor_m3583301917
upm:_htons
tJg:_Collection_1_System_Collections_ICollection_get_IsSynchronized_m1640823718_gshared
w1k:_GC_push_conditional_with_exclusions
$yh:_Enumerator_System_Collections_IDictionaryEnumerator_get_Entry_m2772123357_AdjustorThunk
bA:__ZN21AnimationPosePlayableD0Ev
FG:__ZN12_GLOBAL__N_121ProcessAnimationBeginER35AnimationPlayableEvaluationConstantR32AnimationPlayableEvaluationInputR33AnimationPlayableEvaluationOutput
xDl:__ZL80Convert_t2465617642_CustomAttributesCacheGenerator_Convert_ToDecimal_m2858622624P21CustomAttributesCache
iha:__ZN15dense_hashtableINSt3__24pairIKiiEEi21InstanceIDHashFunctorN14dense_hash_mapIiiS4_NS0_8equal_toIiEE13stl_allocatorIS3_L18MemLabelIdentifier65ELi16EEE9SelectKeyES7_SA_E9copy_fromERKSD_j
kSi:_UriParser_InitializeAndValidate_m2008117311
jpm:_strrchr
otl:__ZL58UnicodeCategory_t3356078642_CustomAttributesCacheGeneratorP21CustomAttributesCache
G5c:__ZN5physx2Sc7BodySim6wakeUpEv
c4f:_Dictionary_2_Do_ICollectionCopyTo_TisKeyValuePair_2_t1377593753_m4023145528_gshared
AJh:_Dictionary_2_System_Collections_ICollection_get_SyncRoot_m2069913662_gshared
Oaf:_UIBehaviour_IsDestroyed_m3033055982
yZk:_WriteZStream
iEd:__ZN5physx6shdfnd8PoolBaseINS_2Gu30LargePersistentContactManifoldENS0_19ReflectionAllocatorIS3_EEE17releaseEmptySlabsEv
b6c:__ZN5physx2Sc21ConstraintInteraction7destroyEv
lhe:__ZN14SphereCollider6CreateEPK9Rigidbody
lxc:__Z33Register_UnityEngine_Random_Rangev
Vzc:__Z27Object_CUSTOM_DestroyObjectP12Il2CppObjectf
xlf:_InputField_get_readOnly_m3111985574
FSd:__ZN5physx13PxsSolverCoreD2Ev
mxb:__ZN14RenderSettings27UpdateIndirectSpecularColorEv
fnh:_DeflateStream_Flush_m2668044568
zMb:__ZN14PlayerSettings8TransferI18StreamedBinaryReadILb0EEEEvRT_
Dxk:__ZN6il2cpp6icalls8mscorlib6System8MonoType16GetMethodsByNameEP20Il2CppReflectionTypeP12Il2CppStringibS5_
kIb:__Z11SkinMeshCPUR12SkinMeshInfo
uyl:__ZL73ObjRef_t2141158884_CustomAttributesCacheGenerator_U3CU3Ef__switchU24map26P21CustomAttributesCache
K1l:__ZL102PointerEventData_t3807901092_CustomAttributesCacheGenerator_PointerEventData_set_pointerId_m1888344330P21CustomAttributesCache
OFd:__ZNK5physx7NpScene16getNbConstraintsEv
lof:_U3CDelayedSetDirtyU3Ec__Iterator0__ctor_m3936335621
JWl:__ZL90Event_t2956885303_CustomAttributesCacheGenerator_Event_Internal_SetNativeEvent_m4190336570P21CustomAttributesCache
Lrd:__ZN5physx7NpCloth14setWakeCounterEf
bCb:__ZN4PPtrI10GameObjectE8TransferI14SafeBinaryReadEEvRT_
ygl:_Keyframe_get_inTangent_m3690235177_AdjustorThunk
lzi:_Monitor_Monitor_wait_m3706677354
pWe:_RijndaelTransform__cctor_m2439033240
xHa:__ZNSt3__27__sort3IRNS_4lessIN22BuiltinResourceManager8ResourceEEEPS3_EEjT0_S7_S7_T_
Lhl:_Mesh_Internal_Create_m324632090
Bql:__ZL175U3CGetEnumeratorU3Ec__Iterator0_t1202911786_CustomAttributesCacheGenerator_U3CGetEnumeratorU3Ec__Iterator0_System_Collections_Generic_IEnumeratorU3CTU3E_get_Current_m322251035P21CustomAttributesCache
bhk:__ZL24UnresolvedVirtualCall_14P12Il2CppObject25RSAParameters_t1728406613PK10MethodInfo
vye:_ps_hints_t2mask
L4f:_LayoutGroup_SetProperty_TisVector2_t2156229523_m2721164497_gshared
Ieg:_IntPtr_ToString_m1831665121
GAj:_Slider_Set_m1476104429
Bjf:_Image_set_fillClockwise_m2210525152
LGb:__ZN10BlendShape8TransferI19StreamedBinaryWriteILb0EEEEvRT_
w8d:__ZNK5physx2Gu11HeightField17getReferenceCountEv
oS:__Z32TransferEnumWithNameForceIntSizeI14SafeBinaryReadN10SampleClip8LoadTypeEEvRT_RT0_PKc17TransferMetaFlags
zeg:__Z21il2cpp_codegen_sizeofP11Il2CppClass
kpa:__Z19GetTimeSinceStartupv
$jf:_Image_AddQuad_m2161647989
rta:__ZN7Texture23VirtualRedirectTransferER17RemapPPtrTransfer
$5e:_BaseInputModule_DeactivateModule_m856719157
IWk:__ZN6il2cpp2os10ThreadImpl11SetPriorityENS0_14ThreadPriorityE
Npg:_Enumerator_System_Collections_IEnumerator_Reset_m2953002685_gshared
XRh:__Z50RuntimeInvoker_Int64_t3736567304_Int32_t2950945753PFvvEPK10MethodInfoPvPS4_
MDe:_TT_Load_Composite_Glyph
OIb:__Z33MultiplyMatrixArrayWithBase4x4REFPK10Matrix4x4fS1_S1_PS_j
lmm:_Vector4_get_sqrMagnitude_m3647362453_AdjustorThunk
rCg:_List_1_Insert_m1695211546_gshared
k6h:__Z49RuntimeInvoker_Void_t1185182177_Color_t2555686324PFvvEPK10MethodInfoPvPS4_
L2h:__Z99RuntimeInvoker_RuntimeObject_RuntimeObject_RuntimeObject_Vector3_t3722313464_Quaternion_t2301928331PFvvEPK10MethodInfoPvPS4_
Jwg:_List_1_Sort_m3232912161_gshared
H1h:__Z48RuntimeInvoker_Rect_t2360479859_Rect_t2360479859PFvvEPK10MethodInfoPvPS4_
K7a:__ZN29RenderNodeQueuePrepareContextC2Ev
Uzk:_il2cpp_gc_disable
_Z:__ZN10SampleClipC2E18MemLabelIdentifier18ObjectCreationMode
U5b:__ZN9ShaderLab20SerializedSubProgram16TextureParameter8TransferI24GenerateTypeTreeTransferEEvRT_
YTe:_DSASignatureDeformatter_SetKey_m2999549245
t5k:__ZN6il2cpp2os11MutexHandle4WaitEj
zpc:__ZL34GetComponentsImplementationRecurseILb1ELi1ELi1EEbR10GameObjectbRK17CompareParametersRK39GetComponentsImplementation_ReturnValue
fTh:__Z114RuntimeInvoker_Boolean_t97287965_RuntimeObject_RuntimeObject_Int32_t2950945753_Int32_t2950945753_Int32_t2950945753PFvvEPK10MethodInfoPvPS4_
Y0i:_AssemblyBuilder_GetTypes_m3415680380
tza:__ZN6prcoreL17RemapGenericFloatI15TexFormatRGHalf18TexFormatARGBFloatEEvPKNS_9InnerInfoE
f6f:_CultureInfo_ConstructInternalLocaleFromSpecificName_m4206018816
YMf:_StackFrame_GetMethod_m1395840764
ira:__ZNK13RenderTexture13GetDataHeightEv
cpa:__Z18SimulateMouseInputi
W1a:__ZN13RenderManager23AddRemoveCamerasDelayedEv
PIc:__ZN9JSONWrite8TransferI13dynamic_arrayIdLj8EEEEvRT_PKc17TransferMetaFlags
yAa:__ZN23PreloadManagerOperation11GetPriorityEv
Qnf:_LayoutElement_OnEnable_m1760066426
mLe:__ZN11UnityEngine9Analytics15AnalyticsConfigC2Ev
rrf:_BitConverter__cctor_m3841343255
Jbm:_RaycastHit2D_get_distance_m2286445687
cDf:_Decimal_Compare_m3062820418
SLi:_IntervalCollection_GetMetaCollection_m4029522214
nme:__ZNK5Unity5Joint16GetCurrentForcesER8Vector3fS2_
Z6e:_EventTrigger_OnDeselect_m1919608102
Vjj:_AsyncOperation_t1445031843_marshal_pinvoke_cleanup
iBi:_TimeSpan__ctor_m2047388489_AdjustorThunk
tgb:__ZN13RenderTexture8SetWidthEi
wcc:__ZNK28RectTransformPropertyBinding12SetPPtrValueERKN11UnityEngine9Animation10BoundCurveEi
Lzl:__ZL56HMACRIPEMD160_t3724196729_CustomAttributesCacheGeneratorP21CustomAttributesCache
x0b:__Z18Transfer_BlittableI18StreamedBinaryReadILb0EELb0EfEvRK29SerializationCommandArgumentsR31RuntimeSerializationCommandInfo
obj:_CustomEventData_AddByte_m4233823462
XGb:__ZN10MeshFilterD0Ev
ODe:_UNITY_FT_GlyphLoader_CheckSubGlyphs
pwb:__ZN18StreamedBinaryReadILb0EE21TransferSTLStyleArrayI10vector_mapI7Hash128iNSt3__24lessIS3_EE13stl_allocatorINS4_4pairIS3_iEEL18MemLabelIdentifier80ELi16EEEEEvRT_17TransferMetaFlags
V9a:__Z25SetupObjectBakedOcclusionbRK15SharedLightDataRK26SharedLightmapSettingsDataRK15LightmapIndicesR17ShaderPassContext
fMl:__ZL94GUILayer_t2783472903_CustomAttributesCacheGenerator_GUILayer_INTERNAL_CALL_HitTest_m4142979080P21CustomAttributesCache
PHg:_Collection_1_System_Collections_ICollection_CopyTo_m1516601228_gshared
k9k:_Gradient_Finalize_m1613599066
kFc:__Z42Register_UnityEngine_GUIStyle_set_fontSizev
XKg:_Collection_1_Add_m3860636938_gshared
HYl:__ZL119GUIStyle_t3956901511_CustomAttributesCacheGenerator_GUIStyle_INTERNAL_CALL_Internal_CalcSizeWithConstraints_m1791156923P21CustomAttributesCache
Knd:__ZNK5physx9NpFactory11getNbShapesEv
zR:__Z82Register_UnityEngine_Animations_AnimatorControllerPlayable_INTERNAL_CALL_GetBoolIDv
Ugk:__ZL23UnresolvedVirtualCall_5P12Il2CppObjectsPK10MethodInfo
jI:__ZN4PPtrI6AvatarE8TransferI19StreamedBinaryWriteILb0EEEEvRT_
XE:__ZN8Animator9BuildJobsERK13dynamic_arrayIP14PlayableOutputLj4EERS0_INS_11AnimatorJobELj4EEPS7_bb
Org:_List_1_Insert_m4050947056_gshared
N7:__ZN9ShaderLab16FastPropertyName4InitEPKc
nKj:_InternalEnumerator_1__ctor_m39232262_AdjustorThunk
p1h:__Z48RuntimeInvoker_OperatingSystemFamily_t1868066375PFvvEPK10MethodInfoPvPS4_
mCl:__ZL61Thread_t2300836069_CustomAttributesCacheGenerator_local_slotsP21CustomAttributesCache
z8l:__ZL73Ext_t2749166018_CustomAttributesCacheGenerator_Ext_decompress_m2155016243P21CustomAttributesCache
Abc:__Z13RegisterClassIN2UI13RectTransformEEvv
bo:FUNCTION_TABLE_iiiii
Nde:__ZN5physx14PxRigidBodyExt23setMassAndUpdateInertiaERNS_11PxRigidBodyEfPKNS_6PxVec3Eb
Y9l:__ZL82Cookie_t4203102285_CustomAttributesCacheGenerator_U3CExactDomainU3Ek__BackingFieldP21CustomAttributesCache
ZKj:_InternalEnumerator_1_get_Current_m3911557813_AdjustorThunk
H2g:_KeyPairPersistence_Remove_m1876145547
uuf:_Char_System_IConvertible_ToByte_m2347554595_AdjustorThunk
HFk:__ZNK15dense_hashtableINSt3__24pairIK10KeyWrapperINS1_IPK12PropertyInfoP11Il2CppClassEEEjEES9_17ReflectionMapHashIS8_EN14dense_hash_mapIS9_jSD_NS9_14EqualsComparerINS0_8equal_toIS8_EEEENS0_9allocatorISB_EEE9SelectKeyESI_SK_E12test_deletedERK30dense_hashtable_const_iteratorISB_S9_SD_SM_SI_SK_E
s_l:__ZL59TooltipAttribute_t3957072629_CustomAttributesCacheGeneratorP21CustomAttributesCache
YDb:__ZN10VertexData8TransferI17RemapPPtrTransferEEvRT_
Nqa:__ZN13RenderTexture9SetMipMapEb
gqk:__ZN15dense_hashtableINSt3__24pairIK10KeyWrapperIPK11Il2CppClassEPKcEES6_N6il2cpp5utils11PointerHashIS3_EEN14dense_hash_mapIS6_S9_SE_NS6_14EqualsComparerINS0_8equal_toIS5_EEEENS0_9allocatorISA_EEE9SelectKeyESJ_SL_E13set_empty_keyERKSA_
skj:_AudioClipPlayable_op_Explicit_m2515253661
$3e:_String_CreateString_m860434552
J$d:__ZN5physx2Sc10ClothShape21updateBoundsInAABBMgrEv
gEh:_Enumerator_System_Collections_IEnumerator_Reset_m278261807_AdjustorThunk
wHg:_Collection_1_GetEnumerator_m1824095167_gshared
bwl:__ZL107CriticalFinalizerObject_t701527852_CustomAttributesCacheGenerator_CriticalFinalizerObject__ctor_m3245424448P21CustomAttributesCache
Zcg:_Int32_Equals_m2976157357_AdjustorThunk
azc:__Z38Transform_CUSTOM_INTERNAL_get_rotationP12Il2CppObjectP11Quaternionf
cKk:__ZNK15dense_hashtableINSt3__24pairIK10KeyWrapperIP11Il2CppClassES4_EES5_N6il2cpp8metadata16SZArrayClassHashEN14dense_hash_mapIS5_S4_SA_NS5_14EqualsComparerINS9_19SZArrayClassCompareEEENS0_9allocatorIS7_EEE9SelectKeyESE_SG_E3endEv
d8h:__Z73RuntimeInvoker_Single_t1397266774_Vector2_t2156229523_Vector2_t2156229523PFvvEPK10MethodInfoPvPS4_
Mmi:_SoapAttribute_get_XmlNamespace_m859394681
ujg:_StreamAsyncResult_set_Done_m376066337
HEk:__ZNK15dense_hashtableINSt3__24pairIK10KeyWrapperINS1_IPK10MethodInfoP11Il2CppClassEEEjEES9_17ReflectionMapHashIS8_EN14dense_hash_mapIS9_jSD_NS9_14EqualsComparerINS0_8equal_toIS8_EEEENS0_9allocatorISB_EEE9SelectKeyESI_SK_E5beginEv
c$j:_X509ExtensionCollection_System_Collections_IEnumerable_GetEnumerator_m1475785462
gRa:__ZN7ApiGLES19UploadBufferSubDataEjN2gl12BufferTargetEllPKv
Tfm:_SkeletonBone_t4134054672_marshal_pinvoke_cleanup
QPd:__ZN5physx2Sc5Scene17createClothSolverEv
MUi:_WebHeaderCollection_InternalSet_m1594829971
fla:__ZNSt3__216__rotate_forwardINS_11__wrap_iterIPN4core12basic_stringIcNS2_20StringStorageDefaultIcEEEEEEEET_S9_S9_S9_
qwg:__ZN21InterfaceFuncInvoker0I19Color32_t2600501292E6InvokeEjP11Il2CppClassP12Il2CppObject
Hga:__ZdaPv
Rvd:__ZNK5physx15PxsParticleData16getMaxParticlesVEv
nJ:__ZN7mecanim12statemachine20StateMachineConstant8TransferI14SafeBinaryReadEEvRT_
log:_MulticastDelegate_Equals_m2502840627
PVe:_SymmetricAlgorithm_set_KeySize_m3805756466
Qie:__ZThn116_N5physx7profile8ZoneImplINS_28PxProfileNameProviderForwardEE12removeClientERNS_19PxProfileZoneClientE
mVd:__ZN15MBP_PairManager17removeMarkedPairsEPK10MBP_ObjectPN5physx16PxsBroadPhaseMBPERK8BitArrayS8_
Ntf:_Byte_System_IConvertible_ToUInt32_m1049546902_AdjustorThunk
O0h:__Z53RuntimeInvoker_Double_t594665363_Interval_t1802865632PFvvEPK10MethodInfoPvPS4_
WXe:_SHA1Internal_ProcessBlock_m1991889327
SSb:__Z19TransferField_ArrayI14SafeBinaryRead27Converter_SimpleNativeClassI8GUIStyleEEvRK23StaticTransferFieldInfoR31RuntimeSerializationCommandInfoRT0_
AQb:__ZN9TextAsset23VirtualRedirectTransferER19StreamedBinaryWriteILb0EE
cPk:__ZN15dense_hashtableINSt3__24pairIK10KeyWrapperIP14Il2CppIUnknownEjEES5_N6il2cpp5utils11PointerHashIS3_EEN14dense_hash_mapIS5_jSB_NS5_14EqualsComparerINS0_8equal_toIS4_EEEENS0_9allocatorIS7_EEE9SelectKeyESG_SI_ED2Ev
U1f:_Array_Sort_TisRuntimeObject_TisRuntimeObject_m1685639929_gshared
MAi:_TimerCallback_Invoke_m1938221087
Rwb:__ZN14RenderSettings5ResetEv
hac:__ZN6Sprite9BindAtlasERK4PPtrI11SpriteAtlasE
hnd:__ZN5physx9NpPhysics33unregisterDeletionListenerObjectsERNS_18PxDeletionListenerEPKPKNS_6PxBaseEj
VKj:_InternalEnumerator_1_System_Collections_IEnumerator_get_Current_m3892960115_AdjustorThunk
Jtd:__ZNK5physx2Sc9ClothCore22getAngularInertiaScaleEv
xN:__ZZN8Animator15InitializeClassEvEN37FunctorImpl_421kDidModifyOverrideClip4CallEPviR11MessageData
PCj:_VertexHelper_AddUIVertexStream_m1733605881
MJi:_CaptureCollection_CopyTo_m3566922817
QMl:__ZL90AnimationCurve_t3046754366_CustomAttributesCacheGenerator_AnimationCurve__ctor_m1499663178P21CustomAttributesCache
Ksj:_Event_Use_m1074504378
B8i:_MonoEventInfo_t346866618_marshal_pinvoke_cleanup
HUe:_HMAC_HashCore_m3684104066
nL:__ZN19StreamedBinaryWriteILb0EE21TransferSTLStyleArrayI22OffsetPtrArrayTransferIN7mecanim8skeleton19SkeletonMaskElementEEEEvRT_17TransferMetaFlags
Sed:__ZN5physx20NpRigidActorTemplateINS_18PxArticulationLinkEE12setActorFlagENS_11PxActorFlag4EnumEb
zJb:__ZN14SpriteRenderer14OnChangeSpriteEv
xKg:_Collection_1_RemoveItem_m2911050674_gshared
NPh:__Z79RuntimeInvoker_UInt16_t2177724958_RuntimeObject_Int32_t2950945753_RuntimeObjectPFvvEPK10MethodInfoPvPS4_
CWk:__ZN6il2cpp2os10ThreadImplD2Ev
bag:_TextInfo_System_Runtime_Serialization_IDeserializationCallback_OnDeserialization_m1492046432
wGc:__ZN8Gradient8TransferI9JSONWriteEEvRT_
CWj:_ContextCallbackObject__ctor_m3499682402
Sim:_TextGenerator_System_IDisposable_Dispose_m4258206356
gDf:_Convert_ToBoolean_m2833621053
sob:__ZNK12TLSAllocatorI14StackAllocatorE22GetAllocatedMemorySizeEv
ax:__ZN7mecanim6memory16ChainedAllocator8AllocateEjj
NHl:__ZL62WebHeaderCollection_t1942268960_CustomAttributesCacheGeneratorP21CustomAttributesCache
joc:__Z32GetSceneHierarchyPathDescriptivePK6Object
Uel:_GUIStyle_get_contentOffset_m1453447484
t1j:_EqualityComparer_1_System_Collections_IEqualityComparer_GetHashCode_m2138064395_gshared
eY:__ZNK7WeakPtrI20SoundChannelInstanceE10SharedData9GetRawPtrEv
d_a:__ZN12HandlerChain4NameEv
_df:_FloatTween_t1274330004_marshal_pinvoke
Cbg:_Int16_System_IConvertible_ToType_m3672347013_AdjustorThunk
hbc:__Z13RegisterClassI14RenderSettingsEvv
rn:FUNCTION_TABLE_fiiiiiifiiiiiif
$Kb:__ZNSt3__26vectorI9InputAxisNS_9allocatorIS1_EEE10deallocateEv
gcg:_Int16_ToString_m2013897809
B2d:__ZN5physx37setupFinalizeSolverConstraintsCoulombERNS_13PxcNpWorkUnitERKNS_2Gu13ContactBufferERKNS_27PxcCorrelationBufferCoulombERKNS_11PxTransformESB_bPhRKNS_13PxcSolverBodyESF_RKNS_17PxcSolverBodyDataESI_ffjffff
w0e:_String_Substring_m2848979100
U$h:__Z123RuntimeInvoker_Boolean_t97287965_RuntimeObject_StringU26_t181565287_StringU5BU5DU26_t2154486980_StringU5BU5DU26_t2154486980PFvvEPK10MethodInfoPvPS4_
CJe:__Z44Register_UnityEngine_CanvasRenderer_get_cullv
cnk:__ZN15dense_hashtableINSt3__24pairIK10KeyWrapperIPK22Il2CppGenericParameterEP11Il2CppClassEES6_N6il2cpp5utils11PointerHashIS4_EEN14dense_hash_mapIS6_S9_SE_NS6_14EqualsComparerINS0_8equal_toIS5_EEEENS0_9allocatorISA_EEE9SelectKeyESJ_SL_ED2Ev
Xbc:__ZN13ProduceHelperI13MonoBehaviourLb0EE7ProduceE18MemLabelIdentifier18ObjectCreationMode
q0e:_SecurityException_get_PermissionType_m2237538728
tik:__ZL24UnresolvedVirtualCall_86P12Il2CppObjectxS0_xPK10MethodInfo
hmb:__Z29StdTemplateConversionFunctionIbbEbPvR14SafeBinaryRead
hZk:__ZNK15dense_hashtableINSt3__24pairIK10KeyWrapperIPK19Il2CppGenericMethodEP10MethodInfoEES6_N6il2cpp8metadata23Il2CppGenericMethodHashEN14dense_hash_mapIS6_S9_SD_NS6_14EqualsComparerINSC_26Il2CppGenericMethodCompareEEENS0_9allocatorISA_EEE9SelectKeyESH_SJ_E12test_deletedEj
oRb:__Z44InitializeTransferFunctionScriptingTraitsForI17RemapPPtrTransferEvR31TransferFunctionScriptingTraits
Qjb:__ZN14UnityWebStream24UpdateAllUnityWebStreamsEv
wsj:_Event_get_isKey_m2009856615
_rh:_X509Chain_SelectBestFromCollection_m1068759221
d9l:__ZL79Ext_t2749166018_CustomAttributesCacheGenerator_Ext_SplitHeaderValue_m1319577061P21CustomAttributesCache
h0l:__ZL91MovedFromAttribute_t481952341_CustomAttributesCacheGenerator_U3CNamespaceU3Ek__BackingFieldP21CustomAttributesCache
f5j:_SymmetricTransform_TransformBlock_m851059707
Jol:__ZL68IntPtr_t_CustomAttributesCacheGenerator_IntPtr_ToPointer_m4157623054P21CustomAttributesCache
xOg:_Collection_1_System_Collections_IList_get_IsReadOnly_m2978442176_gshared
FOi:_Regex_System_Runtime_Serialization_ISerializable_GetObjectData_m4061390789
QDg:_Enumerator_System_Collections_IEnumerator_Reset_m2261065994_AdjustorThunk
nyj:_ScrollRect_get_verticalNormalizedPosition_m3693218937
nUd:__ZN5physx31ComputeCreatedDeletedPairsListsEPKjS1_jRPNS_17PxcBroadPhasePairERjS5_S4_S5_S5_RNS_14SapPairManagerE
IBa:__ZN18LoadSceneOperation21MustCompleteNextFrameEv
IAj:_Slider_UpdateDrag_m1102107039
lIi:_X509ChainPolicy_set_RevocationMode_m3002768104
qIg:_Collection_1_get_Item_m1493027586_gshared
rfk:_InvokableCall_1_add_Delegate_m137616200_gshared
Ifm:_HitInfo_SendMessage_m2876711123_AdjustorThunk
tcg:_Int32_System_IConvertible_ToDateTime_m1824716955
EJh:_Dictionary_2_System_Collections_Generic_ICollectionU3CSystem_Collections_Generic_KeyValuePairU3CTKeyU2CTValueU3EU3E_CopyTo_m331407443_gshared
VWk:__ZN6il2cpp2osL23CleanupThreadIfCanceledEPv
lsi:_RuntimeTypeHandle__ctor_m3315980708_AdjustorThunk
JAl:__ZL69IIdentityPermissionFactory_t3268650966_CustomAttributesCacheGeneratorP21CustomAttributesCache
Tfb:__ZNSt3__26vectorI11CameraStackNS_9allocatorIS1_EEE8__appendEj
pMh:_Dictionary_2_Clear_m4146867046_gshared
pZd:__ZN5physx2Gu16pcmContactBoxBoxERKNS0_13GeometryUnionES3_RKNS_11PxTransformES6_RKfRNS0_5CacheERNS0_13ContactBufferE
m_j:_X509Chain_get_TrustAnchors_m2434696767
j6j:_UnityEvent_1_AddListener_m3990091128_gshared
Zy:__ZN7mecanim9animation12GetHumanPoseERKNS0_18ClipMuscleConstantEPKNS0_10ValueDeltaERNS_5human9HumanPoseE
p7h:__Z115RuntimeInvoker_Void_t1185182177_IntPtr_t_RectU26_t1284589061_RuntimeObject_Int32_t2950945753_Vector2U26_t2376273893PFvvEPK10MethodInfoPvPS4_
YKe:__ZN11UnityEngine9Analytics15UserCustomEvent12CustomParams6InsertEPKcRNS1_11CustomValueE
EA:__ZN22AnimationMixerPlayable17ProcessRootMotionEP35AnimationPlayableEvaluationConstantP32AnimationPlayableEvaluationInputP33AnimationPlayableEvaluationOutput
YKh:_Dictionary_2__ctor_m518943619_gshared
zZb:__Z29Transfer_Blittable_ArrayFieldI19StreamedBinaryWriteILb0EEjEvRT_R9ArrayInfoRK23StaticTransferFieldInfo
Yda:__Z13GetFileSystemv
Zhc:__ZZL23RegisterLightPropertiesR22GenericPropertyBindingEN29Wrapper_LightColorTemperature13SetFloatValueEPvf
rfa:__ZNK5Unity4Type21FindAllDerivedClassesER13dynamic_arrayIPKS0_Lj4EENS0_17TypeFilterOptionsE
Nnl:__ZL54IEnumerable_t1941168011_CustomAttributesCacheGeneratorP21CustomAttributesCache
Aga:__ZN13RuntimeStaticI15GUIEventManagerLb0EE16StaticInitializeEPv
rKb:__ZN14SafeBinaryRead8TransferIfEEvRT_PKc17TransferMetaFlags
Gel:_GUIStyle_CalcHeight_m1675749618
z1b:__ZL12InvokeMethodI18StreamedBinaryReadILb0EEEvRK29SerializationCommandArgumentsR31RuntimeSerializationCommandInfo
The:__ZN15RaycastCallback14processTouchesEPKN5physx12PxRaycastHitEj
roj:_CanvasRenderer_SplitIndicesStreamsInternal_m2326297040
dUi:_U3CSplitHeaderValueU3Ed__f_System_Collections_IEnumerator_Reset_m2409622282
PHi:_Version_CompareTo_m3146217210
Vfh:_TlsClientCertificate_FindParentCertificate_m3844441401
DJb:__ZThn32_N14SpriteRenderer15AddAsRenderNodeER15RenderNodeQueueRK20DeprecatedSourceData
wZf:_Array_InternalArray__ICollection_CopyTo_TisKeyValuePair_2_t71524366_m1056941380_gshared
J9d:__ZN5physx2Gu5RTree15exportExtraDataERNS_22PxSerializationContextE
CCi:_Type_get_IsClass_m589177581
W8k:_GameObject_set_layer_m1777705759
OCi:_Type_get_IsSystemType_m624798880
psj:_Event_get_shift_m1295795434
R$b:__Z29Transfer_Blittable_ArrayFieldI18StreamedBinaryReadILb1EE5RectTIfEEvRT_R9ArrayInfoRK23StaticTransferFieldInfo
l3a:__ZN19ShaderPropertySheet9SetMatrixEN9ShaderLab16FastPropertyNameERK10Matrix4x4fNS_8SetFlagsE
$3h:__Z63RuntimeInvoker_Playable_t459825607_AudioClipPlayable_t785069022PFvvEPK10MethodInfoPvPS4_
Rlc:__Z29GetTextureSizeAllowedMultiple13TextureFormat
ZOd:__ZNK5physx2Sq10AABBPruner7overlapERKNS0_9ShapeDataERNS0_14PrunerCallbackE
wLf:_Decimal_Subtract_m835601464
h0a:__ZZ23InitPlayerLoopCallbacksvEN52InitializationAsyncUploadTimeSlicedUpdateRegistrator7ForwardEv
Y$h:__Z73RuntimeInvoker_Boolean_t97287965_RuntimeObject_IPv6AddressU26_t3285609463PFvvEPK10MethodInfoPvPS4_
Cjc:__ZN21IntermediateRenderers3AddEP20IntermediateRenderer
dzk:_il2cpp_array_element_size
jEd:__ZN5physx6shdfnd5ArrayIPvNS0_19ReflectionAllocatorINS_2Gu30LargePersistentContactManifoldEEEE4copyINS0_15InlineAllocatorILj256ES6_EEEEvRKNS1_IS2_T_EE
zVk:__ZN6il2cpp2os10SocketImpl8ShutdownEi
sYg:_Func_3_Invoke_m3933023581_gshared
Fkm:_Enumerator_Reset_m3026739437
Hij:_AnimatorControllerPlayable__cctor_m2622955001
Ywg:_List_1_System_Collections_IEnumerable_GetEnumerator_m1824431956_gshared
Fg:_glCheckFramebufferStatus
t3k:__ZN6il2cpp2os11EventHandle4WaitEv
pDj:_U3CGetEnumeratorU3Ec__Iterator0_System_Collections_Generic_IEnumeratorU3CTU3E_get_Current_m9057020_gshared
J4:__ZN19CloudServiceHandler20StartEventDispatcherERKN11UnityEngine15CloudWebService18CloudServiceConfigERNS1_23WebRequestRestHeaderMapE
aif:_GraphicRaycaster__ctor_m646559428
$4d:__ZN5physx2Cm12DelegateTaskINS_2Sc5SceneEXadL_ZNS3_19updateCCDSinglePassEPNS_10PxBaseTaskEEEE11runInternalEv
bch:_CipherSuite_get_CipherAlgorithmType_m137858741
p0c:__ZN5physx6string9sprintf_sEPcjPKcz
Yu:__ZNSt3__26vectorI24CompressedAnimationCurve13stl_allocatorIS1_L18MemLabelIdentifier25ELi16EEE6resizeEj
Dce:__ZThn8_N5physx19TriangleMeshBuilderD1Ev
pyf:_BitArrayEnumerator_get_Current_m4220391712
y8l:__ZL71Ext_t2749166018_CustomAttributesCacheGenerator_Ext_compress_m1164423405P21CustomAttributesCache
TYg:__Z37il2cpp_codegen_get_executing_assemblyPK10MethodInfo
Woh:_HttpWebRequest_GetServicePoint_m2640244283
yGg:_Collection_1_System_Collections_IList_Remove_m3686118478_gshared
uVc:__ZN5physx2Gu16intersectRayAABBERKNS_6PxVec3ES3_S3_S3_RfS4_
q9b:__ZN9Transform23VirtualRedirectTransferER17RemapPPtrTransfer
kph:_IPAddress_get_ScopeId_m4237202723
jy:__ZN21AnimationClipPlayable7SetTimeEd
nOi:_ExpressionCollection_get_Item_m3510736379
O8j:_Array_InternalArray__get_Item_TisVector3_t3722313464_m2720091419_gshared
acl:_GUISkin_OnEnable_m2298707507
N9e:_StandaloneInputModule_get_inputActionsPerSecond_m3946624274
nyi:_UTF8Encoding_InternalGetCharCount_m82458470
k8h:__Z72RuntimeInvoker_Boolean_t97287965_Vector4_t3319028937_Vector4_t3319028937PFvvEPK10MethodInfoPvPS4_
Khc:__ZZL23RegisterLightPropertiesR22GenericPropertyBindingEN22Wrapper_LightIntensity13GetFloatValueEPv
tUl:__ZL132AnimatorControllerPlayable_t1015767841_CustomAttributesCacheGenerator_AnimatorControllerPlayable_INTERNAL_CALL_SetBoolID_m3660382180P21CustomAttributesCache
eOj:_InternalEnumerator_1_MoveNext_m2734554195_AdjustorThunk
J2d:__ZN5physx30setupFinalizeSolverConstraintsERNS_13PxcNpWorkUnitERKNS_2Gu13ContactBufferERKNS_20PxcCorrelationBufferERKNS_11PxTransformESB_bPhRKNS_13PxcSolverBodyESF_RKNS_17PxcSolverBodyDataESI_ffffff
fPk:__ZN14dense_hash_mapI10KeyWrapperIP14Il2CppIUnknownEjN6il2cpp5utils11PointerHashIS1_EENS3_14EqualsComparerINSt3__28equal_toIS2_EEEENS9_9allocatorINS9_4pairIKS3_jEEEEE15set_deleted_keyERSF_
iga:__ZN22BuiltinResourceManager16StaticInitializeEPv
Mw:__ZN7mecanim4hand8HandPose8TransferI19StreamedBinaryWriteILb0EEEEvRT_
Yjd:__ZN5physx7NpScene17releaseBatchQueryEPNS_12PxBatchQueryE
dLk:__ZN6il2cpp2gc9AllocatorIP12Il2CppThreadE10deallocateEPvj
HBd:__ZN5physx20NpRigidActorTemplateINS_13PxRigidStaticEE11attachShapeERNS_7PxShapeE
iHk:__ZN13Il2CppHashMapIPK14Il2CppAssemblyPK22Il2CppMonoAssemblyNameN6il2cpp5utils11PointerHashIS1_EENSt3__28equal_toIS2_EENSA_9allocatorINSA_4pairIK10KeyWrapperIS2_ES5_EEEEEC2EjRKS9_RKSC_
a2d:__ZN5physx26solveVBlockDefaultFrictionEPNS_13PxsSolverCoreEfjjPNS_13PxcSolverBodyEPNS_17PxcSolverBodyDataEjjPNS_25PxcArticulationSolverDescEjPNS_23PxcSolverConstraintDescEjS9_jRNS_6shdfnd5ArrayINS_24PxsConstraintBatchHeaderENSA_19ReflectionAllocatorISC_EEEESG_PNS_2Cm13SpatialVectorEPNS_25PxcThresholdStreamElementEjRj
R6g:_DelegatePInvokeWrapper_AppDomainInitializer_t682969308
mid:__ZN5physx15NpActorTemplateINS_18PxArticulationLinkEE17resolveReferencesERNS_24PxDeserializationContextE
rt:__ZN14AnimationEvent8TransferI14SafeBinaryReadEEvRT_
Xea:__ZN8Remapper6RemoveEi
b6j:_UnityEvent_1__ctor_m3777630589_gshared
ELd:__ZN5physx19NpRigidBodyTemplateINS_18PxArticulationLinkEE9visualizeERNS_2Cm12RenderOutputEPNS_7NpSceneE
POl:__ZL75Object_t631007953_CustomAttributesCacheGenerator_Object_ToString_m426284353P21CustomAttributesCache
iTd:__ZN5physx11writeBack1DERKNS_23PxcSolverConstraintDescERNS_16PxcSolverContextERNS_17PxcSolverBodyDataES6_
nvi:_Encoding_GetBytes_m3148649984
Zse:__ZL36CleanupTextRenderingScriptingClassesv
WQc:__ZThn4_N16RayRTreeCallbackILi0ELb0EED0Ev
pgb:__ZN15ReflectionProbe17UseRendererResultEP13ProbeRenderer
Lvc:__Z34Mesh_CUSTOM_SetArrayForChannelImplP12Il2CppObject30InternalScriptingShaderChannel34InternalScriptingVertexChannelTypeiP11Il2CppArrayi
WFi:_UInt64_System_IConvertible_ToDecimal_m806594027_AdjustorThunk
Wyh:_Enumerator_System_Collections_IEnumerator_get_Current_m361750367_AdjustorThunk
aAh:_Enumerator_get_CurrentValue_m3103267885_gshared
_tg:_List_1__ctor_m3395838871_gshared
o6f:_CultureInfo_get_Parent_m672689885
wKd:__ZNK5physx2Sc5Scene20getNbParticleSystemsEv
cOh:_DefaultComparer_GetHashCode_m2651362016_gshared
rYj:_PKCS12__ctor_m1854440921
t1f:_Array_Resize_TisCustomAttributeNamedArgument_t287865710_m885566878_gshared
IMh:_DefaultComparer__ctor_m2556554241_gshared
Ocm:_Rect_Equals_m866904981_AdjustorThunk
VM:__ZN11UnityEngine9Animation28GenericAnimationBindingCache25RegisterIAnimationBindingEPKN5Unity4TypeEiP17IAnimationBinding
dOd:__ZN5physx2Gu17GetGeomSweepFuncsEv
gJg:_Collection_1_CheckWritable_m2483216692_gshared
V7c:__ZN5physx6shdfnd8PoolBaseINS_15PxsArticulationENS0_16AlignedAllocatorILj64ENS0_9AllocatorEEEE17releaseEmptySlabsEv
mgg:_DirectoryInfo__ctor_m481305441
Msm:dynCall_viiffiii
QIi:_X509ExtensionCollection_get_SyncRoot_m2667861032
T2h:__Z65RuntimeInvoker_PlayState_t2537166562_PlayableHandleU26_t645981773PFvvEPK10MethodInfoPvPS4_
z4h:__Z104RuntimeInvoker_Boolean_t97287965_PlayableGraphU26_t1008945275_RuntimeObject_PlayableHandleU26_t645981773PFvvEPK10MethodInfoPvPS4_
mvd:__ZN5physx22NpParticleBaseTemplateINS_15PxParticleFluidENS_15NpParticleFluidEE23setParticleReadDataFlagENS_22PxParticleReadDataFlag4EnumEb
lLg:_Collection_1_SetItem_m941095285_gshared
GKe:__ZN14UnityAnalytics25UnregisterGlobalCallbacksEv
qeb:__Z40ProcessCameraIndexListIsNodeVisibleInOutRK22SceneCullingParametersPK9SceneNodePK4AABBR9IndexList
iub:__ZN16GraphicsSettings8TransferI17RemapPPtrTransferEEvRT_
zZi:_U3CU3Ec__DisplayClass1f_U3CvalidateSecWebSocketProtocolServerHeaderU3Eb__1e_m266596900
eHe:__ZN2UI6Canvas13UpdateBatchesEb
fAg:_List_1_AddCollection_m2705322374_gshared
ND:__ZNK23AnimationPlayableOutput11DerivesFromE17ScriptingClassPtr
$yb:__ZN7Texture19SupportsAsyncUploadI19StreamedBinaryWriteILb0EEEEbRT_
Z7h:__Z49RuntimeInvoker_Boolean_t97287965_Rect_t2360479859PFvvEPK10MethodInfoPvPS4_
rxm:_glGetShaderInfoLog__wrapper
hJh:_Dictionary_2_GetObjectData_m2556964510_gshared
Cbj:_CustomEventData_t317522481_marshal_pinvoke
Qod:__ZN5physx2Gu5Debug9visualizeERKNS_13PxBoxGeometryERNS_2Cm12RenderOutputERKNS5_8Matrix34ERKNS_9PxBounds3Eyfj
XYh:__Z51RuntimeInvoker_UInt32_t2560061978_Int16_t2552820387PFvvEPK10MethodInfoPvPS4_
XIa:__ZNK13GfxDeviceGLES12GetWireframeEv
n5j:_DelegatePInvokeWrapper_Action_t1264377477
zgj:_AnimatorControllerPlayable_INTERNAL_CALL_GetLayerWeightInternal_m1307030297
nBf:_Queue_get_Count_m2065247734
rPc:__ZN5physx6shdfnd5ArrayIPKvNS0_19ReflectionAllocatorIS3_EEE6resizeEjRKS3_
iOe:__ZN11UnityEngine7Connect13ConfigHandler12GetListenersERKN4core12basic_stringIcNS2_20StringStorageDefaultIcEEEE
oKa:__ZN9GfxDevice18AllocRenderSurfaceEb
muf:_Char__cctor_m2787437263
udj:_AnimationLayerMixerPlayable_INTERNAL_CALL_IsLayerAdditiveInternal_m3782915224
P2d:__ZN5physx31setupFinalizeSolverConstraints4EPNS_21PxcSolverContact4DescERNS_18PxcNpThreadContextEPhffRKNS_6shdfnd3aos5Vec4VES9_S9_S9_
xGd:__ZN5physx7NpScene5flushEb
bac:__ZN10TagManager32GetSortingLayerUniqueIDFromValueEi
abf:_AspectRatioFitter_get_rectTransform_m2996235303
laa:__ZL27CleanupCoreScriptingClassesv
Y6f:_DateTimeFormatInfo_get_IsReadOnly_m1173781646
q9f:_NumberFormatInfo_get_PercentPositivePattern_m1800841633
Oef:_Graphic_UnregisterDirtyMaterialCallback_m2707090617
jAh:_Enumerator_VerifyCurrent_m3071620407_AdjustorThunk
gQj:_ArraySegment_1_GetHashCode_m3394884290_AdjustorThunk
j_c:__ZThn8_N5physx3Cct17CapsuleController15getPxControllerEv
Cxh:_Comparer_1_System_Collections_IComparer_Compare_m1313384821_gshared
Eof:_LayoutRebuilder_GetHashCode_m1943075341
k_g:_SimpleCollator_MatchesPrimitive_m3079388596
Avc:__Z26AnimationCurve_CUSTOM_InitP12Il2CppObjectP11Il2CppArray
gBm:_glUniform1uiv__wrapper
VGk:__ZN6il2cpp2vm10Reflection7IsEventEP12Il2CppObject
H6k:__ZNSt3__26__treeINS_12__value_typeIPFvvEPK10MethodInfoEENS_19__map_value_compareIS3_S7_NS_4lessIS3_EELb1EEENS_9allocatorIS7_EEE16__insert_node_atEPNS_16__tree_node_baseIPvEERSI_SI_
sba:__ZN17PersistentManager26GetStreamNameSpaceInternalEi
$al:_GUIContent__cctor_m2576151643
wS:__ZN4FMOD6System11createSoundEPKcjP22FMOD_CREATESOUNDEXINFOPPNS_5SoundE
_o:FUNCTION_TABLE_iiifiiii
j_f:_Array_InternalArray__ICollection_CopyTo_TisRaycastHit_t1056001966_m1648691138_gshared
qIf:_DateTime_System_IConvertible_ToDecimal_m1044850612
Gtg:_List_1_IndexOf_m2206067159_gshared
gJi:_X509Store_get_Factory_m3282910266
ije:__ZThn128_N5physx7profile8ZoneImplINS_28PxProfileNameProviderForwardEED1Ev
U8:__ZN9ShaderLab19CommonPropertyNames13StaticCleanupEPv
o$i:_Module_IsResource_m553227372
Aca:__Z31scripting_method_get_returntype18ScriptingMethodPtr
tPd:__ZN5physx2Sq17AABBTreeUpdateMap10invalidateEjjRNS0_8AABBTreeE
jik:__ZL24UnresolvedVirtualCall_76P12Il2CppObjectPK10MethodInfo
$Ab:__ZN15SerializeTraitsI12LightmapDataE8TransferI24GenerateTypeTreeTransferEEvRS0_RT_
c2d:__ZN5physx28solveParallelDefaultFrictionERNS_18PxsDynamicsContextEjjPNS_13PxcSolverBodyEPNS_17PxcSolverBodyDataEjjPNS_25PxcArticulationSolverDescEjPNS_23PxcSolverConstraintDescEjS9_jPiSA_SA_SA_SA_SA_PNS_25PxcThresholdStreamElementEjSA_PNS_2Cm13SpatialVectorEPKPNS_11PxsBodyCoreERNSD_10BitMapBaseINS_6shdfnd9AllocatorEEEPKPNS_15PxsArticulationEjPViRNSL_5ArrayINS_24PxsConstraintBatchHeaderENSL_19ReflectionAllocatorISW_EEEES10_RNSV_IjNSX_IjEEEES13_PPNS_12PxsRigidBodyEj
AVl:__ZL84Canvas_t3310196443_CustomAttributesCacheGenerator_Canvas_get_worldCamera_m2289553767P21CustomAttributesCache
$lc:__ZN4Mesh5SetUvEiPKfjj
kCa:__ZN7Texture13SetAnisoLimitENS_20AnisotropicFilteringE
ECa:__ZN28LightProbeProxyVolumeManager25UpdateSHCoeffsTextureDataER21LightProbeProxyVolume
fYa:__Z18CreateDecompressor15CompressionType18MemLabelIdentifier
W_:__ZN11AudioModule16SetListenerPauseEb
ial:_GUI_PasswordField_m1705767720
hrf:_Attribute_IsDefined_m4069052474
wi:_emscripten_glCompressedTexSubImage2D
ASa:__ZN13GfxDeviceGLES22MemoryBarrierImmediateEyN2gl17MemoryBarrierTypeE
Ska:__ZZN18SpriteAtlasManagerC1EvEN46EarlyUpdateSpriteAtlasManagerUpdateRegistrator7ForwardEv
GRl:__ZL93MeshCollider_t903564387_CustomAttributesCacheGenerator_MeshCollider_get_skinWidth_m1498286668P21CustomAttributesCache
tm:_abort
lnf:_U3CCaretBlinkU3Ec__Iterator0_Dispose_m860898205
Hza:__ZN6prcoreL26RemapGenericFloatToIntegerI18TexFormatARGBFloat17TexFormatARGB8888EEvPKNS_9InnerInfoE
CCg:_List_1_set_Capacity_m1977188119_gshared
oZk:__ZN6il2cpp6icalls8mscorlib6System10Reflection9MonoField16GetValueInternalEP21Il2CppReflectionFieldP12Il2CppObject
Mlc:__Z46GetShaderModelNumericValueFromRequirementsMask18ShaderRequirements
Pxi:_UTF7Encoding_InternalGetBytes_m797138468
Eac:__ZN6Object27GetOffsetOfInstanceIdMemberEv
VBe:_cff_ps_has_glyph_names
Ice:__ZN5physx15writeWordBufferEPKtjbRNS_14PxOutputStreamE
Vil:_MonoBehaviour_StopCoroutine_m1038915083
yLh:_Dictionary_2_Resize_m3287623642_gshared
_$k:_GC_write
Dpl:__ZL69RuntimeArray_CustomAttributesCacheGenerator_Array_SetValue_m394135409P21CustomAttributesCache
JVe:_RC2_Create_m2516417038
tJl:__ZL95AsyncOperation_t1445031843_CustomAttributesCacheGenerator_AsyncOperation_get_isDone_m2309912918P21CustomAttributesCache
Nhf:_Graphic_OnPopulateMesh_m767318148
aVe:_HMACSHA512_set_ProduceLegacyHmacValues_m3961135292
sIh:_Dictionary_2_Remove_m4193450060_gshared
kog:_MulticastDelegate_GetObjectData_m3957553424
iki:_ConstructionCallDictionary__ctor_m2541174073
Jmi:_RemotingServices_IsTransparentProxy_m1535738947
n0f:_Array_InternalArray__set_Item_TisMark_t3471605523_m1299772331_gshared
wFc:__Z44Register_UnityEngine_GUIStyle_SetDefaultFontv
zWk:__GLOBAL__sub_I_ThreadImpl_cpp
VZb:__Z18Transfer_BlittableI18StreamedBinaryReadILb1EELb1EiEvRK29SerializationCommandArgumentsR31RuntimeSerializationCommandInfo
EF:__ZN9BlobWrite8TransferI22OffsetPtrArrayTransferIKN4math7_float3EEEEvRT_PKc17TransferMetaFlags
EIb:__ZN16MeshSkinningData14GetBoneWeightsEi
lTh:__Z173RuntimeInvoker_Int32_t2950945753_RuntimeObject_Int32_t2950945753_Int32_t2950945753_Int32_t2950945753_RuntimeObject_Int32_t2950945753_SByte_t1669577662_ContextU26_t3937453398PFvvEPK10MethodInfoPvPS4_
Wvg:_List_1__ctor_m2576108087_gshared
KFk:__ZN15dense_hashtableINSt3__24pairIK10KeyWrapperINS1_IPK12PropertyInfoP11Il2CppClassEEEjEES9_17ReflectionMapHashIS8_EN14dense_hash_mapIS9_jSD_NS9_14EqualsComparerINS0_8equal_toIS8_EEEENS0_9allocatorISB_EEE9SelectKeyESI_SK_E12maybe_shrinkEv
I5c:__ZN5physx2Sc7BodySim37checkSleepReadinessBesidesWakeCounterEv
TYj:_X509Certificate_get_DSA_m565099499
o_b:__Z18Transfer_BlittableI18StreamedBinaryReadILb1EELb1EsEvRK29SerializationCommandArgumentsR31RuntimeSerializationCommandInfo
Pij:_AnimatorControllerParameter_Equals_m1144065427
Fwi:_StringBuilder_Remove_m940064945
xcl:_GUISkin_get_toggle_m2846139992
hui:_DESCryptoServiceProvider_GenerateIV_m683687014
k3j:_GenericComparer_1__ctor_m1900257738_gshared
dUl:__ZL132AnimatorControllerPlayable_t1015767841_CustomAttributesCacheGenerator_AnimatorControllerPlayable_Play_m3139199233____normalizedTime2P21CustomAttributesCache
fYl:__ZL86GUIStyle_t3956901511_CustomAttributesCacheGenerator_GUIStyle_get_fixedHeight_m39396328P21CustomAttributesCache
jWj:_Context_NotifyDynamicSinks_m1841702879
qCa:__ZL21SetAnisoLimitEnumImplN7Texture20AnisotropicFilteringEb
AMe:__ZN22BaseUnityConnectClient17OnEnterStateReadyEv
uyd:__ZNK5physx22NpParticleBaseTemplateINS_16PxParticleSystemENS_16NpParticleSystemEE15getMaxParticlesEv
aDi:_Type_GetTypeHandle_m1526957577
mjd:__ZN5physx2Sc16ArticulationCore14setWakeCounterEf
HDd:__ZN5physx2Sc10NPhaseCore24createTriggerInteractionERNS0_8ShapeSimES3_NS_7PxFlagsINS_10PxPairFlag4EnumEtEE
BBj:_Text_get_fontSize_m1677872538
ssg:_List_1_System_Collections_IList_get_Item_m995551621_gshared
iRl:__ZL107Collider_t1773347010_CustomAttributesCacheGenerator_Collider_INTERNAL_CALL_ClosestPointOnBounds_m4099497227P21CustomAttributesCache
rVi:_AuthenticationBase_CreateNonceValue_m3134043804
fIl:__ZL63X509ChainStatusFlags_t1026973125_CustomAttributesCacheGeneratorP21CustomAttributesCache
iFa:__ZN14GrowableBufferD2Ev
Uuc:__Z29Input_CUSTOM_GetMouseButtonUpi
ZRc:__ZN5physx2Gu12selectNormalEhff
byk:__ZN6il2cpp6icalls8mscorlib6System8MonoType16InternalGetEventEP20Il2CppReflectionTypeP12Il2CppStringi
uTi:_Ext_InternalToByteArray_m3502967914
ith:_Socket_EndSend_m1244041542
cSi:_UriScheme_t722425697_marshal_pinvoke_back
hTi:_CookieCollection_searchCookie_m382296377
Eve:_UNITY_tt_face_load_maxp
gDc:__Z39Register_UnityEngine_Event_Internal_Usev
dvc:__Z46Input_CUSTOM_INTERNAL_set_compositionCursorPosRK13Vector2fIcall
dy:__ZN7mecanim5human12FullBodyMaskEv
Wwd:__ZN5physx3Scb14ParticleSystem16releaseParticlesEjRKNS_16PxStrideIteratorIKjEE
s8l:__ZL62Shadow_t773074319_CustomAttributesCacheGenerator_m_EffectColorP21CustomAttributesCache
$_g:_BigInteger_ToString_m3475000413
s8:__ZN19ShaderPropertySheet11ComputeHashEv
Prk:__ZN30dense_hashtable_const_iteratorI10KeyWrapperIPK19Il2CppGenericMethodES4_N6il2cpp8metadata23Il2CppGenericMethodHashEN14dense_hash_setIS4_S7_NS4_14EqualsComparerINS6_26Il2CppGenericMethodCompareEEENSt3__29allocatorIS4_EEE8IdentityESB_SE_EppEv
GJd:__ZN5physx2Sc5Scene21processLostTouchPairsEv
i$b:__ZN4PPtrI6ObjectE8TransferI18StreamedBinaryReadILb1EEEEvRT_
eel:_GUIStyle_Draw_m3718413813
i3:__ZN11UnityEngine15CloudWebService20WebRequestRestClient6IsDoneEv
IPi:_Group__ctor_m2980794822
_Zj:_X509CertificateCollection_get_Item_m1033426577
sj:_llvm_fabs_f32
N2:__ZN11UnityEngine15CloudWebService16SessionContainer16GetJsonDataBlockEjRKN4core12basic_stringIcNS2_20StringStorageDefaultIcEEEERS6_PjSA_
anh:_DeflateStream_ReadZStream_m3405013189
skl:_Physics_Raycast_m1114390595
kge:__ZThn28_N14PhysicsManager7onSleepEPPN5physx7PxActorEj
$pi:_ObjectReader_RegisterObject_m1853376334
s0g:_ASN1_Decode_m1695284166
Et:__ZN7mecanim9animation18ClipMuscleConstant8TransferI14SafeBinaryReadEEvRT_
GHk:__ZN15dense_hashtableINSt3__24pairIK10KeyWrapperIPK14Il2CppAssemblyEPK22Il2CppMonoAssemblyNameEES6_N6il2cpp5utils11PointerHashIS4_EEN14dense_hash_mapIS6_SA_SF_NS6_14EqualsComparerINS0_8equal_toIS5_EEEENS0_9allocatorISB_EEE9SelectKeyESK_SM_E13set_empty_keyERKSB_
XXd:__ZN5physx22PxcContactConvexConvexERKNS_2Gu13GeometryUnionES3_RKNS_11PxTransformES6_RKfRNS_10PxcNpCacheERNS0_13ContactBufferE
AOf:_Enum_ToString_m3248653065
pRc:__ZNK5physx2Gu11ConvexHullV12HillClimbingERKNS_6shdfnd3aos5Vec3VE
ADd:__ZNK5physx2Sc17ParticleSystemSim7getCoreEv
ZCc:__Z40Register_UnityEngine_Event_set_modifiersv
Hba:__ZN14SafeBinaryReadD2Ev
jwh:_X509BasicConstraintsExtension_CopyFrom_m1931463033
Kwd:__ZN5physx2Sc18ParticleSystemCore10setDampingEf
tbc:__Z13RegisterClassI7TextureEvv
Upg:_Enumerator_MoveNext_m3859993671_gshared
C$b:__ZN8Gradient8TransferI18StreamedBinaryReadILb1EEEEvRT_
O8g:_SequentialSearchPrimeGeneratorBase_IsPrimeAcceptable_m1127740833
AJi:_Capture__ctor_m3103117740
b9l:__ZL76Ext_t2749166018_CustomAttributesCacheGenerator_Ext_ReadBytesAsync_m882924327P21CustomAttributesCache
Lij:_Animator_ResetTriggerString_m1083629800
Tml:_Quaternion_Dot_m3405174114
jSh:__Z113RuntimeInvoker_Void_t1185182177_RuntimeObject_Int64_t3736567304_RuntimeObject_Int64_t3736567304_Int64_t3736567304PFvvEPK10MethodInfoPvPS4_
s2c:__ZN5physx2Sc10NPhaseCore16deleteFilterPairEPNS0_10FilterPairE
gFc:__Z45Register_UnityEngine_GUIStyle_SetFontInternalv
Xnk:__ZN6il2cpp2vmL17SetupEventsLockedEP11Il2CppClassRKNS_2os12FastAutoLockE
rOk:__ZN6il2cpp6icalls8mscorlib6System4Type15MakeGenericTypeEP20Il2CppReflectionTypeP11Il2CppArray
N2b:__ZN6ShaderD2Ev
xmj:_Bounds_op_Equality_m3976187280
Tj:_SDL_PauseAudio
pAf:_Hashtable_Clone_m3078962909
aDc:__Z40Register_UnityEngine_Event_set_characterv
O_l:__ZL71ArgumentCache_t2187958399_CustomAttributesCacheGenerator_m_BoolArgumentP21CustomAttributesCache
GAk:__ZN6il2cpp2os4File11GetStdErrorEv
_Dl:__ZL77Convert_t2465617642_CustomAttributesCacheGenerator_Convert_ToSByte_m516918950P21CustomAttributesCache
s6c:__ZN5physx2Sc5Scene28addActiveBreakableConstraintEPNS0_13ConstraintSimE
T8:__ZN9ShaderLab19CommonPropertyNames16StaticInitializeEPv
Iul:__ZL51Assembly_t4102432799_CustomAttributesCacheGeneratorP21CustomAttributesCache
qld:__ZN5physx6shdfnd8PoolBaseINS_16NpParticleSystemENS0_19ReflectionAllocatorIS2_EEE15disposeElementsEv
SAa:__ZN13MemoryManager31DisallowAllocationsOnThisThreadEv
DH:__ZN7mecanim9animation18CreateAvatarOutputEPKNS0_14AvatarConstantEbbRNS_6memory9AllocatorE
Eje:__ZN5physx7profile11EventBufferINS_24PxDefaultContextProviderENS_6shdfnd6MutexTINS0_26WrapperReflectionAllocatorIhEEEENS0_14ScopedLockImplIS7_EENS_24PxProfileNullEventFilterEE10eventValueEtyx
JFc:__Z45GUIUtility_CUSTOM_Internal_GetKeyboardControlv
oAj:_Slider_set_maxValue_m2251404465
xZf:_Array_InternalArray__ICollection_CopyTo_TisKeyValuePair_2_t3699644050_m2735311972_gshared
qVc:__ZN5physx2Gu11getBoxEdgesEv
xLe:__ZN14UnityAnalytics15SendCustomEventERN11UnityEngine9Analytics15UserCustomEventE
XEb:__ZN14Texture2DArray23VirtualRedirectTransferER14SafeBinaryRead
mmg:_MissingMemberException__ctor_m1220732369
l9a:__ZNK6Camera21CalculateCanDoShadowsEv
fId:__ZNK5physx2Sc5Scene17getBroadPhaseCapsERNS_16PxBroadPhaseCapsE
E7h:__Z52RuntimeInvoker_Void_t1185182177_Int32U26_t1369213839PFvvEPK10MethodInfoPvPS4_
eid:__ZN5physx9NpFactory14onActorReleaseEPNS_7PxActorE
Uth:_Socket_Connect_m2387904622
oWk:__ZN6il2cpp2os6Thread12SetStackSizeEj
u8c:__ZN5physx2Sc5Actor15onElementAttachERNS0_7ElementE
Huj:_MaskableGraphic_RecalculateMasking_m183336762
n5f:_Array_InternalArray__get_Item_TisRuntimeObject_m3347010206_gshared
A6i:_TypeBuilder_IsSubclassOf_m3458909121
qmc:__ZNK8Renderer16IsVisibleInSceneEv
j0i:_Default_check_arguments_with_score_m3467814020
G7:__Z13VFormatBufferPciPKcz
vwd:__ZN5physx2Sc18ParticleSystemCore23setSimulationFilterDataERKNS_12PxFilterDataE
v0b:__Z18Transfer_BlittableI18StreamedBinaryReadILb0EELb1EhEvRK29SerializationCommandArgumentsR31RuntimeSerializationCommandInfo
AQg:_ReadOnlyCollection_1_CopyTo_m1885337237_gshared
VNl:__ZL99Sprite_t280657092_CustomAttributesCacheGenerator_Sprite_get_associatedAlphaSplitTexture_m3995405540P21CustomAttributesCache
dVh:__Z43RuntimeInvoker_MethodAttributes_t2366443849PFvvEPK10MethodInfoPvPS4_
Lza:__ZN6prcoreL27StretchGenericFloatBilinearI15TexFormatRFloatEEvPKNS_9InnerInfoE
nOd:__ZN5physx6shdfnd8internal8HashBaseINS0_4PairIKNS_2Sq13PrunerPayloadEjEES5_NS0_4HashIS5_EENS1_11HashMapBaseIS5_jS9_NS0_9AllocatorEE6GetKeyESB_Lb1EE15reserveInternalEj
LHl:__ZL139ServicePointManager_t170559685_CustomAttributesCacheGenerator_ServicePointManager_t170559685____CheckCertificateRevocationList_PropertyInfoP21CustomAttributesCache
Cdm:_RectTransform_get_pivot_m1676241928
MOf:_Enum_ToObject_m1628250250
JA:__Z24ProcessAnimationMixBeginP35AnimationPlayableEvaluationConstantP32AnimationPlayableEvaluationInputP33AnimationPlayableEvaluationOutput
JAg:_List_1_set_Item_m2057272351_gshared
Rhm:_TextEditor_SelectGraphicalLineEnd_m3753080165
JQa:__Z14PadImageBorderR14ImageReferenceii
nEk:__ZN15dense_hashtableINSt3__24pairIK10KeyWrapperINS1_IPK10MethodInfoP11Il2CppClassEEEjEES9_17ReflectionMapHashIS8_EN14dense_hash_mapIS9_jSD_NS9_14EqualsComparerINS0_8equal_toIS8_EEEENS0_9allocatorISB_EEE9SelectKeyESI_SK_E4findERSA_
Tuk:__ZN6il2cpp2vm13MetadataCache28GetFieldDefaultValueForFieldEPK9FieldInfo
IWf:_Array_IndexOf_TisUIVertex_t4057497605_m3336763564_gshared
p4f:_GameObject_GetComponents_TisRuntimeObject_m974145097_gshared
pB:__ZN27AnimationLayerMixerPlayableD2Ev
jdf:_ColorBlock_Equals_m518833916_AdjustorThunk
_Rd:__ZN5physx2Gu22gjkRelativePenetrationINS0_9TriangleVENS0_8CapsuleVEEEjRKT_RKT0_RKNS_6shdfnd3aos15PsMatTransformVERKNSB_6FloatVERNSB_5Vec3VESJ_SJ_RSF_PhSL_Rh
J5k:__ZN6il2cpp2os9FastMutexC2Ev
Zde:__ZN9Rigidbody14SetIsKinematicEb
khk:__ZL24UnresolvedVirtualCall_23P12Il2CppObjectS0_PK10MethodInfo
U_l:__ZL66PersistentCall_t3407714124_CustomAttributesCacheGenerator_m_TargetP21CustomAttributesCache
oU:__ZN12AudioManager39HandlePendingAudioConfigurationCallbackEv
VWi:_WebHeaderCollection_addWithoutCheckingName_m2693128774
Qk:_emscripten_glIsFramebuffer
B3g:_RSAManaged_EncryptValue_m799827583
Tic:__ZN12_GLOBAL__N_16qAtan2Eff
Une:__Z13RegisterClassI9RigidbodyEvv
pPh:__Z61RuntimeInvoker_UInt32_t2560061978_RuntimeObject_RuntimeObjectPFvvEPK10MethodInfoPvPS4_
gAi:_ThreadAbortException__ctor_m1955533141
Nal:_DelegatePInvokeWrapper_WindowFunction_t3146511083
Uk:_JS_Sound_SetLoopPoints
lY:__ZN12AudioManager17ShouldSourcePauseEb
p4k:__ZN6il2cpp2vm26MetadataAllocGenericMethodEv
VSf:_Array_InternalArray__ICollection_Remove_TisUInt16_t2177724958_m1766181761_gshared
$Ua:__ZN19ConstantBuffersGLES12RecordRenderEv
RNd:__ZN5physx13ActorAABBTaskD2Ev
K6j:_UnityEvent_1__ctor_m3675246889_gshared
IIc:__ZN9JSONWrite8TransferI10RectOffsetEEvRT_PKc17TransferMetaFlags
pQa:__ZN4crnd12symbol_codec11decode_bitsEj
Mci:__Z59RuntimeInvoker_Boolean_t97287965_KeyValuePair_2_t3842366416PFvvEPK10MethodInfoPvPS4_
Hah:_EncryptedPrivateKeyInfo__ctor_m3415744930
nAe:_cf2_doFlex
zvh:_AsnEncodedData__ctor_m3792312694
vem:_RectTransformUtility_GetTransposed_m440700723
y5j:_AesManaged_GenerateIV_m1368817386
cjc:__ZN21FixedBehaviourManagerD0Ev
lwb:__ZN10Matrix3x4f8TransferI24GenerateTypeTreeTransferEEvRT_
f7f:_NumberFormatter_FastIntegerToString_m390846811
sU:__ZN4FMOD6System12createReverbEPPNS_6ReverbE
cdj:_AnimationClipPlayable_GetRemoveStartOffset_m588862279_AdjustorThunk
vHk:__ZN15dense_hashtableINSt3__24pairIK10KeyWrapperIPK14Il2CppAssemblyEPK22Il2CppMonoAssemblyNameEES6_N6il2cpp5utils11PointerHashIS4_EEN14dense_hash_mapIS6_SA_SF_NS6_14EqualsComparerINS0_8equal_toIS5_EEEENS0_9allocatorISB_EEE9SelectKeyESK_SM_E8min_sizeEjj
cB:__ZN7mecanim19ValueArrayBlendNodeILb1EEEvRKNS_10ValueArrayERKNS_14ValueArrayMaskERS1_RS4_RNS_16ValueArrayWeightEf
pti:_CodeAccessPermission_GetHashCode_m880096813
UAa:__Z16MarkDependenciesR27GarbageCollectorThreadStatej
r$i:_AssemblyConfigurationAttribute__ctor_m3236176989
dPl:__ZL118PlayableHandle_t1095853803_CustomAttributesCacheGenerator_PlayableHandle_INTERNAL_CALL_SetDurationInternal_m3493944037P21CustomAttributesCache
rmm:_Vector4_ToString_m592115335
u8j:_ObjectPool_1_get_countInactive_m526975942_gshared
Vgj:_AnimatorControllerPlayable_GetCurrentAnimatorClipInfo_m3502914800_AdjustorThunk
Nni:_RemotingServices_DisposeIdentity_m2605848806
P8:__ZNK9Transform11GetPositionEv
Xkd:__ZN5physx12NpConstraint8requiresERNS_23PxProcessPxBaseCallbackE
Tim:_TextGenerator_Dispose_cpp_m3030344874
qag:_GuidParser_Reset_m2640004655
c4a:__ZN23SharedMeshRenderingData18UnloadVertexStreamEi
j$c:__ZN5physx3Cct13HandleManager3AddEPv
Bjc:__ZN31CanvasBatchIntermediateRenderer11AddSubBatchERK16DrawBuffersRangePK19ShaderPropertySheet
poj:_CanvasRenderer_SplitUIVertexStreams_m1311515332
aic:__ZN19RenderEventsContextC2Ei
W0:__Z6simd4fRKf
pPl:__ZL67SceneManager_t2787271929_CustomAttributesCacheGenerator_sceneLoadedP21CustomAttributesCache
U8f:_GregorianCalendar_GetEra_m2369958449
osi:_RuntimeTypeHandle_GetObjectData_m1599302095_AdjustorThunk
vl:_emscripten_glEnable
jJj:_InternalEnumerator_1_System_Collections_IEnumerator_get_Current_m2982675020_gshared
trb:__ZN10TagManager23VirtualRedirectTransferER14SafeBinaryRead
OLh:_Dictionary_2__ctor_m3116033572_gshared
g7d:__ZNK5physx2Sc15ClothFabricCore9getNbSetsEv
aem:_Transform_get_parent_m1293647796
Akm:_Transform_IsChildOf_m98488483
_ue:_UNITY_FT_Init_Class_ft_grays_raster
yOg:_Collection_1_System_Collections_IList_get_Item_m2931804586_gshared
uni:_ObjRef_get_EnvoyInfo_m1782007847
fwg:_List_1_System_Collections_ICollection_get_IsSynchronized_m3331050698_gshared
ecb:__Z15InitLightMeshesv
fVi:_Logger_Trace_m4193363400
l8i:_MonoCMethod_ToString_m3992577062
Btj:_LayoutUtility_GetLayoutProperty_m714717302
mHd:__ZNK5physx7NpScene26getNbContactDataBlocksUsedEv
to:FUNCTION_TABLE_iifiii
VWc:__ZN5physx2Gu29computeCapsule_HeightFieldMTDERKNS_21PxHeightFieldGeometryERKNS_11PxTransformERNS0_8CapsuleVEffbjRNS_10PxSweepHitE
snk:__ZNK15dense_hashtableINSt3__24pairIK10KeyWrapperIPK22Il2CppGenericParameterEP11Il2CppClassEES6_N6il2cpp5utils11PointerHashIS4_EEN14dense_hash_mapIS6_S9_SE_NS6_14EqualsComparerINS0_8equal_toIS5_EEEENS0_9allocatorISA_EEE9SelectKeyESJ_SL_E10test_emptyEj
LCd:__ZNK5physx2Cm12DelegateTaskINS_7NpSceneEXadL_ZNS2_14executeCollideEPNS_10PxBaseTaskEEEE7getNameEv
z8d:__ZN5physx2Gu11HeightField15exportExtraDataERNS_22PxSerializationContextE
ywb:__Z13TransferArrayILi4Ei19StreamedBinaryWriteILb0EEEjRAT__T0_PKcRT1_
oVg:_ReadOnlyCollection_1_System_Collections_IList_Contains_m2904046095_gshared
J2a:__ZN22RenderingCommandBuffer36AcquireAndRegisterSharedMaterialDataEP8Material
hXl:__ZL56GUISkin_t1244372282_CustomAttributesCacheGenerator_m_boxP21CustomAttributesCache
DWj:_ContextCallbackObject_DoCallBack_m3942380501
qYb:__Z18Transfer_BlittableI19StreamedBinaryWriteILb0EELb1E8Vector2fEvRK29SerializationCommandArgumentsR31RuntimeSerializationCommandInfo
Vze:_cf2_arrstack_init
u5f:_Array_InternalArray__get_Item_TisResourceCacheItem_t51292791_m1306056717_gshared
q6h:__Z157RuntimeInvoker_Void_t1185182177_RuntimeObject_RuntimeObject_RuntimeObject_RuntimeObject_RuntimeObject_RuntimeObject_RuntimeObject_RuntimeObject_RuntimeObjectPFvvEPK10MethodInfoPvPS4_
r6e:_EventSystem_get_pixelDragThreshold_m1103650852
s7:__Z15CleanLogHandler7LogTypePKcz
Sog:_NumberFormatter_NumberToString_m2481532188
v6b:__ZN9ShaderLab19SerializedSubShader8TransferI19StreamedBinaryWriteILb0EEEEvRT_
rnd:__ZN5physx10NpMaterialC2ERKNS_2Sc12MaterialCoreE
qyj:_ScrollRect_InternalGetBounds_m599803667
S_d:__ZN5physx9PxTaskMgr10resolveRowEjb
_Ob:__ZN6Camera17RemoveImageFilterERK11ImageFilter
YRa:__ZNSt3__218__insertion_sort_3IR25ValueParameterArraySorterPN20GpuProgramParameters14ValueParameterEEEvT0_S6_T_
pUf:_Array_InternalArray__IEnumerable_GetEnumerator_TisArraySegment_1_t283560987_m944220375_gshared
kzf:_Comparer__cctor_m3311686689
YHe:__ZZN2UI11CanvasGroup15InitializeClassEvEN38FunctorImpl_117kTransformParentChanged4CallEPviR11MessageData
Laf:_UIBehaviour_OnDidApplyAnimationProperties_m2143584361
K3a:__ZNSt3__214__split_bufferI20ComputeShaderVariantRNS_9allocatorIS1_EEED2Ev
zde:__ZN8Collider12GetIsTriggerEv
nqe:__ZNSt3__26vectorIN4core12basic_stringIcNS1_20StringStorageDefaultIcEEEE13stl_allocatorIS5_L18MemLabelIdentifier34ELi16EEE7reserveEj
Uoh:_HttpWebRequest_get_Address_m2672661563
iCi:_TimeZone__ctor_m1831364098
hej:_AnimationOffsetPlayable_SetPosition_m2047692231_AdjustorThunk
NIj:_InternalEnumerator_1_get_Current_m3500427238_AdjustorThunk
MHe:__ZN2UI26InitializeDeviceForOverlayEi
C6d:__ZNK5physx13NpClothFabric13getRestvaluesEPfj
ldj:_AnimationLayerMixerPlayable_CreateHandleInternal_m3441483873
i9:__Z27LogRepeatingStringWithFlagsRKN4core12basic_stringIcNS_20StringStorageDefaultIcEEEE15LogMessageFlagsi
kUc:__ZN5physx2Gu16_gjkLocalRayCastINS0_9TriangleVENS0_11ConvexHullVEEEbRT_RT0_RKNS_6shdfnd3aos6FloatVERKNS9_5Vec3VESF_RSA_RSD_SH_f
NOf:_Enum_IsDefined_m1442314461
AKg:_Collection_1_set_Item_m3756018377_gshared
Ey:__ZN17AnimationPlayable28ComputeNeedsBindingRebuildedEv
rjl:_U3CInvokeMessageIdSubscribersU3Ec__AnonStorey0_U3CU3Em__0_m1890366417
D6c:__ZN5physx6shdfnd8PoolBaseINS_2Cm5BlockIPvLj32EEENS0_19ReflectionAllocatorIS5_EEE17releaseEmptySlabsEv
G0i:_CustomAttributeNamedArgument_GetHashCode_m2317130892
r6l:__ZL66Slider_t3903728902_CustomAttributesCacheGenerator_m_OnValueChangedP21CustomAttributesCache
dUd:__ZN5physx23PxsBroadPhaseContextSap21batchUpdateFewUpdatesEjRPNS_17PxcBroadPhasePairERjS4_
uui:_DecoderReplacementFallbackBuffer_Fallback_m1261056214
Cal:_GUILayoutUtility_LayoutSingleGroup_m1507249238
AXc:__ZN5physx3Cct17getSceneTimestampEPKNS0_30InternalCBData_FindTouchedGeomE
MMb:__ZN15ResourceManagerD0Ev
U$i:_Binder_get_DefaultBinder_m950908649
Fgg:_StreamReader__ctor_m1616861391
RCl:__ZL59ArgumentException_t132251570_CustomAttributesCacheGeneratorP21CustomAttributesCache
xPe:__ZN18UnityConnectClient33OnPlayerSessionStateChangedStaticEPS_jyy
hO:__ZN25RuntimeAnimatorController12CleanupClassEv
jXe:_RSA_ToXmlString_m2922661427
S3:__ZNK11UnityEngine15CloudWebService23WebRequestUploadHandler11GetProgressEv
HNa:__ZN7ApiGLES4LoadE16GfxDeviceLevelGL
mBb:__ZN18StreamedBinaryReadILb0EE21TransferSTLStyleArrayI13dynamic_arrayI31EnlightenSystemAtlasInformationLj8EEEEvRT_17TransferMetaFlags
HZl:__ZL140AttributeHelperEngine_t2735742303_CustomAttributesCacheGenerator_AttributeHelperEngine_GetParentTypeDisallowingMultipleInclusion_m3140293344P21CustomAttributesCache
Hrk:__ZN15dense_hashtableI10KeyWrapperIPK19Il2CppGenericMethodES4_N6il2cpp8metadata23Il2CppGenericMethodHashEN14dense_hash_setIS4_S7_NS4_14EqualsComparerINS6_26Il2CppGenericMethodCompareEEENSt3__29allocatorIS4_EEE8IdentityESB_SE_E16reset_thresholdsEv
Amd:__ZN5physx9NpPhysics15createAggregateEjb
VWl:__ZL61GUIContent_t3050628031_CustomAttributesCacheGenerator_m_ImageP21CustomAttributesCache
D0c:__ZN5physx15PxErrorCallbackD2Ev
fSk:__ZN15dense_hashtableI10KeyWrapperIP18Il2CppGenericClassES3_N6il2cpp8metadata22Il2CppGenericClassHashEN14dense_hash_setIS3_S6_NS3_14EqualsComparerINS5_25Il2CppGenericClassCompareEEENSt3__29allocatorIS3_EEE8IdentityESA_SD_E15insert_noresizeERKS3_
ygc:__ZZL31RegisterOtherRendererPropertiesR22GenericPropertyBindingEN30Wrapper_RendererReceiveShadows13GetFloatValueEPv
Lge:__ZN9Rigidbody5ResetEv
qRf:_Array_InternalArray__ICollection_Contains_TisSlot_t384495010_m688761886_gshared
Crm:__ZNK10__cxxabiv121__vmi_class_type_info16search_below_dstEPNS_19__dynamic_cast_infoEPKvib
Gpa:__ZN8Material11SetPassFastEPN9ShaderLab4PassER17ShaderPassContextP6Shaderib
H4j:_HashSet_1_Resize_m2067174885_gshared
hkb:__ZNK13ScreenManager13GetLockCursorEv
vPe:__ZN11UnityEngine7Connect20BasePersistentValues10SaveValuesER9JSONWrite
aMg:_Collection_1_IsFixedSize_m3748602684_gshared
sIf:_DateTime_System_IConvertible_ToDouble_m2116720007
iTh:__Z114RuntimeInvoker_Int32_t2950945753_RuntimeObject_RuntimeObject_Int32_t2950945753_Int32_t2950945753_Int32_t2950945753PFvvEPK10MethodInfoPvPS4_
ZQ:__Z93Register_UnityEngine_Animations_AnimatorControllerPlayable_INTERNAL_CALL_GetLayerNameInternalv
O4g:_X509Certificate_PEM_m1177570576
c8f:_NumberFormatter_AppendExponent_m1258666517
QDj:_ArrayReadOnlyList_1_GetEnumerator_m1835926958_gshared
J_d:__ZN5physx9PxTaskMgr12addReferenceEj
Yml:_Quaternion_Equals_m1217639185_AdjustorThunk
g6a:__Z12SetupLODFadeR9GfxDeviceR17ShaderPassContextf
Xxb:__ZNK14PlayableOutput7GetTypeEv
Oql:__ZL69Type_t_CustomAttributesCacheGenerator_Type_GetConstructors_m576905011P21CustomAttributesCache
Zkk:__ZL25UnresolvedVirtualCall_226P12Il2CppObjecti39CustomAttributeNamedArgument_t287865710PK10MethodInfo
Tbb:__ZL24CollectForwardObjectsJobP27CollectForwardObjectsHeader
GBg:_List_1_get_Item_m1378751541_gshared
Lfb:__ZNK25CameraStackRenderingState24ResolveTempToEyeTexturesEv
Odb:__Z13IsNodeVisibleRK9SceneNodeRK4AABBRK22SceneCullingParameters
nXf:_Array_InternalArray__IndexOf_TisLabelFixup_t858502054_m1491765395_gshared
vSh:__Z44RuntimeInvoker_RuntimeTypeHandle_t3027515415PFvvEPK10MethodInfoPvPS4_
Kgh:_TlsServerSettings_set_CertificateRequest_m1039729760
OZg:_SortKeyBuffer_AppendCJKExtension_m2591091991
N2h:__Z36RuntimeInvoker_HideFlags_t4250555765PFvvEPK10MethodInfoPvPS4_
IJe:__Z57RectTransformUtility_CUSTOM_INTERNAL_CALL_PixelAdjustRectP12Il2CppObjectS0_R5RectTIfE
KDg:_Enumerator_Dispose_m2419537076_AdjustorThunk
UNl:__ZL79Sprite_t280657092_CustomAttributesCacheGenerator_Sprite_get_texture_m1577173763P21CustomAttributesCache
nDm:_emscripten_glStencilMask__wrapper
RQh:__Z49RuntimeInvoker_Void_t1185182177_Double_t594665363PFvvEPK10MethodInfoPvPS4_
Frk:__ZN15dense_hashtableI10KeyWrapperIPK19Il2CppGenericMethodES4_N6il2cpp8metadata23Il2CppGenericMethodHashEN14dense_hash_setIS4_S7_NS4_14EqualsComparerINS6_26Il2CppGenericMethodCompareEEENSt3__29allocatorIS4_EEE8IdentityESB_SE_EC2ERKSH_j
dtk:__ZN15dense_hashtableINSt3__24pairIK10KeyWrapperIN6il2cpp5utils13dynamic_arrayIPK10Il2CppTypeLj4EEEEPFvvEEESA_NS3_8metadata19Il2CppSignatureHashEN14dense_hash_mapISA_SD_SG_NSA_14EqualsComparerINSF_22Il2CppSignatureCompareEEENS0_9allocatorISE_EEE9SelectKeyESK_SM_EC2EjRKSG_RKSK_RKSO_
qnh:_WriteMethod_EndInvoke_m1603343818
k2a:__ZN15RenderNodeQueue7CleanupEv
rUf:_Array_InternalArray__IEnumerable_GetEnumerator_TisByte_t1134296376_m1979205379_gshared
M_a:__ZNK17ArchiveFileSystem8PositionERK13FileEntryData
B0c:__ZN16NovodexAllocator8allocateEjPKcS1_i
rbb:__Z17PrepareShadowMapsRK11CullResultsRK11ActiveLightRK10MinMaxAABB
FYj:_DeriveBytes_DeriveIV_m973925711
Ecg:_Int32_System_IConvertible_ToSByte_m3133688512
AXi:_PayloadData_System_Collections_IEnumerable_GetEnumerator_m1094298891
ahk:__ZL24UnresolvedVirtualCall_13P12Il2CppObjectaPK10MethodInfo
pVg:_ReadOnlyCollection_1_System_Collections_IList_IndexOf_m848971554_gshared
Pzl:__ZL52HMACSHA512_t923916539_CustomAttributesCacheGeneratorP21CustomAttributesCache
Qbb:__ZN9ShaderLab10GrabPassesD2Ev
zyj:_ScrollRect_CalculateOffset_m927043599
gFb:__ZN14Texture2DArray13UploadTextureEv
ruj:_MaskableGraphic_UpdateCull_m2805101913
mxe:_tt_cmap14_done
LBa:__ZN18AwakeFromLoadQueue25RegisterObjectInstanceIDsEv
dde:__ZN5physx21PxProfileNameProviderD2Ev
Ckf:_InputField_UpdateLabel_m1837760870
lQj:_ArraySegment_1_Equals_m3304116411_gshared
M9e:_StandaloneInputModule_set_forceModuleActive_m2237222402
uB:__ZNK27AnimationLayerMixerPlayable11DerivesFromE17ScriptingClassPtr
hre:__ZN20TextRenderingPrivate19NativeTextGenerator15InsertCharacterEiPj
ZHd:__ZN5physx2Sc5Scene22removeBroadPhaseRegionEj
LTh:__Z77RuntimeInvoker_Void_t1185182177_RuntimeObject_SByte_t1669577662_RuntimeObjectPFvvEPK10MethodInfoPvPS4_
Eyd:__ZN5physx16NpParticleSystem23setParticleReadDataFlagENS_22PxParticleReadDataFlag4EnumEb
B$c:__ZN5physx2Cm12RenderBuffer5clearEv
gyh:_Enumerator_get_CurrentValue_m3438280969_gshared
WTl:__ZL137AnimatorControllerPlayable_t1015767841_CustomAttributesCacheGenerator_AnimatorControllerPlayable_PlayInFixedTime_m411307614____fixedTime2P21CustomAttributesCache
Ltd:__ZNK5physx2Sc9ClothCore21getStiffnessFrequencyEv
ong:_MonoType_get_attributes_m1332507727
dyg:_List_1_System_Collections_IList_get_IsFixedSize_m203251153_gshared
oQd:__ZN5physx13PxsCCDContext14postCCDAdvanceEPNS_10PxBaseTaskE
mB:__ZN17AnimationPlayableD0Ev
cZb:__Z18Transfer_BlittableI19StreamedBinaryWriteILb0EELb0EyEvRK29SerializationCommandArgumentsR31RuntimeSerializationCommandInfo
Gpi:_BinaryCommon__cctor_m2978407547
$Rj:_ResourceInfo_t2872965302_marshal_pinvoke_back
suf:_Char_System_IConvertible_ToByte_m2347554595
ZUg:_ReadOnlyCollection_1_GetEnumerator_m1017886827_gshared
fHh:_Dictionary_2_System_Collections_Generic_ICollectionU3CSystem_Collections_Generic_KeyValuePairU3CTKeyU2CTValueU3EU3E_Contains_m2599845875_gshared
Prl:__ZL47ASN1_t2114160832_CustomAttributesCacheGeneratorP21CustomAttributesCache
QOk:__ZN6il2cpp6icalls8mscorlib6System2IO6MonoIO20GetFileSystemEntriesEP12Il2CppStringS6_iiPi
c7j:_IndexedSet_1__ctor_m2250384602_gshared
p$j:_DefaultComparer__ctor_m1306123661_gshared
JEi:_UInt16_TryParse_m4139137016
twc:__Z41MonoBehaviour_Set_Custom_PropUseGUILayoutP12Il2CppObjecth
dWk:__ZN6il2cpp5utils13dynamic_arrayIPNS_2os6ThreadELj4EE9push_backEv
bse:_UNITY_FT_Open_Face
V1l:__ZL102PointerEventData_t3807901092_CustomAttributesCacheGenerator_PointerEventData_get_clickTime_m3061953952P21CustomAttributesCache
jWl:__ZL100CanvasRenderer_t2598313366_CustomAttributesCacheGenerator_CanvasRenderer_SetAlphaTexture_m2691085254P21CustomAttributesCache
avi:_Encoding__ctor_m2997749867
eQi:_ExpressionAssertion_Compile_m2166597834
A2b:__ZN16ScriptingManagerD0Ev
k1e:_Single_System_IConvertible_ToSByte_m1208276900_AdjustorThunk
Wfh:_TlsClientCertificate_ProcessAsSsl3_m3265529850
S_k:__ZN6il2cpp6icalls8mscorlib6System7Convert24InternalFromBase64StringEP12Il2CppStringb
EWd:__ZNK5physx10BPWorkTask7getNameEv
Mid:__ZN5physx2Sc8ShapeSim16onResetFilteringEv
Wri:_RuntimeFieldHandle_GetObjectData_m95767031_AdjustorThunk
ixl:__ZL58ChannelServices_t3942013484_CustomAttributesCacheGeneratorP21CustomAttributesCache
VQk:__ZN30dense_hashtable_const_iteratorINSt3__24pairIK10KeyWrapperINS1_IPKcS4_EEEiEES6_24NamespaceAndNamePairHashN14dense_hash_mapIS6_iS9_NS6_14EqualsComparerI26NamespaceAndNamePairEqualsEENS0_9allocatorIS8_EEE9SelectKeyESD_SF_EppEv
Vsc:__Z44Register_UnityEngine_Component_get_transformv
Eei:__Z48RuntimeInvoker_Void_t1185182177_Link_t3209266973PFvvEPK10MethodInfoPvPS4_
euc:__Z39GameObject_CUSTOM_FindGameObjectWithTagP12Il2CppString
lhl:_Mathf_Floor_m3583650842
IG:__ZN12_GLOBAL__N_120ProcessPlayableGraphERN8Animator11AnimatorJobER35AnimationPlayableEvaluationConstantR32AnimationPlayableEvaluationInputR33AnimationPlayableEvaluationOutputPFvS4_R17AnimationPlayableEPFvS4_S6_S8_EPFvS8_S4_S6_S8_fESE_MS9_FvPS3_PS5_PS7_E
kol:__ZL48Double_t594665363_CustomAttributesCacheGeneratorP21CustomAttributesCache
gag:_TextInfo_ToLower_m2744057472
n6c:__ZN5physx2Sc16ActorInteractionD2Ev
_Xa:__ZN17ArchiveFileSystem12MountArchiveEPKcS1_
Q1h:__Z35RuntimeInvoker_TouchPhase_t72348083PFvvEPK10MethodInfoPvPS4_
OHc:__Z18Transfer_BlittableI9JSONWriteLb1E8Vector4fEvRK29SerializationCommandArgumentsR31RuntimeSerializationCommandInfo
no:FUNCTION_TABLE_viififiii
aQf:_CCGregorianCalendar_year_from_fixed_m463929682
bGe:__ZN2UI13CanvasManagerD0Ev
SBb:__ZThn32_NK8Renderer14GetSubsetIndexEi
hmk:_WaitForSecondsRealtime_get_keepWaiting_m2883408337
sjd:__ZN5physx2Sc16ArticulationCore26setExternalDriveIterationsEj
V9g:_MD2Managed_Initialize_m2341076836
tMl:__ZL83Input_t1431474628_CustomAttributesCacheGenerator_Input_GetMouseButtonUp_m3875270823P21CustomAttributesCache
mVg:_ReadOnlyCollection_1_System_Collections_IList_Add_m4240023232_gshared
j9k:_Gradient_Cleanup_m2853808023
ifc:__ZN13ProduceHelperI15ResourceManagerLb0EE7ProduceE18MemLabelIdentifier18ObjectCreationMode
hLa:__ZN9GfxDevice15ImmediateVertexEfff
$ac:__Z13RegisterClassI8MaterialEvv
xAb:__ZNK16LightmapSettings22GetTypeVirtualInternalEv
qtb:__ZN16GraphicsSettings13AwakeFromLoadE17AwakeFromLoadMode
Sq:__ZN6Object13AwakeFromLoadE17AwakeFromLoadMode
QIa:__ZN13GfxDeviceGLES15SetStencilStateEPK18DeviceStencilStatei
btf:_Buffer_BlockCopyInternal_m418318694
mom:_cycle
V_k:__ZN6il2cpp2vm8Profiler7GCEventE13Il2CppGCEvent
LSh:__Z76RuntimeInvoker_Void_t1185182177_RuntimeObject_RuntimeFieldHandle_t1871169219PFvvEPK10MethodInfoPvPS4_
wrh:_AsnEncodedData_set_Oid_m351300829
$Yj:_PKCS12_Finalize_m507756088
ne:_emscripten_glUniform1iv
_2j:_EqualityComparer_1_get_Default_m1095255266_gshared
WMl:__ZL90Mesh_t3648964284_CustomAttributesCacheGenerator_Mesh_Clear_m749322673____keepVertexLayout0P21CustomAttributesCache
Nmb:__ZN16MemoryFileSystemD2Ev
aTh:__Z150RuntimeInvoker_Int32_t2950945753_RuntimeObject_Int32_t2950945753_Int32_t2950945753_RuntimeObject_Int32_t2950945753_Int32_t2950945753_Int32_t2950945753PFvvEPK10MethodInfoPvPS4_
urf:_BitConverter_DoubleToInt64Bits_m3574395137
aYi:_WebSocketFrame_get_IsMasked_m2785532620
UDf:_DateTime_Parse_m3729096069
sre:__Z17dynamic_pptr_castIP9Texture2D7TextureET_RK4PPtrIT0_E
JEl:__ZL77Convert_t2465617642_CustomAttributesCacheGenerator_Convert_ToUInt64_m92315402P21CustomAttributesCache
$vg:_List_1_System_Collections_IList_Add_m1540114404_gshared
CEj:_InternalEnumerator_1_System_Collections_IEnumerator_Reset_m81420524_AdjustorThunk
zsc:__Z37Register_UnityEngine_Camera_get_depthv
eJg:_Collection_1_IsValidItem_m179868881_gshared
DCg:_List_1_get_Count_m576380744_gshared
tji:__Z92RuntimeInvoker_RuntimeObject_SByte_t1669577662_SByte_t1669577662_RuntimeObject_RuntimeObjectPFvvEPK10MethodInfoPvPS4_
skg:_StringReader_Read_m3322058819
RUj:_CrossAppDomainChannel_get_ChannelPriority_m3418073750
T$j:_EqualityComparer_1__ctor_m1860346363_gshared
Jzj:_Selectable_StartColorTween_m3618813981
LVd:__ZNK5physx16PxsBroadPhaseMBP18getNumDeletedPairsEv
S5e:_BaseInputModule_HandlePointerExitAndEnter_m1705532066
J6i:_EventInfo__ctor_m3033129999
Gie:__ZN5physx7profile8ZoneImplINS_28PxProfileNameProviderForwardEE10startEventEty
ika:__ZN15dense_hashtableINSt3__24pairIKPKcPK4RTTIEES3_N11TypeManager23ConstCharPtrHashFunctorEN14dense_hash_mapIS3_S7_SA_NS9_19ConstCharPtrEqualToE13stl_allocatorIS8_L18MemLabelIdentifier6ELi16EEE9SelectKeyESC_SF_E12resize_deltaEjj
IQd:__ZN5physx10PxsCCDPair17sweepAdvanceToToiEfb
sac:__ZN15ApplicationInfo16GetInstallerNameEv
jmb:__Z23ConvertIntegerToTypePtrItEbPvR14SafeBinaryRead
DMf:_Delegate_CombineImpl_m3572135514
r7f:_NumberFormatter_IntegerToString_m1679294587
pYe:_SHA256Managed_AddLength_m1060552216
cfm:_SceneManager_Internal_SceneLoaded_m4023393011
P7g:_BigInteger_GetHashCode_m1594560121
jH:__ZN7mecanim5human29HumanGetGoalOrientationOffsetENS0_4GoalE
TQb:__ZNK11MonoManager22GetTypeVirtualInternalEv
G7l:__ZL78LayoutRebuilder_t541313304_CustomAttributesCacheGenerator_U3CU3Ef__amU24cache2P21CustomAttributesCache
Ohd:__ZN5physx6shdfnd8PoolBaseINS_2Cm5BlockIhLj384EEENS0_19ReflectionAllocatorIS4_EEE17releaseEmptySlabsEv
J4d:__ZN5physx16PxsIslandManager11freeBuffersEv
Vgk:__ZL23UnresolvedVirtualCall_6P12Il2CppObjectiPK10MethodInfo
Jfk:_InvokableCall_1_Find_m2510486607_gshared
xad:__ZN5physx2Cm12DelegateTaskINS_2Sc17ParticleSystemSimEXadL_ZNS3_21prepareCollisionInputEPNS_10PxBaseTaskEEEE11runInternalEv
y0e:__Z46il2cpp_codegen_get_marshal_directive_exceptionPKc
z7b:__ZN9ShaderLab20SerializedSubProgram14AddMatrixParamEPKcii15ShaderParamTypei
Ke:_glGetActiveUniformBlockName
j1l:__ZL90PointerEventData_t3807901092_CustomAttributesCacheGenerator_U3CpointerIdU3Ek__BackingFieldP21CustomAttributesCache
tA:__ZN7mecanim13CopyValueMaskILb0EEEvPKNS_14ValueArrayMaskEPS1_
mP:__ZN26AnimatorControllerPlayable23ValidateParameterStringE17GetSetValueResultRKN4core12basic_stringIcNS1_20StringStorageDefaultIcEEEE
yQh:__Z67RuntimeInvoker_Int32_t2950945753_RuntimeObject_Int32U26_t1369213839PFvvEPK10MethodInfoPvPS4_
ynj:_Canvas_get_pixelPerfect_m551317767
Lll:_PlayableHandle_GetInputCount_m2058233202_AdjustorThunk
vvc:__Z39Quaternion_CUSTOM_INTERNAL_CALL_InverseRK11QuaternionfRS_
lV:__ZN4FMOD7Channel20set3DConeOrientationEP11FMOD_VECTOR
vYl:__ZL86GUIStyle_t3956901511_CustomAttributesCacheGenerator_GUIStyle_Internal_Draw_m2730787149P21CustomAttributesCache
eo:FUNCTION_TABLE_iiifii
W0i:_AssemblyBuilder_not_supported_m1735277432
sNj:_InternalEnumerator_1_MoveNext_m1344185775_AdjustorThunk
LUk:__ZN6il2cpp2vm12GenericClass11SetupEventsEP11Il2CppClass
uDe:_tt_delta_interpolate
fxe:_tt_cmap12_get_info
IPk:__ZN6il2cpp2vm15ReboxIReferenceEP14Il2CppIUnknownP11Il2CppClass
ppg:_Enumerator__ctor_m2029608698_AdjustorThunk
Klk:__ZN6il2cpp6icalls8mscorlib6System7Decimal14decimalCompareEP19il2cpp_decimal_reprS5_
rIh:_Dictionary_2_OnDeserialization_m4209543208_gshared
B$k:__ZThn4_N6il2cpp2vm13CachedCCWBaseINS0_13ManagedObjectEE7ReleaseEv
Wcd:__ZN5physx26PxcFsComputeJointLoadsSimdERKNS_9PxcFsDataEPKNS_12PxcFsInertiaEPNS_6shdfnd3aos6Mat33VEPKfjjNS_21PxcFsScratchAllocatorE
CCd:__ZN5physx6shdfnd8SyncImpl7getSizeEv
eyl:__ZL62SoapMethodAttribute_t1935009310_CustomAttributesCacheGeneratorP21CustomAttributesCache
b1h:__Z100RuntimeInvoker_Void_t1185182177_RuntimeObject_Int32_t2950945753_Int32_t2950945753_UInt16_t2177724958PFvvEPK10MethodInfoPvPS4_
$wa:__ZNSt3__26__treeINS_12__value_typeIN9ShaderLab16FastPropertyNameE10ColorRGBAfEENS_19__map_value_compareIS3_S5_NS_4lessIS3_EELb1EEENS_9allocatorIS5_EEE12__find_equalIS3_EERPNS_16__tree_node_baseIPvEENS_21__tree_const_iteratorIS5_PNS_11__tree_nodeIS5_SF_EEiEESI_RKT_
dAm:_glCopyTexImage2D__wrapper
Mam:__ZL76LoginManager_t1249555276_CustomAttributesCacheGenerator_U3CU3Ef__amU24cache1P21CustomAttributesCache
ONf:_Double_System_IConvertible_ToUInt32_m271206838
Tqg:_List_1_Remove_m3569384130_gshared
spk:_il2cpp_z_deflateEnd
ooh:_Dns_GetHostAddresses_m878956259
kZc:__ZN5physx11PxHitBufferINS_12PxRaycastHitEED0Ev
Yth:_DelegatePInvokeWrapper_SocketAsyncCall_t1521370843
jxa:__Z18ClearByDrawingQuad13GfxClearFlagsRK10ColorRGBAffjR17ShaderPassContext
iza:__ZN6prcoreL17RemapGenericFloatI14TexFormatRHalf15TexFormatRFloatEEvPKNS_9InnerInfoE
a8f:_NumberFormatter_FormatExponential_m2139559983
W5a:__Z16ShouldUseShadowsb
Via:__ZN15DirectorManager21RebuildStageCallbacksEv
jAa:__ZN19RuntimeSceneManager9LoadSceneERKN4core12basic_stringIcNS0_20StringStorageDefaultIcEEEES6_S6_RK9UnityGUIDiNS_11LoadingModeE
shk:__ZL24UnresolvedVirtualCall_31P12Il2CppObjectiS0_S0_PK10MethodInfo
$Qa:__ZN7ApiGLES10DrawArraysE16GfxPrimitiveTypejjj
fli:_MethodCall_get_TypeName_m3873929301
jFj:_InternalEnumerator_1_MoveNext_m154749640_gshared
JOc:__ZN5physx3Cct13BoxController15getPxControllerEv
ZS:__ZN10SampleClip13LoadBaseSoundEv
UUc:__ZN5physx2Gu22gjkRelativePenetrationINS0_17ShrunkConvexHullVES2_EEjRKT_RKT0_RKNS_6shdfnd3aos15PsMatTransformVERKNSA_6FloatVERNSA_5Vec3VESI_SI_RSE_PhSK_Rh
zM:__ZN18StreamedBinaryReadILb0EE21TransferSTLStyleArrayI22OffsetPtrArrayTransferIN7mecanim8skeleton4NodeEEEEvRT_17TransferMetaFlags
s2g:_SmallXmlParser_SkipWhitespaces_m4243606597
Cgj:_AnimatorControllerPlayable_SetLayerWeightInternal_m3335202097
zQl:__ZL78Physics_t2310948930_CustomAttributesCacheGenerator_Physics_Raycast_m2622874622P21CustomAttributesCache
Uam:__ZL74socket_test_t749711105_CustomAttributesCacheGenerator_U3CU3Ef__amU24cache2P21CustomAttributesCache
DQf:_CompareInfo_IndexOf_m2631915198
Fjl:_Object_EnsureRunningOnMainThread_m2049148642
D1i:_ConstructorBuilder_GetCustomAttributes_m2495332786
aki:_MethodCall__ctor_m3669645
Rtf:_Byte_CompareTo_m4285128861
h7e:_TriggerEvent__ctor_m87299207
U_h:__Z48RuntimeInvoker_ExchangeAlgorithmType_t1320888206PFvvEPK10MethodInfoPvPS4_
mNf:_DllNotFoundException__ctor_m3079838043
Gw:__ZN7mecanim9animation4Clip8TransferI19StreamedBinaryWriteILb0EEEEvRT_
ZTk:__ZN15dense_hashtableINSt3__24pairIK10KeyWrapperIP12Il2CppObjectEN6il2cpp2gc9CachedCCWEEES5_NS7_5utils11PointerHashIS3_EEN14dense_hash_mapIS5_S9_SD_NS5_14EqualsComparerINS0_8equal_toIS4_EEEENS0_9allocatorISA_EEE9SelectKeyESI_SK_E15insert_noresizeERKSA_
H5d:__ZN5physx2Sc19ParticlePacketShapeC2ERNS0_17ParticleSystemSimEjPNS_16PxvParticleShapeE
Ogk:_UnityAction_2_EndInvoke_m3654482891_gshared
_Hj:_InternalEnumerator_1_MoveNext_m1161444633_AdjustorThunk
U$j:_EqualityComparer_1__cctor_m3962593840_gshared
ixa:__ZN22DeviceMVPMatricesStateC2ER9GfxDevice
eTh:__Z78RuntimeInvoker_Boolean_t97287965_RuntimeObject_RuntimeObject_Int32_t2950945753PFvvEPK10MethodInfoPvPS4_
Rih:_SslClientStream_Finalize_m1251363641
Cmd:__ZN5physx9NpPhysics18createTriangleMeshERNS_13PxInputStreamE
vo:FUNCTION_TABLE_iiiiifiiiif
Ln:FUNCTION_TABLE_iifii
Dbm:_RaycastHit2D_t2279581989_marshal_pinvoke_back
NP:__Z64AnimationOffsetPlayable_CUSTOM_INTERNAL_CALL_SetRotationInternalR9HPlayableRK11Quaternionf
ADb:__ZNSt3__26vectorI13dynamic_arrayI8Vector2fLj4EENS_9allocatorIS3_EEE6assignINS_11__wrap_iterIPS3_EEEENS_9enable_ifIXaasr21__is_forward_iteratorIT_EE5valuesr16is_constructibleIS3_NS_15iterator_traitsISC_E9referenceEEE5valueEvE4typeESC_SC_
C1d:__ZN5physx2Cm12DelegateTaskINS_2Sc5SceneEXadL_ZNS3_14updateDynamicsEPNS_10PxBaseTaskEEEED0Ev
iJk:__ZN6il2cpp2vm10Reflection12HasAttributeEP9FieldInfoP11Il2CppClass
uBa:__ZNSt3__26__treeIiNS_4lessIiEE13stl_allocatorIiL18MemLabelIdentifier1ELi16EEE7destroyEPNS_11__tree_nodeIiPvEE
Qc:invoke_viiifi
Z9i:_MonoProperty_GetCustomAttributes_m3619796755
lyk:__ZNSt3__214__split_bufferIP11Il2CppClassRNS_9allocatorIS2_EEEC2EjjS5_
V9d:__ZN5physx6shdfnd5ArrayIPNS_7PxActorENS0_19ReflectionAllocatorIS3_EEE8recreateEj
Ali:_MethodDictionary_System_Collections_IEnumerable_GetEnumerator_m4169036899
x2g:__ZN23InterfaceActionInvoker2IP8String_tP12Il2CppObjectE6InvokeEjP11Il2CppClassS3_S1_S3_
yGa:__ZNK11AssetBundle14GetPreloadDataEiR13dynamic_arrayIiLj4EE
ecm:_Rect_get_max_m724222499
gpm:_strstr
LWe:_RIPEMD160Managed_JJJ_m4161373884
bni:_SoapServices_get_XmlNsForClrTypeWithNsAndAssembly_m2954042252
TMh:_DefaultComparer_Equals_m3257444875_gshared
Uf:_JS_Sound_SetPosition
iqa:__ZN19RenderBufferManager13GetTempBufferEii17DepthBufferFormat19RenderTextureFormatj22RenderTextureReadWrite14VRTextureUsagei23RenderTextureMemoryless
tuk:__ZL13GetSharedInstPK17Il2CppGenericInst
hek:_Predicate_1_Invoke_m2372669878_gshared
Tug:_List_1_get_Count_m634446588_gshared
xqk:__ZNK15dense_hashtableINSt3__24pairIK10KeyWrapperIPKcEP11Il2CppClassEES5_N6il2cpp5utils11StringUtils12StringHasherIS4_EEN14dense_hash_mapIS5_S8_SE_NS5_14EqualsComparerINSB_13VmStringUtils21CaseSensitiveComparerEEENS0_9allocatorIS9_EEE9SelectKeyESJ_SL_E3endEv
IMe:__ZN22BaseUnityConnectClient17SaveSessionValuesEv
GGj:_InternalEnumerator_1_get_Current_m476140818_gshared
_pd:__ZNK5physx7NpCloth14getNbParticlesEv
Tsh:_NetworkStream_BeginRead_m194067695
y2c:__ZN5physx2Sc10NPhaseCore24releaseShapeInstancePairEPNS0_19ShapeInstancePairLLEjj
Wbb:__Z24SetupActiveLightsContextR21ActiveLightingContextRK12ActiveLightsRK11CullResultsP14ShadowMapCacheRK10MinMaxAABB
Xaf:_AnimationTriggers_set_disabledTrigger_m933056574
jyc:__Z38Sprite_CUSTOM_INTERNAL_get_textureRectP12Il2CppObjectP5RectTIfE
WHk:__ZNK15dense_hashtableINSt3__24pairIK10KeyWrapperIPK22Il2CppGenericParameterEPK24MonoGenericParameterInfoEES6_N6il2cpp5utils11PointerHashIS4_EEN14dense_hash_mapIS6_SA_SF_NS6_14EqualsComparerINS0_8equal_toIS5_EEEENS0_9allocatorISB_EEE9SelectKeyESK_SM_E3endEv
pug:_List_1_Add_m238442097_gshared
zkc:__ZN9TextAsset7SetTextERKN4core12basic_stringIcNS0_20StringStorageDefaultIcEEEE
Ksb:__ZN6Camera8TransferI24GenerateTypeTreeTransferEEvRT_
Sa:invoke_iiiiiiif
La:invoke_iiiiiiii
H$f:_Array_InternalArray__set_Item_TisByte_t1134296376_m3104140039_gshared
gUd:__ZN5physx21SapPostUpdateWorkTaskD0Ev
xXh:__Z194RuntimeInvoker_Int32_t2950945753_RuntimeObject_Int32_t2950945753_Int32_t2950945753_RuntimeObject_Int32_t2950945753_SByte_t1669577662_Int32U26_t1369213839_BooleanU26_t4125257963_SByte_t1669577662PFvvEPK10MethodInfoPvPS4_
mZj:_PKCS12_GetBytes_m415958948
meh:_Context_get_HandshakeState_m2425796590
vfb:__ZN8Renderer17PendingAddToSceneEv
vid:__ZN5physx7NpActor18releaseConstraintsERNS_12PxRigidActorE
H$c:__ZN5physx6shdfnd5ArrayINS_11PxDebugLineENS0_19ReflectionAllocatorIS2_EEE8recreateEj
tCm:b125
sCm:b124
sDm:b127
rDm:b126
uDm:b129
xxc:__Z52Register_UnityEngine_RectTransform_INTERNAL_get_rectv
vyd:__ZNK5physx22NpParticleBaseTemplateINS_16PxParticleSystemENS_16NpParticleSystemEE20getMaxMotionDistanceEv
$9:__Z21PostprocessStacktracePKcRN4core12basic_stringIcNS1_20StringStorageDefaultIcEEEE
DMb:__ZN18StreamedBinaryReadILb0EE21TransferSTLStyleArrayI13dynamic_arrayI16SplashScreenLogoLj4EEEEvRT_17TransferMetaFlags
nAd:__ZNK5physx14NpRigidDynamic25getContactReportThresholdEv
_hg:_FileStreamAsyncResult_CBWrapper_m1670848754
Psh:_NetworkStream_get_CanWrite_m3803109243
Jsc:__Z47Register_UnityEngine_Camera_get_allCamerasCountv
Zej:_AnimatorControllerPlayable_GetFloat_m1412311866_AdjustorThunk
uxk:__ZNSt3__214__split_bufferIP9FieldInfoRNS_9allocatorIS2_EEED2Ev
Gud:__ZN5physx22NpParticleBaseTemplateINS_15PxParticleFluidENS_15NpParticleFluidEE16releaseParticlesEv
LMe:__ZN22BaseUnityConnectClient20StartEventDispatcherEv
hmc:__ZNSt3__26vectorIj13stl_allocatorIjL18MemLabelIdentifier1ELi16EEE6assignIPKtEENS_9enable_ifIXaasr21__is_forward_iteratorIT_EE5valuesr16is_constructibleIjNS_15iterator_traitsIS9_E9referenceEEE5valueEvE4typeES9_S9_
_F:__ZN7mecanim9animation16EvaluateAvatarIKEPKNS0_14AvatarConstantEPKNS0_11AvatarInputEPNS0_12AvatarOutputEPNS0_12AvatarMemoryEPNS0_15AvatarWorkspaceEb
HC:__ZN26AnimatorControllerPlayable10GetIntegerEiRi
Clb:__Z29StdTemplateConversionFunctionIsiEbPvR14SafeBinaryRead
j1d:__Z22updateIslandsToProcessRKN5physx2Cm10BitMapBaseINS_6shdfnd9AllocatorEEEPKjRKNS_11NodeManagerERS4_
dhj:_AnimatorControllerPlayable_GetCurrentAnimatorClipInfoCount_m1409370086_AdjustorThunk
q1a:__ZN12InputManager13InputEndFrameEv
yxk:__ZNSt3__26__treeIP11Il2CppClassNS_4lessIS2_EENS_9allocatorIS2_EEE25__emplace_unique_key_argsIS2_JRKS2_EEENS_4pairINS_15__tree_iteratorIS2_PNS_11__tree_nodeIS2_PvEEiEEbEERKT_DpOT0_
gLk:__ZN6il2cpp2vm6Thread5SetupEP12Il2CppThread
Lde:__ZN8Collider30GetRelativePositionAndRotationERK9TransformR10Matrix4x4f
nfl:_GUIStyleState_Init_m3323354680
OQd:__ZN5physx35PxcSweepEstimateAnyShapeHeightfieldERKNS_11PxsCCDShapeES2_PKNS_12PxsRigidBodyES5_RKNS_11PxTransformES8_f
wQg:_ReadOnlyCollection_1_System_Collections_IList_get_IsReadOnly_m1248651675_gshared
vAh:_Enumerator_System_Collections_IDictionaryEnumerator_get_Key_m2500634048_gshared
a0c:__ZN5physx3Cct13BoxControllerC2ERKNS_16PxControllerDescERNS_9PxPhysicsEPNS_7PxSceneE
Mim:_TextGenerator_t3211863866_marshal_pinvoke_back
rpm:___munmap
jkj:_AudioClipPlayable__ctor_m3095829342_AdjustorThunk
y3g:_RSAManaged_get_PublicOnly_m595121416
Lg:_localtime_r
Y2a:__ZN22RenderingCommandBuffer13GetAndCheckRTE24BuiltinRenderTextureTypeRKN9ShaderLab16FastPropertyNameEPKcPP13RenderTexture
zTj:_InterfaceTypeAttribute__ctor_m3307583035
MJj:_InternalEnumerator_1_System_Collections_IEnumerator_Reset_m3619766341_AdjustorThunk
SY:__ZN4FMOD5Sound11getDefaultsEPfS1_S1_Pi
byl:__ZL56ReturnMessage_t1376985608_CustomAttributesCacheGeneratorP21CustomAttributesCache
Jxi:_UTF32Decoder_GetChars_m1925558948
Ng:_strftime
sqa:__ZN7Texture33SetStoredColorSpaceNoDirtyNoApplyE17TextureColorSpace
fSj:_ResourceSet__ctor_m3618395942
cLf:_Decimal_System_IConvertible_ToDouble_m3125524987_AdjustorThunk
wea:__ZN12FileAccessorD2Ev
ewa:__ZN10ColorRGBAf8TransferI18StreamedBinaryReadILb0EEEEvRT_
q4a:__ZN14VertexDataInfoC2Ev
NXk:__ZN6il2cpp2gc16GarbageCollector14CollectALittleEv
doj:_CanvasRenderer_DisableRectClipping_m4197748798
bgi:__Z117RuntimeInvoker_Void_t1185182177_CustomAttributeTypedArgumentU5BU5DU26_t2503877664_Int32_t2950945753_Int32_t2950945753PFvvEPK10MethodInfoPvPS4_
$_b:__ZL17Transfer_GUIStyleI18StreamedBinaryReadILb1EELb1EEvRK29SerializationCommandArgumentsR31RuntimeSerializationCommandInfo
Mvj:_RectMask2D_IsRaycastLocationValid_m1652308696
Txk:__ZN6il2cpp6icalls8mscorlib6SystemL9IsPrivateEPK12PropertyInfo
A9l:__ZL71Ext_t2749166018_CustomAttributesCacheGenerator_Ext_SubArray_m3313476590P21CustomAttributesCache
vZj:_X501_ToString_m1148552872
UQd:__ZNK5physx18PxcConvexTriangles16getPolygonNormalEj
d9:__ZN9shadertag10InitializeEv
Aci:__Z69RuntimeInvoker_Void_t1185182177_Int32_t2950945753_Color32_t2600501292PFvvEPK10MethodInfoPvPS4_
i6a:__ZN13BatchRenderer20RenderSingleWithPassER17ShaderPassContextPK18SharedMaterialDataP6ShaderPN9ShaderLab4PassEiPKNS7_10GrabPassesEjib15BatchBreakCause
Xje:__ZN5physx24NpPtrTableStorageManager8canReuseEjj
Iqk:__ZN15dense_hashtableINSt3__24pairIK10KeyWrapperIPK19Il2CppGenericMethodEPK26Il2CppGenericMethodIndicesEES6_N6il2cpp8metadata23Il2CppGenericMethodHashEN14dense_hash_mapIS6_SA_SE_NS6_14EqualsComparerINSD_26Il2CppGenericMethodCompareEEENS0_9allocatorISB_EEE9SelectKeyESI_SK_ED2Ev
_Cb:__ZN15QualitySettings14QualitySetting8TransferI24GenerateTypeTreeTransferEEvRT_
k5k:__ZN6il2cpp5utils6Memory11AlignedFreeEPv
gQl:__ZL63ControllerColliderHit_t240592346_CustomAttributesCacheGeneratorP21CustomAttributesCache
dFd:__ZN5physx2Sc27ConstraintProjectionManager33processConstraintForGroupBuildingEPNS0_13ConstraintSimERNS0_20ScratchAllocatorListIS3_Lj64EEE
Hch:_Context_get_ClientWriteKey_m3174706656
N0l:__ZL77ExecuteEvents_t3484638744_CustomAttributesCacheGenerator_U3CU3Ef__mgU24cache7P21CustomAttributesCache
Xkf:_InputField_get_textComponent_m948764648
AEe:__Z28Font_Get_Custom_PropMaterialP12Il2CppObject
o3k:__ZN6il2cpp6icalls8mscorlib6System9Threading16NativeEventCalls19ResetEvent_internalE12Il2CppIntPtr
ZNc:__ZL34CleanupModule_PerformanceReportingv
RGf:_Convert_ToSingle_m835189399
ulc:__ZN22BlockMemoryCacheWriter14LockCacheBlockEjPPhS1_
DBc:__ZNSt3__218__insertion_sort_3IRPFbPKN5IMGUI9GUIWindowES4_EPPS2_EEvT0_SA_T_
Rti:_CryptographicUnexpectedOperationException__ctor_m69881930
txd:__ZN5physx22NpParticleBaseTemplateINS_15PxParticleFluidENS_15NpParticleFluidEED2Ev
kGg:_Collection_1_SetItem_m1218178236_gshared
iDd:__ZN5physx2Cm29ConstraintImmediateVisualizer19visualizeDoubleConeERKNS_11PxTransformEfb
g0l:__ZL60MovedFromAttribute_t481952341_CustomAttributesCacheGeneratorP21CustomAttributesCache
jLc:__Z22TransferField_NonArrayI8JSONRead27Converter_SimpleNativeClassI8GUIStyleEEvRK23StaticTransferFieldInfoR31RuntimeSerializationCommandInfoRT0_
uPc:__ZN5physx6shdfnd5ArrayINS_13PxExtendedBoxENS0_19ReflectionAllocatorIS2_EEE8recreateEj
wWd:__ZN5physx20ProcessBPResultsTask11runInternalEv
I6c:__ZN5physx6shdfnd5ArrayIPvNS0_19ReflectionAllocatorINS_2Cm5BlockIS2_Lj16EEEEEE4copyINS0_15InlineAllocatorILj256ES7_EEEEvRKNS1_IS2_T_EE
rh:_llvm_eh_typeid_for
ijc:__Z13RegisterClassI10GameObjectEvv
DAm:_glGetUniformLocation__wrapper
a6j:_UnityAction_4_EndInvoke_m326333003_gshared
ili:_RemotingServices_FindInterfaceMethod_m2125212568
Lsj:_Event_Internal_Use_m1176479148
jLl:__ZL97GameObject_t1113636619_CustomAttributesCacheGenerator_GameObject_GetComponentInParent_m2794983654P21CustomAttributesCache
MD:__ZNK23AnimationPlayableOutput7GetTypeEv
LFd:__ZN5physx7NpScene19getActiveTransformsERjh
$jg:_StreamWriter__cctor_m1229272693
z2c:__ZN5physx2Sc10NPhaseCore39pool_deleteParticleElementRbElementPairEPNS0_35ParticleElementRbElementInteractionEjj
wOf:_Enum_System_IConvertible_ToSByte_m779472798
IPd:__ZN5physx6shdfnd8internal8HashBaseIjjNS0_4HashIjEENS1_11HashSetBaseIjS4_NS0_9AllocatorELb0EE6GetKeyES6_Lb0EE6createERKjRb
pGj:_InternalEnumerator_1_MoveNext_m1543390728_gshared
W0b:__Z18Transfer_BlittableI18StreamedBinaryReadILb0EELb1E8Vector4fEvRK29SerializationCommandArgumentsR31RuntimeSerializationCommandInfo
d3i:_TypeBuilder_GetElementType_m1881206953
W9f:_SortKey_get_OriginalString_m1428586816
K1f:_Array_Resize_TisVector3_t3722313464_m1245103517_gshared
MLh:_Dictionary_2_U3CCopyToU3Em__0_m2023886030_gshared
PCm:_glBindVertexArray__wrapper
rce:__ZN5physx6shdfnd5ArrayINS_11RTreeNodeNQENS0_19ReflectionAllocatorIS2_EEE19resizeUninitializedEj
u3c:__ZNK5physx2Sc16InteractionScene18getLLIslandManagerEv
Bqi:_SerializationInfo__ctor_m2923079689
IFh:_ValueCollection_System_Collections_Generic_ICollectionU3CTValueU3E_Contains_m1602961051_gshared
bva:__ZN8Material8TransferI14SafeBinaryReadEEvRT_
rQd:__ZN5physx17PxcNpMemBlockPool34acquireExceptionalConstraintMemoryEj
Nyb:__ZN12CubemapArray17UploadToGfxDeviceEv
C4f:_PlayableExtensions_SetInputCount_TisPlayable_t459825607_m2852645797_gshared
nYg:_Func_2__ctor_m1150804732_gshared
Ybg:_Int32_JumpOverWhite_m208298144
SKk:__ZN24dense_hashtable_iteratorINSt3__24pairIK10KeyWrapperIP11Il2CppClassES4_EES5_N6il2cpp8metadata16SZArrayClassHashEN14dense_hash_mapIS5_S4_SA_NS5_14EqualsComparerINS9_19SZArrayClassCompareEEENS0_9allocatorIS7_EEE9SelectKeyESE_SG_E30advance_past_empty_and_deletedEv
DRd:__ZN5physxL23PxcSweepConvexTrianglesERKNS_11PxsCCDShapeES2_RKNS_11PxTransformES5_S5_S5_fRNS_6PxVec3ES7_RNS_10PxcNpCacheERNS_18PxcNpThreadContextERKNS_2Cm23FastVertex2ShapeScalingERNS_2Gu9TriangleVEf
cod:__ZNK5physx7NpShape16getPlaneGeometryERNS_15PxPlaneGeometryE
xei:__Z53RuntimeInvoker_Int32_t2950945753_UIVertex_t4057497605PFvvEPK10MethodInfoPvPS4_
FBm:_emscripten_glGetUniformiv__wrapper
u$k:__ZN6il2cpp2vm13ManagedObject14QueryInterfaceERK10Il2CppGuidPPv
Bce:__ZN5physx27InternalTriangleMeshBuilder14fillRemapTableEv
tT:__ZN11AudioSource4StopEb
Vad:__ZN5physx6shdfnd8PoolBaseINS_13NpRigidStaticENS0_19ReflectionAllocatorIS2_EEE17releaseEmptySlabsEv
VTb:__ZN14SafeBinaryRead21TransferSTLStyleArrayI13dynamic_arrayI10Matrix4x4fLj4EEEEvRT_17TransferMetaFlags
mpa:__Z25GetSplashScreenBackgroundRK5RectTIfE
hka:__ZN14dense_hash_mapIPKcPK4RTTIN11TypeManager23ConstCharPtrHashFunctorENS5_19ConstCharPtrEqualToE13stl_allocatorINSt3__24pairIKS1_S4_EEL18MemLabelIdentifier6ELi16EEEixERSB_
uQe:__ZN13RuntimeStaticI19UnityConnectServiceLb0EE16StaticInitializeEPv
JVa:__ZN18GlslGpuProgramGLESD2Ev
Djb:__ZN13RenderTexture14SetVolumeDepthEi
Rie:__ZThn116_NK5physx7profile8ZoneImplINS_28PxProfileNameProviderForwardEE10hasClientsEv
MZd:__ZN5physx2Gu20pcmContactCapsuleBoxERKNS0_13GeometryUnionES3_RKNS_11PxTransformES6_RKfRNS0_5CacheERNS0_13ContactBufferE
t0h:__Z86RuntimeInvoker_Void_t1185182177_UInt16_t2177724958_SByte_t1669577662_SByte_t1669577662PFvvEPK10MethodInfoPvPS4_
PLc:__ZN10Matrix4x4f8TransferI8JSONReadEEvRT_
oUi:_WebSocketException__ctor_m807672825
qvj:_PositionAsUV1_ModifyMesh_m4231919476
Pzf:_Hashtable__ctor_m1941859523
vgg:_MonoIO_DeleteFile_m3839141322
Vaa:__ZN17PersistentManager18ReadObjectThreadedEi
WMa:__ZN25TransformFeedbackSkinning31CleanupTransformFeedbackShadersEv
Q$k:__ZN6il2cpp6icalls8mscorlib6System7Runtime16CompilerServices14RuntimeHelpers15InitializeArrayEP11Il2CppArray12Il2CppIntPtr
l5a:__Z22scripting_object_unbox18ScriptingObjectPtr
HXj:_AsyncResult_get_NextSink_m1844209137
jre:__ZNK20TextRenderingPrivate8FontImpl19GetCharacterAdvanceEjijfPj
WYf:_Array_InternalArray__ICollection_Add_TisUriScheme_t722425697_m3142345403_gshared
t3f:_Dictionary_2_Do_CopyTo_TisDictionaryEntry_t3123975638_TisDictionaryEntry_t3123975638_m1126292988_gshared
cEb:__ZN10VertexData8TransferI18StreamedBinaryReadILb0EEEEvRT_
Jad:__ZN5physx2Sc5Scene9addStaticERNS0_10StaticCoreEPKPvjj
Ipl:__ZL81RuntimeArray_CustomAttributesCacheGenerator_Array_GetValue_m116098292____indices0P21CustomAttributesCache
Rng:_MonoType_get_Assembly_m4290914179
Bpl:__ZL70RuntimeArray_CustomAttributesCacheGenerator_Array_GetValue_m1062368071P21CustomAttributesCache
DM:__ZN6Avatar8TransferI19StreamedBinaryWriteILb0EEEEvRT_
pqf:_Array_Reverse_m816310962
Pjb:__ZN14PreloadManager16UpdatePreloadingEv
Wrb:__ZN12BaseRendererD2Ev
Qvb:__ZN14SafeBinaryRead21TransferSTLStyleArrayI19StaticArrayTransferIiLi4EEEEvRT_17TransferMetaFlags
rMd:__ZN5physx2Sc5Scene9addShapesEPKPvjjRNS0_8RigidSimEPNS_12PxsRigidBodyERPNS0_8ShapeSimEPNS_9PxBounds3E
FLj:_InternalEnumerator_1_System_Collections_IEnumerator_get_Current_m4088805473_gshared
l2l:__ZL79StandaloneInputModule_t2760469101_CustomAttributesCacheGenerator_m_SubmitButtonP21CustomAttributesCache
CYd:__ZN5physx23PxcPCMContactConvexMeshERKNS_2Gu13GeometryUnionES3_RKNS_11PxTransformES6_RKfRNS_10PxcNpCacheERNS0_13ContactBufferE
Uob:__ZNK21UnityDefaultAllocatorI17LowLevelAllocatorE8ContainsEPKv
iwk:__ZNSt3__213__vector_baseI6pollfdNS_9allocatorIS1_EEED2Ev
Q8k:_GameObject_GetComponents_m3948232783
psi:_RuntimeTypeHandle_Equals_m2857439487
Ai:_emscripten_get_main_loop_timing
gHj:_InternalEnumerator_1_System_Collections_IEnumerator_Reset_m2270178034_AdjustorThunk
XTj:_SafeHandle_Finalize_m3866180675
mQk:_il2cpp_z_inflate_fast
ZCb:__ZN24GenerateTypeTreeTransfer21TransferSTLStyleArrayINSt3__26vectorIN15QualitySettings14QualitySettingENS1_9allocatorIS4_EEEEEEvRT_17TransferMetaFlags
Cig:_MemoryStream_ToArray_m3911744835
Xzh:_Enumerator_System_Collections_IDictionaryEnumerator_get_Entry_m859540448_AdjustorThunk
zai:__Z72RuntimeInvoker_Boolean_t97287965_RaycastHitU26_t2429360258_RuntimeObjectPFvvEPK10MethodInfoPvPS4_
k7k:__ZN6il2cpp2os5Event4WaitEjb
XKb:__ZNSt3__26vectorI9InputAxisNS_9allocatorIS1_EEE6resizeEj
gDi:_Type_GetHashCode_m1947148725
x$k:__ZN6il2cpp2vm13ManagedObject7GetIidsEPjPP10Il2CppGuid
p6a:__ZN13BatchRendererC2ER15RenderLoopStatsRK15RenderNodeQueuebbb
_Wh:__Z91RuntimeInvoker_Void_t1185182177_RuntimeObject_RuntimeObject_RuntimeObject_SByte_t1669577662PFvvEPK10MethodInfoPvPS4_
F8b:__ZNK2UI13RectTransform22GetTypeVirtualInternalEv
tq:getTempRet0
L$e:_StrongName_get_Version_m4243032012
$Jj:_InternalEnumerator_1_MoveNext_m2234422530_gshared
MYd:__ZN5physx2Gu33MultiplePersistentContactManifold24addManifoldContactPointsEPNS0_21MeshPersistentContactEjPPNS0_15PCMContactPatchEjRKNS_6shdfnd3aos6FloatVESB_h
kUi:_HttpBase_get_ProtocolVersion_m1020172802
uuh:_SocketException__ctor_m480722159
cXl:__ZL73GUISettings_t1774757634_CustomAttributesCacheGenerator_m_CursorFlashSpeedP21CustomAttributesCache
i6e:_BaseRaycaster_OnEnable_m2678466030
jzh:_Enumerator_get_CurrentKey_m627428048_AdjustorThunk
K2f:_Array_Sort_TisVector4_t3319028937_m2797285308_gshared
Ofh:_HandshakeMessage_Update_m2417837686
aNg:_Collection_1_System_Collections_IList_get_Item_m3314684800_gshared
iMk:__ZN6il2cpp6icalls8mscorlib6System9ThreadingL21lookup_cached_cultureEP12Il2CppThreadi
Tcb:__ZN18DeferredRenderLoopD2Ev
Mra:__ZNK16TypeTreeIterator4NameEv
b3f:_Array_swap_TisUICharInfo_t75501106_m3934244159_gshared
Wda:__ZN15FileSystemEntry3SetEPKc
F3d:__ZN5physx6shdfnd5ArrayIPNS_13PxcNpMemBlockENS0_19ReflectionAllocatorIS3_EEE6resizeEjRKS3_
Zaf:_AspectRatioFitter_get_aspectMode_m3735191157
IJl:__ZL103ScriptableObject_t2528358522_CustomAttributesCacheGenerator_ScriptableObject_CreateInstance_m1668078119P21CustomAttributesCache
rAd:__ZN5physx14NpRigidDynamic8requiresERNS_23PxProcessPxBaseCallbackE
CPg:_ReadOnlyCollection_1_System_Collections_Generic_IListU3CTU3E_Insert_m568455025_gshared
VU:__ZN20SoundChannelInstance15ParameterBuffer5ApplyEPN4FMOD7ChannelE
eoh:_IPv6Address__ctor_m4117281080
csg:_List_1__ctor_m1328752868_gshared
gre:__ZN20TextRenderingPrivate19NativeTextGenerator9InsertTabEv
gsm:_sbrk
j6h:__Z66RuntimeInvoker_Boolean_t97287965_Vector2_t2156229523_RuntimeObjectPFvvEPK10MethodInfoPvPS4_
dfk:_CachedInvokableCall_1_Invoke_m3994967940_gshared
cqg:_Enumerator_VerifyState_m3474272061_AdjustorThunk
xie:__ZN5physx7profile8ZoneImplINS_28PxProfileNameProviderForwardEE21setProfileZoneManagerEPNS_20PxProfileZoneManagerE
kNe:__ZN11UnityEngine15PlatformWrapper24GetRuntimePlatformStringEv
jj:_glIsEnabled
K2b:__ZN15CacheWriterBaseD2Ev
CZc:__ZN5physx3Cct17CapsuleController15setFootPositionERKNS_14PxExtendedVec3E
_Wc:__ZN5physx2Gu33PCMCapsuleVsMeshContactGeneration13generateEEMTDERKNS_6shdfnd3aos5Vec3VES6_RKNS3_6FloatVES6_jS6_S6_PNS0_21MeshPersistentContactERj
a1i:_DerivedType__ctor_m1853298054
FPb:__Z25scripting_class_get_image17ScriptingClassPtr
k0e:_SecurityException__ctor_m836898292
Psg:_List_1_RemoveAt_m2730968292_gshared
nj:_emscripten_glDrawElementsInstanced
DC:__ZN26AnimatorControllerPlayable27SetupStateMachineBehavioursEv
DUf:_Array_InternalArray__IEnumerable_GetEnumerator_TisSlot_t3975888750_m1869932007_gshared
nrj:_StateChanged_BeginInvoke_m1110082402
Znf:_LayoutGroup_get_preferredWidth_m3816902260
zFa:__ZN18JobBatchDispatcherD2Ev
A8b:__ZN9Transform17MainThreadCleanupEv
Yjk:__ZL25UnresolvedVirtualCall_171P12Il2CppObject22UILineInfo_t4195266810S1_PK10MethodInfo
a2k:_GC_clear_hdr_marks
NIg:__ZN21InterfaceFuncInvoker1I28AnimatorClipInfo_t3156717155iE6InvokeEjP11Il2CppClassP12Il2CppObjecti
xze:_cff_fd_select_get
YBm:_emscripten_glTexParameteri__wrapper
sBj:_Text_set_resizeTextForBestFit_m4095249125
hN:__Z13RegisterClassI18AnimatorControllerEvv
KWl:__ZL83Event_t2956885303_CustomAttributesCacheGenerator_Event_set_displayIndex_m1870302504P21CustomAttributesCache
bwh:_OidEnumerator_MoveNext_m3138911739
fdi:__Z53RuntimeInvoker_Boolean_t97287965_Keyframe_t4206410242PFvvEPK10MethodInfoPvPS4_
yj:_emscripten_glGetShaderiv
XV:__ZN4FMOD6System10getVersionEPj
A4d:__ZN5physx2Sc7BodySim10sleepCheckEffb
hFe:__ZN2UI6Canvas23VirtualRedirectTransferER24GenerateTypeTreeTransfer
pzj:_Selectable_set_animationTriggers_m2970345687
LLg:_Collection_1_CopyTo_m4271769704_gshared
hec:__ZZN19SkinnedMeshRenderer15InitializeClassEvEN47PostLateUpdateUpdateAllSkinnedMeshesRegistrator7ForwardEv
Qpe:__ZN13TextRendering4Font13AwakeFromLoadE17AwakeFromLoadMode
JQf:_CompareInfo_LastIndexOf_m2688553706
kOf:_Enum__ctor_m3602080049
jDm:_emscripten_glCullFace__wrapper
BMk:__ZNSt3__213__vector_baseIN6il2cpp2vm22EmbeddedResourceRecordENS_9allocatorIS3_EEED2Ev
QJa:__ZN9GfxDevice21ReleaseSharedMeshDataEP14SharedMeshData
X8e:_MouseState__ctor_m1467839005
wcj:_AnimationEvent_get_time_m3455244934
qRi:_Uri_IsDomainAddress_m2867513594
MLb:__ZNSt3__27__sort5IRNS_6__lessINS_4pairIPKN5Unity4TypeE7Hash128EES8_EEPS8_EEjT0_SC_SC_SC_SC_T_
yDl:__ZL79Convert_t2465617642_CustomAttributesCacheGenerator_Convert_ToDouble_m2949593046P21CustomAttributesCache
Zff:_Dropdown_CreateItem_m2954407740
h1k:_GC_unreachable_finalize_mark_proc
Rrj:_Display_GetSystemExtImpl_m1142438950
mrh:_X509Chain_ProcessCrlExtensions_m236234529
F2k:_maybe_finalize
mXf:_Array_InternalArray__IndexOf_TisLabelData_t360167391_m1826525656_gshared
pxc:__Z43RectTransform_CUSTOM_INTERNAL_get_anchorMaxP12Il2CppObjectP13Vector2fIcall
djd:__ZN5physx14NpShapeManagerC2Ev
_km:_UnitySynchronizationContext_ExecuteTasks_m2790711442
$ni:_RealProxy_get_ObjectIdentity_m2790771985
$Uh:__Z49RuntimeInvoker_Void_t1185182177_Int16_t2552820387PFvvEPK10MethodInfoPvPS4_
WEf:_Decimal_Parse_m942471224
Qua:__ZN8Material28UpdateHashesOnPropertyChangeEN9ShaderLab16FastPropertyNameE
oHg:_Collection_1_System_Collections_IList_get_Item_m1368877441_gshared
mul:__ZL56MethodBuilder_t2807316753_CustomAttributesCacheGeneratorP21CustomAttributesCache
s7g:_Locale_GetText_m3520169047
byc:__Z53Register_UnityEngine_SortingLayer_GetLayerValueFromIDv
Plb:__Z29StdTemplateConversionFunctionIhhEbPvR14SafeBinaryRead
e9g:_ASN1_GetBytes_m1968380955
Ybl:_GUISettings_get_cursorFlashSpeed_m3364906267
lUi:_HttpBase_readEntityBody_m1145438250
VRb:__Z18Transfer_BlittableI14SafeBinaryReadLb1E8Vector4fEvRK29SerializationCommandArgumentsR31RuntimeSerializationCommandInfo
_La:__ZN13GfxDeviceGLES20SetComputeBufferDataE15ComputeBufferIDPKvjj
xx:__ZN8Animator23VirtualRedirectTransferER19StreamedBinaryWriteILb0EE
hE:__ZN11UnityEngine9Animation32CreateAnimatorGenericBindingsOptERKNS0_20AnimationSetBindingsER9TransformPKN7mecanim9animation14AvatarConstantEPKNS0_21AvatarBindingConstantEbRNS6_6memory9AllocatorER8Animator
sQk:__ZN6il2cpp2vm5Image13ClassFromNameEPK11Il2CppImagePKcS6_
Zsm:dynCall_vdddddd
hdl:_SkinChangedDelegate__ctor_m1746739106
I5b:__ZN24GenerateTypeTreeTransfer21TransferSTLStyleArrayINSt3__26vectorIN9ShaderLab14SerializedPassENS1_9allocatorIS4_EEEEEEvRT_17TransferMetaFlags
$6c:__ZN5physx6shdfnd8internal8HashBaseIPNS_2Sc13ConstraintSimES5_NS0_4HashIS5_EENS1_11HashSetBaseIS5_S7_NS0_9AllocatorELb1EE6GetKeyES9_Lb1EE6createERKS5_Rb
P9:__ZL32MarkLevelGameManagerDependenciesR27GarbageCollectorThreadState
fMa:__ZNK13GfxDeviceGLES26HasActiveRandomWriteTargetEv
Djm:_Time_get_unscaledTime_m1478911891
kwf:_ArrayList_CopyTo_m3962521159
Wik:__ZL25UnresolvedVirtualCall_115P12Il2CppObjectsaaaPK10MethodInfo
ULl:__ZL85RectOffset_t1369453676_CustomAttributesCacheGenerator_RectOffset_get_left_m1621853196P21CustomAttributesCache
mcj:_AnimationEvent_get_stringParameter_m77381198
Qed:__ZNK5physx15NpActorTemplateINS_18PxArticulationLinkEE7getNameEv
Sql:__ZL54_MemberInfo_t3922476713_CustomAttributesCacheGeneratorP21CustomAttributesCache
rSe:__ZN20UnityWebRequestProtoI19TransportJavaScript16AtomicRefCounter14RedirectHelper14ResponseHelper15DownloadHandler13UploadHandler12HeaderHelper14AsyncOperationE5BeginEv
lym:_glGetActiveUniformsiv__wrapper
_xc:__Z43Register_UnityEngine_Material_EnableKeywordv
YOc:__ZNK5physx3Cct10Controller16getInternalStateERNS_17PxControllerStateE
$ba:__ZN13MonoBehaviour19SetupScriptingCacheE17ScriptingClassPtrP10MonoScript
Bwk:__ZNSt3__214__split_bufferIP12Il2CppThreadRNS_9allocatorIS2_EEED2Ev
Fs:__Z20AnimationEventToMonoRK14AnimationEventR18MonoAnimationEvent
uai:__Z106RuntimeInvoker_Void_t1185182177_Single_t1397266774_Single_t1397266774_Single_t1397266774_Int32_t2950945753PFvvEPK10MethodInfoPvPS4_
eef:_FloatTween_set_targetValue_m3604919944_AdjustorThunk
Gaa:__ZNK15dense_hashtableINSt3__24pairIKiiEEi21InstanceIDHashFunctorN14dense_hash_mapIiiS4_NS0_8equal_toIiEE13stl_allocatorIS3_L18MemLabelIdentifier1ELi16EEE9SelectKeyES7_SA_E13find_positionERS2_
rba:__ZN17PersistentManager29ReadAndActivateObjectThreadedEiRK26SerializedObjectIdentifierP14SerializedFilebb
Vvf:_ArrayList_get_IsReadOnly_m913775115
L8e:_PointerEventData_get_dragging_m746831934
SCi:_Type_get_TypeHandle_m160082026
rLd:__ZN5physx10PxsContext15setScratchBlockEPvj
lVg:_ReadOnlyCollection_1_System_Collections_IEnumerable_GetEnumerator_m2781605075_gshared
Rtc:__Z52Register_UnityEngine_RectOffset_INTERNAL_CALL_Removev
Lhm:_TextEditor_SelectTextEnd_m304947097
Gia:__ZZN15DirectorManager15InitializeClassEvEN52PreLateUpdateDirectorUpdateAnimationBeginRegistrator7ForwardEv
PQf:_Array_get_swapper_TisCustomAttributeNamedArgument_t287865710_m4254011335_gshared
Ref:_Graphic_RegisterDirtyMaterialCallback_m106898453
Kjl:_Object_FindObjectsOfType_m2898745631
dqb:__ZN4PPtrI6SpriteE8TransferI14SafeBinaryReadEEvRT_
j0j:_EqualityComparer_1_System_Collections_IEqualityComparer_Equals_m1672604045_gshared
YJk:__ZN15dense_hashtableINSt3__24pairIK10KeyWrapperIP11Il2CppClassES4_EES5_N6il2cpp8metadata16SZArrayClassHashEN14dense_hash_mapIS5_S4_SA_NS5_14EqualsComparerINS9_19SZArrayClassCompareEEENS0_9allocatorIS7_EEE9SelectKeyESE_SG_E16reset_thresholdsEv
tzg:_List_1_GetEnumerator_m2095602005_gshared
Y1c:__ZN5physx2Cm27getDynamicGlobalPoseAlignedERKNS_11PxTransformES3_S3_RS1_
e5b:__ZNSt3__26vectorIN9ShaderLab14SerializedPassENS_9allocatorIS2_EEE8__appendEj
iae:__ZN5physx6shdfnd5ArrayIPvNS0_19ReflectionAllocatorIN17PxcPoolMallocData10PoolData32EEEE15growAndPushBackERKS2_
w4b:__ZNSt3__26vectorIN9ShaderLab20SerializedSubProgram13BufferBindingENS_9allocatorIS3_EEEC2INS_11__wrap_iterIPS3_EEEET_SB_RKS5_PNS_9enable_ifIXaasr21__is_forward_iteratorISB_EE5valuesr16is_constructibleIS3_NS_15iterator_traitsISB_E9referenceEEE5valueEvE4typeE
lxh:_Comparer_1__cctor_m3540714969_gshared
jji:__Z37RuntimeInvoker_Enumerator_t3436819725PFvvEPK10MethodInfoPvPS4_
Fvi:_Encoding_get_ISOLatin1_m2107621369
Chc:__ZZL23RegisterLightPropertiesR22GenericPropertyBindingEN20Wrapper_LightColorb213GetFloatValueEPv
wma:__ZNK13ScreenManager21IsMultiDisplayEnabledEv
aVi:_Logger_output_m2198400392
Rrm:_bitshift64Ashr
jdm:_RectOffset_ToString_m3907725150
Lol:__ZL72IntPtr_t_CustomAttributesCacheGenerator_IntPtr_op_Inequality_m3063970704P21CustomAttributesCache
eZj:_SafeBag_get_ASN1_m2293701606
fAb:__ZN9Texture2D23VirtualRedirectTransferER18StreamedBinaryReadILb0EE
nyf:_BitArrayEnumerator__ctor_m2359341397
vQj:_DefaultComparer__ctor_m3288720761_gshared
Ldi:__Z102RuntimeInvoker_Int32_t2950945753_RuntimeObject_Vector2_t2156229523_Int32_t2950945753_Int32_t2950945753PFvvEPK10MethodInfoPvPS4_
Bqk:__ZN30dense_hashtable_const_iteratorINSt3__24pairIK10KeyWrapperIPKcEP11Il2CppClassEES5_N6il2cpp5utils11StringUtils12StringHasherIS4_EEN14dense_hash_mapIS5_S8_SE_NS5_14EqualsComparerINSB_13VmStringUtils21CaseSensitiveComparerEEENS0_9allocatorIS9_EEE9SelectKeyESJ_SL_E30advance_past_empty_and_deletedEv
Irb:__ZNSt3__26__treeINS_12__value_typeIN4core12basic_stringIcNS2_20StringStorageDefaultIcEEEEjEENS_19__map_value_compareIS6_S7_NS_4lessIS6_EELb1EEE13stl_allocatorIS7_L18MemLabelIdentifier6ELi16EEE7destroyEPNS_11__tree_nodeIS7_PvEE
Hca:__ZN16ScriptingManager27NativeTypeForScriptingClassE17ScriptingClassPtr
Qgl:_Logger_Log_m2391612425
TFi:_UInt64_System_IConvertible_ToDateTime_m3434604642
NCi:_Type_get_IsSerializable_m1040556850
xYi:_WebSocket_setClientStream_m1894686314
zwe:_get_sfnt_table
G1f:_Array_Resize_TisUIVertex_t4057497605_m1219201596_gshared
Stl:__ZL55StreamWriter_t1266378904_CustomAttributesCacheGeneratorP21CustomAttributesCache
IIh:_Dictionary_2_System_Collections_ICollection_get_IsSynchronized_m256515291_gshared
Yac:__Z13RegisterClassI5LightEvv
Oke:__ZN5physx2Gu20registerHeightFieldsEv
GBb:__ZN8Renderer20RendererAddedToSceneEv
jeb:__ZL22ScheduleSceneNodesJobsP25ScheduleSceneNodesJobDataj
WTd:__ZN5physx22concludeContactCoulombERKNS_23PxcSolverConstraintDescERNS_16PxcSolverContextE
nl:_emscripten_set_canvas_size
RYi:_WebSocket_processFragmentFrame_m3897986702
fhf:_Graphic_SetVerticesDirty_m2124914069
pvd:__ZNK5physx15NpParticleFluid12getStiffnessEv
Y5f:_CultureInfo__ctor_m3285927757
quj:_MaskableGraphic_get_rootCanvasRect_m3492154629
B1f:_Array_Resize_TisRaycastResult_t3360306849_m1811054291_gshared
Cwk:__ZNSt3__214__split_bufferIP17Il2CppAsyncResultRN6il2cpp2gc9AllocatorIS2_EEEC2EjjS7_
jQg:_ReadOnlyCollection_1_System_Collections_Generic_ICollectionU3CTU3E_get_IsReadOnly_m3152485890_gshared
O4b:__ZNSt3__26vectorIN9ShaderLab20SerializedSubProgramENS_9allocatorIS2_EEE8__appendEj
D6:__ZN20DynamicHeapAllocatorI17LowLevelAllocatorE8AllocateEji
UKe:__ZN11UnityEngine9Analytics15UserCustomEvent12ToJsonStringER9JSONWrite
S4j:_Locale_GetText_m2427493201
fBh:_Enumerator_VerifyCurrent_m220886300_AdjustorThunk
R6a:__ZN20DynamicPropertySheet15SetVectorQueuedERKN9ShaderLab16FastPropertyNameERK8Vector4fN19ShaderPropertySheet8SetFlagsE
Kzg:_List_1_get_Item_m2254585396_gshared
iF:__ZN7mecanim9animation22EvaluateAvatarRetargetEPKNS0_14AvatarConstantEPKNS0_11AvatarInputEPNS0_12AvatarOutputEPNS0_12AvatarMemoryEPNS0_15AvatarWorkspaceEb
UMj:_InternalEnumerator_1_System_Collections_IEnumerator_Reset_m996811230_AdjustorThunk
Twb:__ZN14RenderSettings23VirtualRedirectTransferER19StreamedBinaryWriteILb0EE
m1i:_ConstructorBuilder_get_TypeBuilder_m2755629087
bIc:__ZL26Transfer_SimpleNativeClassI9JSONWrite10RectOffsetLb0EEvRK29SerializationCommandArgumentsR31RuntimeSerializationCommandInfo
B1k:_GC_push_conditional
fLe:__ZN21UnityAnalyticsManager23VirtualRedirectTransferER24GenerateTypeTreeTransfer
uPa:__ZN17GenericDynamicVBO10AllocateVBEjR21DynamicVBOChunkHandle
xdh:_ClientContext_get_SslStream_m1583577309
aYd:__ZL27PxcTestFacesSepAxesBackfaceRKN5physx2Gu13PolygonalDataES3_RKNS_2Cm8Matrix34ES7_RKNS4_23FastVertex2ShapeScalingESA_S7_RKNS_6PxVec3ERfRSB_RjPjSG_fSD_
GKf:_DBNull_ToString_m3638608738
TRk:__ZN30dense_hashtable_const_iteratorI10KeyWrapperIP18Il2CppGenericClassES3_N6il2cpp8metadata22Il2CppGenericClassHashEN14dense_hash_setIS3_S6_NS3_14EqualsComparerINS5_25Il2CppGenericClassCompareEEENSt3__29allocatorIS3_EEE8IdentityESA_SD_EppEv
kyf:_BitArray_Clone_m3537018332
qam:__ZL140U3CGetEnumeratorU3Ed__18_t170145290_CustomAttributesCacheGenerator_U3CGetEnumeratorU3Ed__18_System_Collections_IEnumerator_Reset_m3004204195P21CustomAttributesCache
dqi:_ObjectRecord_UnchainFixup_m3191243952
wkh:_TlsStream_get_CanWrite_m16389328
K1h:__Z65RuntimeInvoker_RuntimeObject_RuntimeObject_Vector3U26_t3464235976PFvvEPK10MethodInfoPvPS4_
Ll:_glMapBufferRange
Zzb:__ZN9Texture2D8TransferI18StreamedBinaryReadILb0EEEEvRT_
Tuc:__Z31Input_CUSTOM_GetMouseButtonDowni
Twc:__Z75Register_UnityEngine_Playables_PlayableHandle_INTERNAL_CALL_IsValidInternalv
_jc:__ZN13PlayableGraph4PlayEv
Cqd:__ZNK5physx7NpCloth23getExternalAccelerationEv
F3e:_String_Format_m3339413201
Eui:_EncoderExceptionFallbackBuffer_get_Remaining_m1573636148
Ung:_MonoType_get_BaseType_m1098640416
DGa:__ZN13LoadOperation19IntegrateTimeSlicedEi
Fkh:_TlsStream_Read_m3392972801
uVd:__ZN5physx16PxsBroadPhaseMBP9updatePPUEPNS_10PxBaseTaskE
qMa:__ZN13GfxDeviceGLES22DispatchComputeProgramE12ObjectHandleI18ComputeProgram_TagPvE15ComputeBufferIDj
fth:_SocketAsyncResult_CheckIfThrowDelayedException_m1547318945
mwi:_Latin1Encoding_GetString_m254210343
Ys:__ZNK13AnimationClip15GetAverageSpeedEv
QEa:__Z17TransformAABBSlowRK4AABBRK10Matrix4x4fRS_
UAb:__ZN15SerializeTraitsI13dynamic_arrayI7Hash128Lj8EEE19ResizeSTLStyleArrayERS2_i18MemLabelIdentifier
qwl:__ZL55GCHandleType_t3432586689_CustomAttributesCacheGeneratorP21CustomAttributesCache
uqf:_Array_combsort_m4052486289
SIk:__ZN13Il2CppHashMapINSt3__24pairIPK9FieldInfoP11Il2CppClassEEj17ReflectionMapHashIS7_ENS0_8equal_toIS7_EENS0_9allocatorINS1_IK10KeyWrapperIS7_EjEEEEEC2EjRKS9_RKSB_
mtg:_List_1_System_Collections_ICollection_get_SyncRoot_m314215814_gshared
y3b:__ZN9ShaderLab21SerializedShaderState8TransferI14SafeBinaryReadEEvRT_
mPf:_Environment_GetWindowsFolderPath_m1738399646
qEg:_Queue_1_System_Collections_Generic_IEnumerableU3CTU3E_GetEnumerator_m2263220760_gshared
ABg:_List_1_Sort_m378918663_gshared
dYl:__ZL87GUIStyle_t3956901511_CustomAttributesCacheGenerator_GUIStyle_get_fixedWidth_m1654655369P21CustomAttributesCache
BJk:__ZN15dense_hashtableINSt3__24pairIK10KeyWrapperINS1_IP11Il2CppClassjEEES4_EES6_N6il2cpp8metadata14ArrayClassHashEN14dense_hash_mapIS6_S4_SB_NS6_14EqualsComparerINSA_17ArrayClassCompareEEENS0_9allocatorIS8_EEE9SelectKeyESF_SH_E12expand_arrayEjN21dense_hash_map_traits17integral_constantIbLb0EEE
q$j:_DefaultComparer_GetHashCode_m77036565_gshared
uAe:_cf2_stack_pushInt
sI:__ZN7mecanim9animation20DestroyLayerConstantEPNS0_13LayerConstantERNS_6memory9AllocatorE
qDj:_U3CGetEnumeratorU3Ec__Iterator0_System_Collections_IEnumerator_get_Current_m3208659014_gshared
yxd:__ZN5physx6shdfnd8PoolBaseINS_16NpParticleSystemENS0_19ReflectionAllocatorIS2_EEE12allocateSlabEv
wjg:_StreamAsyncResult_get_AsyncState_m3822420114
Jti:_CryptoConfig_EncodeOID_m2635914623
eWl:__ZL102CanvasRenderer_t2598313366_CustomAttributesCacheGenerator_CanvasRenderer_set_materialCount_m3744103248P21CustomAttributesCache
Yva:__ZN15SerializeTraitsINSt3__24pairIN4core12basic_stringIcNS2_20StringStorageDefaultIcEEEES6_EEE8TransferI24GenerateTypeTreeTransferEEvRS7_RT_
Nzm:b89
Mzm:b88
vym:b81
uym:b80
zTa:__ZN7ApiGLES19CreateSparseTextureEjj14GraphicsFormatiiiiRiS1_S1_
lda:__ZN18ResourceImageGroup7CleanupEv
Jzm:b85
M4c:__ZN5physx2Gu36closestPtPointTetrahedronTesselationEPNS_6shdfnd3aos5Vec3VES4_S4_RjRS3_S6_
Lzm:b87
d4e:_String_CharCopy_m3838781968
qr:__ZN11Quaternionf8TransferI24GenerateTypeTreeTransferEEvRT_
pYd:__ZN5physx25PxcPCMContactSphereConvexERKNS_2Gu13GeometryUnionES3_RKNS_11PxTransformES6_RKfRNS_10PxcNpCacheERNS0_13ContactBufferE
nmi:_RemotingSurrogateSelector_GetSurrogate_m3900875713
q0h:__Z69RuntimeInvoker_Boolean_t97287965_UInt16_t2177724958_Int16_t2552820387PFvvEPK10MethodInfoPvPS4_
ihc:__ZN13ProduceHelperI4MeshLb0EE7ProduceE18MemLabelIdentifier18ObjectCreationMode
S5d:__ZN5physx2Cm18DelegateFanoutTaskINS_2Sc5SceneEXadL_ZNS3_20particlePostShapeGenEPNS_10PxBaseTaskEEEED0Ev
ISg:_ReadOnlyCollection_1_System_Collections_IList_get_IsReadOnly_m3626439112_gshared
Pbh:_CertificateValidationCallback_Invoke_m1014111289
Mxb:__ZN8Playable19SetOutputConnectionEPS_i
mNg:__ZN23InterfaceActionInvoker2Ii19Vector2_t2156229523E6InvokeEjP11Il2CppClassP12Il2CppObjectiS0_
Spk:__ZN15dense_hashtableINSt3__24pairIK10KeyWrapperIPK11Il2CppClassEPKcEES6_N6il2cpp5utils11PointerHashIS3_EEN14dense_hash_mapIS6_S9_SE_NS6_14EqualsComparerINS0_8equal_toIS5_EEEENS0_9allocatorISA_EEE9SelectKeyESJ_SL_EC2ERKSO_j
zm:_glDeleteShader
SU:__ZN11SoundHandle8Instance15UpdateLoadStateEv
qza:__ZN6prcoreL17RemapGenericFloatI15TexFormatRGHalf16TexFormatRGFloatEEvPKNS_9InnerInfoE
v2f:_Array_Sort_TisUICharInfo_t75501106_m128665067_gshared
HXe:_RSAPKCS1SignatureDeformatter_SetHashAlgorithm_m1602190713
cfh:_Context_set_SentConnectionEnd_m1367645582
uld:__ZN5physx6shdfnd8PoolBaseINS_10NpMaterialENS0_19ReflectionAllocatorIS2_EEE15disposeElementsEv
hIh:_Dictionary_2_CopyToCheck_m45332585_gshared
$yg:_List_1_System_Collections_ICollection_get_IsSynchronized_m3630704857_gshared
OGj:_InternalEnumerator_1_System_Collections_IEnumerator_Reset_m4239728915_AdjustorThunk
pqc:__Z27scripting_add_internal_callPKcPKv
s9h:__Z38RuntimeInvoker_ContentType_t1787303396PFvvEPK10MethodInfoPvPS4_
I6g:_AppDomain_Load_m4174353770
iTk:__GLOBAL__sub_I_GarbageCollector_cpp
C8:__Z17GetPlayerSettingsv
pQc:__ZL21ContactReductionAllInRN5physx2Gu13ContactBufferEjjRKNS_7PxMat33EPKNS_6PxVec3EPKh
JF:__ZN34BlobWriteTransferSTLStyleArrayImplI22OffsetPtrArrayTransferIiEEclERS1_17TransferMetaFlagsR9BlobWrite
M0f:_Array_qsort_TisByte_t1134296376_m726517433_gshared
iPh:__Z141RuntimeInvoker_Boolean_t97287965_RuntimeObject_Int32_t2950945753_RuntimeObject_SByte_t1669577662_Int64U26_t200113976_ExceptionU26_t3600731591PFvvEPK10MethodInfoPvPS4_
xxj:_ScrollRect_get_content_m2477524320
dAh:_Enumerator_MoveNext_m1556953412_AdjustorThunk
Qx:__ZN26AnimatorControllerPlayable18SetLayerAutoWeightEv
gc:invoke_vffff
uHe:__ZN2UI14CanvasRenderer12SyncMaterialENS0_8SyncFlagE
lkg:_StreamWriter_Write_m1660535366
Ghl:_Matrix4x4_MultiplyPoint3x4_m1691748578_AdjustorThunk
lfi:__Z66RuntimeInvoker_Void_t1185182177_Int32_t2950945753_Link_t3209266973PFvvEPK10MethodInfoPvPS4_
o5k:__ZN6il2cpp2vm9Parameter30GetDefaultParameterValueObjectEPK10MethodInfoPK13ParameterInfoPb
kac:__ZN15dense_hashtableINSt3__24pairIKN4core12basic_stringIcNS2_20StringStorageDefaultIcEEEE10vector_setI4PPtrI11SpriteAtlasENS0_4lessISB_EE13stl_allocatorISB_L18MemLabelIdentifier79ELi16EEEEES6_20StringHash32FunctionIS6_EN14dense_hash_mapIS6_SH_SK_NS0_8equal_toIS6_EESE_ISI_LSF_79ELi16EEE9SelectKeyESN_SO_E12maybe_shrinkEv
gyi:_UTF8Encoding_GetByteCount_m4152118078
ush:_ServicePoint_set_UseNagleAlgorithm_m1374731041
I2g:_KeyPairPersistence__CanSecure_m3516574278
cd:invoke_iiiiiiiii
$Ih:_Dictionary_2_make_pair_m3116882385_gshared
yVe:_MD5CryptoServiceProvider_Dispose_m3502499818
z0j:_EqualityComparer_1_get_Default_m2359341649_gshared
Bfd:__ZN5physx19NpRigidBodyTemplateINS_18PxArticulationLinkEE16setRigidBodyFlagENS_15PxRigidBodyFlag4EnumEb
obm:_Ray_ToString_m943070480
xJg:_Collection_1_System_Collections_IList_get_Item_m2422562729_gshared
a7h:__Z85RuntimeInvoker_Void_t1185182177_RuntimeObject_Int32_t2950945753_IntPtrU26_t2465655971PFvvEPK10MethodInfoPvPS4_
Dxh:_Comparer_1_get_Default_m1596450988_gshared
Bw:__ZN14AnimationEvent8TransferI19StreamedBinaryWriteILb0EEEEvRT_
Cv:__ZN7mecanim9animation9DenseClip8TransferI24GenerateTypeTreeTransferEEvRT_
Npl:__ZL74RuntimeArray_CustomAttributesCacheGenerator_Array_BinarySearch_m3171087170P21CustomAttributesCache
mpl:__ZL72Enum_t4135868527_CustomAttributesCacheGenerator_Enum_ToObject_m122225012P21CustomAttributesCache
qwe:_UNITY_tt_face_done_kern
Mch:_SecurityParameters_get_ServerWriteMAC_m3430427271
Ani:_ObjRef_GetObjectData_m270012899
UDj:_ArrayReadOnlyList_1_RemoveAt_m2104218585_gshared
uEc:__Z59GUIStyle_CUSTOM_Internal_GetNumCharactersThatFitWithinWidth13Il2Cpp_IntPtrP12Il2CppStringf
gGb:__ZN12BoneWeights48TransferI24GenerateTypeTreeTransferEEvRT_
SUf:_Array_InternalArray__IEnumerable_GetEnumerator_TisParameterModifier_t1461694466_m3675077728_gshared
WP:__Z62AnimationPlayableOutput_CUSTOM_INTERNAL_CALL_InternalSetTargetR15HPlayableOutputP12Il2CppObject
m5l:__ZL60RawImage_t3182918964_CustomAttributesCacheGenerator_m_UVRectP21CustomAttributesCache
zoa:__Z19scripting_gc_enablev
ZRe:__ZN20UnityWebRequestProtoI19TransportJavaScript16AtomicRefCounter14RedirectHelper14ResponseHelper15DownloadHandler13UploadHandler12HeaderHelper14AsyncOperationE9DoRequestEv
i0a:__ZZ23InitPlayerLoopCallbacksvEN41InitializationPlayerUpdateTimeRegistrator7ForwardEv
Gje:__ZN5physx7profile11EventBufferINS_24PxDefaultContextProviderENS_6shdfnd6MutexTINS0_26WrapperReflectionAllocatorIhEEEENS0_14ScopedLockImplIS7_EENS_24PxProfileNullEventFilterEE9stopEventEty
flb:__Z29StdTemplateConversionFunctionIihEbPvR14SafeBinaryRead
HNj:_InternalEnumerator_1_System_Collections_IEnumerator_get_Current_m3854084659_gshared
$ef:_DefaultControls__cctor_m3473226132
GFb:__ZN14SafeBinaryRead21TransferSTLStyleArrayI13dynamic_arrayI11ColorRGBA32Lj4EEEEvRT_17TransferMetaFlags
iDh:_Transform_1__ctor_m1781248964_gshared
Yvf:_ArrayList_EnsureCapacity_m3016383533
S4l:__ZL118U3CCaretBlinkU3Ec__Iterator0_t2589889038_CustomAttributesCacheGenerator_U3CCaretBlinkU3Ec__Iterator0_Reset_m1547565867P21CustomAttributesCache
HWa:__ZN9GfxDevice22UploadTextureCubeArrayE9TextureIDPKhjii14GraphicsFormati18TextureUploadFlags
xIj:_InternalEnumerator_1_System_Collections_IEnumerator_get_Current_m888718134_gshared
oIj:_InternalEnumerator_1_get_Current_m2894466703_gshared
SIf:_DateTime_FromTicks_m4059645178_AdjustorThunk
Rql:__ZL67ICustomAttributeProvider_t1530824137_CustomAttributesCacheGeneratorP21CustomAttributesCache
FVj:_ConfigHandler_ParseTime_m1787834288
i7b:__ZN9ShaderLab7Program27CreateFromSerializedProgramERKNS_17SerializedProgramE10ShaderTypeiP16PropertyNamesSetPK6Shader
Afm:_SendMouseEvents_SendEvents_m2250241314
j$i:_Assembly_Load_m3487507613
u8b:__ZNSt3__27__sort4IRNS_6__lessIN4core12basic_stringIcNS2_20StringStorageDefaultIcEEEES6_EEPS6_EEjT0_SA_SA_SA_T_
Etm:dynCall_viiiifii
eHk:__ZN6il2cpp2gc19AppendOnlyGCHashMapINSt3__24pairIPK11Il2CppImageP11Il2CppClassEEP22Il2CppReflectionModule17ReflectionMapHashIS9_ENS2_8equal_toIS9_EEEC2Ev
aml:_PlayableHandle_SetDuration_m199990808
Saa:__Z20GetPersistentManagerv
HDe:_UNITY_TT_Set_Var_Design
XOl:__ZL84Object_t631007953_CustomAttributesCacheGenerator_Object_FindObjectOfType_m1736538631P21CustomAttributesCache
Qla:__ZN21SystemInfoStringCache16StaticInitializeEPv
wDl:__ZL80Convert_t2465617642_CustomAttributesCacheGenerator_Convert_ToDecimal_m1695757674P21CustomAttributesCache
Xlh:_NameObjectCollectionBase_FindFirstMatchedItem_m840305173
r3c:__ZN5physx2Sc7BodySim18internalWakeUpBaseEf
XXk:__ZN6il2cpp2gc16GarbageCollector23MakeDescriptorForObjectEPji
pTk:__ZNK10KeyWrapperIP12Il2CppObjectE14EqualsComparerINSt3__28equal_toIS1_EEEclERKS2_S9_
iOg:_Collection_1_IsSynchronized_m2291009199_gshared
HOb:__ZNK13MonoBehaviour7GetNameEv
_Aa:__ZN19ScriptingInvocation28AdjustArgumentsToMatchMethodEv
j7j:_IndexedSet_1_Contains_m1525966688_gshared
KY:__Z15_CheckFMODError11FMOD_RESULTPKciS1_
ULk:__ZN6il2cpp6icalls8mscorlib6SystemL16ThrowInvalidCastEPK11Il2CppClassS5_
Eub:__Z20RenderMultipleMeshesRK15RenderNodeQueueRK18RenderMultipleData17ShaderChannelMask
P1j:_EqualityComparer_1_get_Default_m79107703_gshared
muj:_MaskableGraphic_get_maskable_m1260382606
Ivi:_Latin1Encoding__ctor_m498920120
$Bk:__ZN6il2cpp2vm4Type19GetGenericParameterEPK10Il2CppType
Jjg:_StreamReader_Peek_m2272511193
H8f:_DateTimeFormatInfo_FillAllDateTimePatterns_m2683124783
QIe:__Z51Register_UnityEngine_CanvasGroup_get_blocksRaycastsv
NBd:__ZN5physx20NpRigidActorTemplateINS_13PxRigidStaticEE15exportExtraDataERNS_22PxSerializationContextE
Oog:_NumberFormatter_get_IsFloatingSource_m3714711779
qfm:_MovedFromAttribute__ctor_m1576224919
MLc:__ZN8JSONRead21TransferSTLStyleArrayI13dynamic_arrayI11ColorRGBA32Lj4EEEEvRT_18MemLabelIdentifier17TransferMetaFlags
z7d:__ZN5physx13BigConvexData5VLoadERNS_13PxInputStreamE
cIj:_InternalEnumerator_1_System_Collections_IEnumerator_Reset_m169899350_AdjustorThunk
wDi:_Type_GetConstructor_m1195697116
be:_glBeginQuery
gtl:__ZL104RegionInfo_t1090270226_CustomAttributesCacheGenerator_RegionInfo_t1090270226____DisplayName_PropertyInfoP21CustomAttributesCache
TJ:__ZN18AnimatorController19TransferRuntimeDataI24GenerateTypeTreeTransferEEvRT_
Q4h:__Z137RuntimeInvoker_AnimationOffsetPlayable_t2887420414_PlayableGraph_t3515989261_Vector3_t3722313464_Quaternion_t2301928331_Int32_t2950945753PFvvEPK10MethodInfoPvPS4_
m$k:__ZN6il2cpp2vmL9ends_withEPKcS2_
BNd:__ZN5physx11NodeManager6resizeEj
BAm:b110
b2a:__ZN6Camera12RenderStereoENS_10RenderFlagE8CullFlagPNS_24PerformEyeRenderFunctionE
Qma:__ZN20LocalFileSystemPosix10ToAbsoluteEPKc
uub:__ZN20TierGraphicsSettings8TransferI19StreamedBinaryWriteILb0EEEEvRT_
LAm:b111
Zkj:_AudioClipPlayable_GetPauseDelay_m4002272443_AdjustorThunk
y_k:__ZN6il2cpp2vm13ComObjectBase16DisconnectObjectEj
$Gd:__ZNK5physx7NpScene28getSceneQueryStaticTimestampEv
q3j:_GenericComparer_1__ctor_m3652072706_gshared
gn:f0
uq:__ZN6Object17MainThreadCleanupEv
Vtb:__Z32TransferEnumWithNameForceIntSizeI14SafeBinaryRead7HDRModeEvRT_RT0_PKc17TransferMetaFlags
Pom:_getcwd
qge:__ZNSt3__26vectorI9CollisionNS_9allocatorIS1_EEE21__push_back_slow_pathIKS1_EEvRT_
Zpj:_Component_GetComponent_m2813676312
Dob:__ZN25ThreadsafeLinearAllocatorD2Ev
aPd:__ZN5physx2Sq10AABBPruner11preallocateEj
Yoa:__Z21SendMessageToEveryoneRK17MessageIdentifier11MessageData
Yga:__ZN21BillboardBatchManager16StaticInitializeEPv
VAm:b117
BEf:_DateTime_AbsoluteDays_m4235097773
M7:__ZN12_GLOBAL__N_138ArchiveRedirectFileSystemStaticDestroyEPv
Dql:__ZL126U3CGetEnumeratorU3Ec__Iterator0_t1202911786_CustomAttributesCacheGenerator_U3CGetEnumeratorU3Ec__Iterator0_Dispose_m2078994225P21CustomAttributesCache
xOh:__Z74RuntimeInvoker_RuntimeObject_RuntimeObject_RuntimeObject_SByte_t1669577662PFvvEPK10MethodInfoPvPS4_
Nql:__ZL69Type_t_CustomAttributesCacheGenerator_Type_GetConstructor_m1195697116P21CustomAttributesCache
_ef:_DefaultControls_CreateScrollView_m3842770629
Kyb:__ZN12CubemapArray34UpdateFileTextureUploadInstructionEP26FileAssetUploadInstructionj
AEd:__ZN5physx2Sc19ShapeInstancePairLLC2ERNS0_8ShapeSimES3_RNS0_9ActorPairENS_7PxFlagsINS_10PxPairFlag4EnumEtEE
aul:__ZL94EnumBuilder_t2400448213_CustomAttributesCacheGenerator_EnumBuilder_GetConstructors_m3294436155P21CustomAttributesCache
re:_emscripten_glUniform3iv
ugi:__Z55RuntimeInvoker_TableRange_t3332867892_Int32_t2950945753PFvvEPK10MethodInfoPvPS4_
XKj:_InternalEnumerator_1_MoveNext_m1020308708_gshared
yTa:__Z23CreateSparseTextureGLES9TextureIDii14GraphicsFormati
Iag:_Guid_CompareTo_m243656946_AdjustorThunk
YPf:_CCMath_mod_m3631663509
XBi:_TimeSpan_Negate_m1889505500_AdjustorThunk
_Sg:_ReadOnlyCollection_1_System_Collections_ICollection_CopyTo_m2715087453_gshared
ggk:_UnityAction_1_Invoke_m3205374586_gshared
sCh:_Transform_1__ctor_m2810088858_gshared
$re:__ZNSt3__23mapIN20TextRenderingPrivate7FontRefEP11FT_FaceRec_NS_4lessIS2_EENS_9allocatorINS_4pairIKS2_S4_EEEEEixERS9_
dYa:__ZN17ArchiveFileSystem10AddStorageEP20ArchiveStorageReader
Hfd:__ZN5physx19NpRigidBodyTemplateINS_18PxArticulationLinkEE27setMaxDepenetrationVelocityEf
ltd:__ZN5physx2Sc9ClothCore16setStretchConfigENS_22PxClothFabricPhaseType4EnumERKNS_20PxClothStretchConfigE
Gra:__ZN14SafeBinaryRead23IsVersionSmallerOrEqualEi
Ale:_PxCreateFoundation
Vuk:__ZN6il2cpp2vm13MetadataCache37GetParameterDefaultValueDataFromIndexEi
Fzk:_il2cpp_class_get_assemblyname
DYh:__Z50RuntimeInvoker_SByte_t1669577662_SByte_t1669577662PFvvEPK10MethodInfoPvPS4_
Lhf:_Graphic_OnFillVBO_m1026749972
Unk:__ZN6il2cpp2vm5Class15GetEnumBaseTypeEP11Il2CppClass
gfh:_Context_set_WriteSequenceNumber_m942577065
Hwh:_X509CertificateEnumerator_Reset_m4026698923
O_k:__ZNK6il2cpp5utils13VmStringUtils23CaseInsensitiveComparerclERKNSt3__212basic_stringIcNS3_11char_traitsIcEENS3_9allocatorIcEEEEPKc
lcf:_CanvasScaler_SetScaleFactor_m3006968999
Tii:__Z78RuntimeInvoker_Boolean_t97287965_Navigation_t3049316579_Navigation_t3049316579PFvvEPK10MethodInfoPvPS4_
rzb:__ZNK9Texture2D16GetNpotTexelSizeEv
Kog:_NumberFormatter_Init_m3576155222
$Pf:_CCMath_div_m3792567336
Qrj:_Display_get_systemWidth_m2297141419
Mwf:_ArrayListWrapper_IndexOf_m3692065720
q6e:_EventSystem_set_sendNavigationEvents_m983981895
lme:__ZN13dynamic_arrayItLj2EE6insertEPtPKtS3_
SNk:__ZN6il2cpp2vm9Exception18GetSystemExceptionEv
Uv:__ZN18StreamedBinaryReadILb0EE8TransferINSt3__26vectorIN13AnimationClip12Vector3CurveE13stl_allocatorIS5_L18MemLabelIdentifier25ELi16EEEEEEvRT_PKc17TransferMetaFlags
Prf:__ZN21InterfaceFuncInvoker1ItP12Il2CppObjectE6InvokeEjP11Il2CppClassS1_S1_
zPa:__ZN9GfxDevice22GetDefaultVertexBufferE26GfxDefaultVertexBufferTypej
wRf:_Array_InternalArray__ICollection_Contains_TisInt64_t3736567304_m2911357929_gshared
KJg:_Collection_1_Remove_m3022471627_gshared
fpm:___fseeko_unlocked
lpg:_Object_ToString_m1740002499
zOl:__ZL81Object_t631007953_CustomAttributesCacheGenerator_Object_Destroy_m1895515052____t1P21CustomAttributesCache
L$c:__ZN5physx3Cct17CapsuleControllerC2ERKNS_16PxControllerDescERNS_9PxPhysicsEPNS_7PxSceneE
P7e:_ExecuteEvents_GetEventChain_m2404658789
mxa:__Z17BeginSplashScreenv
F1f:_Array_Resize_TisUILineInfo_t4195266810_m3763058392_gshared
QXf:_Array_InternalArray__IndexOf_TisWorkRequest_t1354518612_m2756027586_gshared
t6b:__ZN9ShaderLab16SerializedShader8TransferI19StreamedBinaryWriteILb0EEEEvRT_
Rmk:_TrackableProperty_GetHashCode_m3407865350
AH:__ZN7mecanim9animation18CreateAvatarMemoryEPKNS0_14AvatarConstantERNS_6memory9AllocatorE
Guf:_Convert_ToInt32_m1876369743
Z7g:_ModulusRing__ctor_m2420310199
HEf:_Convert_ToDateTime_m626620011
UNh:_DefaultComparer__ctor_m3289136477_gshared
xAh:_Enumerator_System_Collections_IDictionaryEnumerator_get_Key_m2500634048_AdjustorThunk
sG:__ZN7mecanim8skeleton16SkeletonPoseCopyIN4math4trsXENS2_7affineXEEEvPKNS0_13SkeletonPoseTIT_EEPNS5_IT0_EE
YYb:__Z18Transfer_BlittableI19StreamedBinaryWriteILb0EELb0EaEvRK29SerializationCommandArgumentsR31RuntimeSerializationCommandInfo
ePa:__ZN18GfxFramebufferGLES18GetFramebufferNameERK20GfxRenderTargetSetup
dph:_IPAddress__ctor_m921977496
Dmf:_InputField_MoveDown_m1455948167
HOk:__ZN6il2cpp6icalls8mscorlib6System2IO6MonoIO11GetFileTypeE12Il2CppIntPtrPi
JCc:__Z30Event_Get_Custom_PropCharacterP12Il2CppObject
Ria:__ZN13PlayableGraph27SchedulePlayableDestructionERK9HPlayable
gmg:_MethodAccessException__ctor_m3542088436
WXc:__ZN5physx6shdfnd5ArrayINS_12PxDebugPointENS0_19ReflectionAllocatorIS2_EEE15growAndPushBackERKS2_
RSl:__ZL136AnimationOffsetPlayable_t2887420414_CustomAttributesCacheGenerator_AnimationOffsetPlayable_INTERNAL_CALL_SetPositionInternal_m2907024768P21CustomAttributesCache
oxm:_glGetFramebufferAttachmentParameteriv__wrapper
BUj:_ChannelServices_GetCurrentChannelInfo_m3041604116
gRe:__Z13RegisterClassI20UnityConnectSettingsEvv
ZNj:_InternalEnumerator_1__ctor_m2635640285_AdjustorThunk
RSb:__Z22scripting_array_length17ScriptingArrayPtr
xkg:_SynchronizedReader_Peek_m148942882
nej:_AnimationOffsetPlayable_SetRotationInternal_m3565349670
vee:__ZN8Collider13AwakeFromLoadE17AwakeFromLoadMode
O9l:__ZL145U3CSplitHeaderValueU3Ed__f_t2698790447_CustomAttributesCacheGenerator_U3CSplitHeaderValueU3Ed__f_System_Collections_IEnumerator_Reset_m2409622282P21CustomAttributesCache
VXi:_WebSocket_checkHandshakeResponse_m3915429440
pEa:__ZN14SafeBinaryRead20TransferTypelessDataEjPvi
ECd:__ZN5physx6shdfnd13ReadWriteLockC2Ev
AJb:__ZN14SpriteRenderer18UpdateCachedSpriteEb
w$h:__Z82RuntimeInvoker_IntPtr_t_Int32_t2950945753_SByte_t1669577662_RuntimeObject_IntPtr_tPFvvEPK10MethodInfoPvPS4_
VGc:__ZN9rapidjson13GenericReaderINS_4UTF8IcEES2_13JSONAllocatorE10ParseFalseILj1ENS_25GenericInsituStringStreamIS2_EENS_15GenericDocumentIS2_S3_S3_EEEEvRT0_RT1_
Zxe:_Horizontal_Sweep_Init
pY:__ZN13dynamic_arrayI12SoundChannelLj4EE9push_backERKS0_
A8:__Z19GetActiveColorSpacev
Jve:_UNITY_tt_face_load_kern
f8i:_MonoMethodInfo_GetDeclaringType_m2924452727
h9:__Z6StrCmpPKcS0_
jYf:_Array_InternalArray__ICollection_Add_TisByte_t1134296376_m2816118303_gshared
dJg:_Collection_1_SetItem_m2280602743_gshared
S7b:__Z21CheckGpuProgramUsable20ShaderGpuProgramType
KGi:_UIntPtr__ctor_m4250165422_AdjustorThunk
lXk:__ZN6il2cpp2os9Directory20GetFileSystemEntriesERKNSt3__212basic_stringIcNS2_11char_traitsIcEENS2_9allocatorIcEEEESA_iiPi
Rel:_GUIStyle_set_wordWrap_m3423085392
Yof:_Array_System_Collections_IList_Add_m1063688101
Vhd:__ZN5physx6shdfnd5ArrayIPvNS0_19ReflectionAllocatorINS_2Cm5BlockIhLj128EEEEEE4copyINS0_15InlineAllocatorILj256ES7_EEEEvRKNS1_IS2_T_EE
f5l:__ZL66Navigation_t3049316579_CustomAttributesCacheGenerator_m_SelectOnUpP21CustomAttributesCache
_qe:__ZN20TextRenderingPrivate19NativeTextGenerator5SetupEv
$Ri:_Uri_TryCreate_m385949523
wNi:_PatternCompiler_EmitAlternationEnd_m2444359097
gsl:__ZL57CollectionBase_t2727926298_CustomAttributesCacheGeneratorP21CustomAttributesCache
Ald:__ZN5physx6shdfnd8PoolBaseINS_16NpConnectorArrayENS0_19ReflectionAllocatorIS2_EEE15disposeElementsEv
BMb:__ZN12AspectRatios8TransferI18StreamedBinaryReadILb0EEEEvRT_
Jme:__ZN14PhysicsManager19CreatePvdConnectionEv
tGf:_Convert_ToInt64_m3916071102
sjc:__ZN10GameObject14CopyPropertiesERS_
ZEc:__Z44Register_UnityEngine_GUIStyle_get_fixedWidthv
wSf:_Array_InternalArray__ICollection_Remove_TisLink_t544317964_m1280781374_gshared
LWk:__ZNSt3__214__split_bufferIN6il2cpp2os10ThreadImpl10APCRequestERNS_9allocatorIS4_EEEC2EjjS7_
srf:_BitConverter_DoubleWordsAreSwapped_m1474345095
pwj:__Z14bankers_roundff
kkb:__ZNK13ScreenManager12IsFullScreenEv
dxf:_FixedSizeArrayListWrapper_set_Capacity_m4221053039
Apm:_rand
Rxm:_emscripten_glFramebufferRenderbuffer__wrapper
wde:__ZNK8Collider16SupportsMaterialEv
g8j:_ListPool_1__cctor_m3480273184_gshared
Jkd:__ZNK5physx12NpConstraint9getActorsERPNS_12PxRigidActorES3_
NAj:_Slider_FindSelectableOnLeft_m1667068522
kYk:__ZN6il2cpp5utils9PathUtils7CombineIcEENSt3__212basic_stringIT_NS3_11char_traitsIS5_EENS3_9allocatorIS5_EEEERKNS0_10StringViewIS5_EERKSA_
v7e:__ZN23InterfaceActionInvoker1IP25BaseEventData_t3903027533E6InvokeEjP11Il2CppClassP12Il2CppObjectS1_
FTb:__ZN14SafeBinaryRead21TransferSTLStyleArrayINSt3__26vectorI17AnimationCurveTplIfE13stl_allocatorIS4_L18MemLabelIdentifier1ELi16EEEEEEvRT_17TransferMetaFlags
Rrc:__Z60Register_UnityEngine_AsyncOperation_set_allowSceneActivationv
cae:__ZN5physx6shdfnd8PoolBaseIN17PxcPoolMallocData10PoolData16ENS0_19ReflectionAllocatorIS3_EEE15disposeElementsEv
aee:__ZN9Rigidbody23UpdateInterpolationNodeEv
lFk:__ZN15dense_hashtableINSt3__24pairIK10KeyWrapperINS1_IPK11Il2CppImageP11Il2CppClassEEEjEES9_17ReflectionMapHashIS8_EN14dense_hash_mapIS9_jSD_NS9_14EqualsComparerINS0_8equal_toIS8_EEEENS0_9allocatorISB_EEE9SelectKeyESI_SK_E12expand_arrayEjN21dense_hash_map_traits17integral_constantIbLb0EEE
gZe:_SymmetricAlgorithm_set_IV_m3196220308
Rdb:__Z22PrepareOptimizedPlanesPK5PlaneiPKN4math7_float4E
kIj:_InternalEnumerator_1__ctor_m1559487635_gshared
e5:__ZN11UnityEngine15CloudWebService17WebFileDownloaderINS0_20WebRequestRestClientENS0_23WebRequestRestHeaderMapEE10InitializeERKN4core12basic_stringIcNS5_20StringStorageDefaultIcEEEE
Wga:__ZN17UniqueIDGenerator15CreatePureIndexEv
tFc:__Z59Register_UnityEngine_GUIStyle_Internal_GetCursorFlashOffsetv
ix:__ZN11UnityEngine9Animation28GenericAnimationBindingCache15DidReloadDomainEv
SUl:__ZL88Animator_t434523843_CustomAttributesCacheGenerator_Animator_SetTriggerString_m2642918599P21CustomAttributesCache
gcl:_GUIStyle_get_normal_m3768217120
CFd:__ZN5physx7NpScene8addActorERNS_7PxActorE
kL:__ZN19StreamedBinaryWriteILb0EE8TransferIN7mecanim9animation23BlendDirectDataConstantEEEvRT_PKc17TransferMetaFlags
WNl:__ZL92Sprite_t280657092_CustomAttributesCacheGenerator_Sprite_INTERNAL_get_textureRect_m2235628502P21CustomAttributesCache
ink:__ZN15dense_hashtableINSt3__24pairIK10KeyWrapperIPK22Il2CppGenericParameterEP11Il2CppClassEES6_N6il2cpp5utils11PointerHashIS4_EEN14dense_hash_mapIS6_S9_SE_NS6_14EqualsComparerINS0_8equal_toIS5_EEEENS0_9allocatorISA_EEE9SelectKeyESJ_SL_E14squash_deletedEv
nNb:__ZNSt3__26__treeINS_12__value_typeIN4core12basic_stringIcNS2_20StringStorageDefaultIcEEEE4PPtrI6ObjectEEENS_19__map_value_compareIS6_SA_NS_4lessIS6_EELb1EEE13stl_allocatorISA_L18MemLabelIdentifier51ELi16EEE7destroyEPNS_11__tree_nodeISA_PvEE
cAl:__ZL131RSACryptoServiceProvider_t2683512874_CustomAttributesCacheGenerator_RSACryptoServiceProvider_t2683512874____PublicOnly_PropertyInfoP21CustomAttributesCache
f$f:_Array_InternalArray__Insert_TisMark_t3471605523_m2854535880_gshared
g2d:__ZN21PxsParallelSolverTaskD0Ev
Nhc:__ZZL23RegisterLightPropertiesR22GenericPropertyBindingEN18Wrapper_LightRange13SetFloatValueEPvf
XUl:__ZL52HumanBone_t2465339518_CustomAttributesCacheGeneratorP21CustomAttributesCache
fv:__ZN14SafeBinaryRead21TransferSTLStyleArrayI13dynamic_arrayI11KeyframeTplI11QuaternionfELj4EEEEvRT_17TransferMetaFlags
IRa:__ZNSt3__26vectorI27ComputeShaderBuiltinSamplerNS_9allocatorIS1_EEE21__push_back_slow_pathIKS1_EEvRT_
$Jk:__ZN15dense_hashtableINSt3__24pairIK10KeyWrapperIP11Il2CppClassES4_EES5_N6il2cpp8metadata16SZArrayClassHashEN14dense_hash_mapIS5_S4_SA_NS5_14EqualsComparerINS9_19SZArrayClassCompareEEENS0_9allocatorIS7_EEE9SelectKeyESE_SG_E8min_sizeEjj
GTg:_ReadOnlyCollection_1_System_Collections_IList_Contains_m3063773648_gshared
rgl:_JsonUtility_FromJson_m3583248014
Q8:__ZNK9Transform18TransformDirectionERK8Vector3f
X5d:__ZN5physx21PxsBodyTransformVault6updateEv
k$a:__ZNK17ArchiveFileSystem12GetAssetGUIDERK13FileEntryData
J7b:__ZNSt3__26vectorIN9ShaderLab20SerializedSubProgram15MatrixParameterENS_9allocatorIS3_EEE21__push_back_slow_pathIKS3_EEvRT_
N6l:__ZL80CanvasScaler_t2767979955_CustomAttributesCacheGenerator_m_ReferencePixelsPerUnitP21CustomAttributesCache
Jzl:__ZL47HMAC_t2621101144_CustomAttributesCacheGeneratorP21CustomAttributesCache
K$g:_PrimalityTests_RabinMillerTest_m1471415870
Hqj:_ControllerColliderHit_get_collider_m1464046619
QPc:__ZL29GeomMTDCallback_CapsuleConvexRN5physx6PxVec3ERfRKNS_10PxGeometryERKNS_11PxTransformES5_S8_
t4i:_GenericTypeParameterBuilder_GetCustomAttributes_m580748276
Amk:_AnalyticsTracker_get_TP_m2800669040
Gtk:__ZN15dense_hashtableINSt3__24pairIK10KeyWrapperIPK11Il2CppClassEPKcEES6_N6il2cpp5utils11PointerHashIS3_EEN14dense_hash_mapIS6_S9_SE_NS6_14EqualsComparerINS0_8equal_toIS5_EEEENS0_9allocatorISA_EEE9SelectKeyESJ_SL_E12resize_deltaEjj
mQb:__ZN10MonoScript23VirtualRedirectTransferER17RemapPPtrTransfer
jrm:__ZNK10__cxxabiv120__si_class_type_info27has_unambiguous_public_baseEPNS_19__dynamic_cast_infoEPvi
c8g:_Kernel_LeftShift_m4140742987
Y_i:_Assembly_GetManifestResourceInternal_m1224391897
yPa:__Z30AddDefaultStreamsToMeshBuffersR9GfxDeviceR11MeshBuffersj17ShaderChannelMaskS3_
Ufa:__ZL16GetInterfaceImpl18UnityInterfaceGUID
lok:__ZN6il2cpp2vmL17SetupFieldOffsetsENS0_15FieldLayoutKindEP11Il2CppClassjRKNSt3__26vectorIjNS4_9allocatorIjEEEE
n_k:__ZN6il2cpp6icalls8mscorlib6System15MonoCustomAttrs27GetCustomAttributesInternalEP12Il2CppObjectP20Il2CppReflectionTypeb
hLj:_InternalEnumerator_1_get_Current_m1408339225_AdjustorThunk
oMc:__ZN8JSONRead21TransferSTLStyleArrayI13dynamic_arrayI8Vector3fLj4EEEEvRT_18MemLabelIdentifier17TransferMetaFlags
sNa:__Z24PluginsSetGraphicsDevicePvi18GfxDeviceEventType
xec:__ZN26SkinnedMeshRendererManager22InvalidatePreparationsER10GameObject
wjh:_InternalAsyncResult_get_FromWrite_m4228047810
EVh:__Z53RuntimeInvoker_MonoEventInfo_t346866618_RuntimeObjectPFvvEPK10MethodInfoPvPS4_
wMg:_Collection_1_CopyTo_m955200729_gshared
eOc:__ZNK5physx3Cct13BoxController11getPositionEv
lAa:__ZN14PreloadManager35WaitForAllAsyncOperationsToCompleteEv
Uyd:__ZN5physx14NpRigidDynamicC2ERKNS_11PxTransformE
sah:_MD5SHA1_HashCore_m4171647335
DTc:__Z27sweepCCTBox_HeightFieldGeomRKN5physx10PxGeometryERKNS_11PxTransformERKNS_2Gu3BoxERKNS_6PxVec3EfRNS_10PxSweepHitENS_7PxFlagsINS_9PxHitFlag4EnumEtEEf
qU:__ZL31InitializeAudioScriptingClassesv
G4a:__Z14SortGUIByDepthP10GUIElementS0_
YSi:_CookieCollection_Add_m3519574054
O4e:_DecoderExceptionFallback_GetHashCode_m1820789965
_fa:__ZN13RuntimeStaticI13dynamic_arrayIPK31TransferFunctionScriptingTraitsLj4EELb0EE16StaticInitializeEPv
ykl:_Physics_Raycast_m3906114327
wml:_PlayableOutputHandle_IsValid_m4106208918
J_h:__Z69RuntimeInvoker_UInt32_t2560061978_Int32_t2950945753_SByte_t1669577662PFvvEPK10MethodInfoPvPS4_
$G:__ZN12_GLOBAL__N_120ProcessRootMotionMixER33AnimationPlayableEvaluationOutputR35AnimationPlayableEvaluationConstantR32AnimationPlayableEvaluationInputS1_f
Lyj:_ScrollRect_UpdateOneScrollbarVisibility_m1785426292
jSi:_UriParser__cctor_m3655686731
yPc:__ZN5physx3Cct9SweepTest18updateTouchedGeomsEPKNS0_30InternalCBData_FindTouchedGeomERKNS0_13UserObstaclesERKNS_17PxExtendedBounds3ERKNS_19PxControllerFiltersERKNS_6PxVec3E
Hof:_LayoutRebuilder_U3Cs_RebuildersU3Em__0_m589488547
Nje:_PxCloseExtensions
gii:__Z53RuntimeInvoker_KeyValuePair_2_t71524366_RuntimeObjectPFvvEPK10MethodInfoPvPS4_
$ij:_AnimatorStateInfo_IsTag_m4246855624
Ana:__ZNK20LocalFileSystemPosix21GetAvailableDiskSpaceEPKcRy
Tla:__ZNSt3__26__treeIiNS_4lessIiEENS_9allocatorIiEEE7destroyEPNS_11__tree_nodeIiPvEE
cJa:__ZNK9GfxDevice14GetWorldMatrixEv
zGj:_InternalEnumerator_1_MoveNext_m3619293991_gshared
_Yk:__ZN15dense_hashtableINSt3__24pairIK10KeyWrapperIPK19Il2CppGenericMethodEP10MethodInfoEES6_N6il2cpp8metadata23Il2CppGenericMethodHashEN14dense_hash_mapIS6_S9_SD_NS6_14EqualsComparerINSC_26Il2CppGenericMethodCompareEEENS0_9allocatorISA_EEE9SelectKeyESH_SJ_E13set_empty_keyERKSA_
rAj:_Slider_get_value_m739683640
egb:__Z19scripting_array_new17ScriptingClassPtrjj
gGf:_Convert_ToInt32_m2128774575
iY:__ZN11SoundHandle13CreateChannelEb
TAi:_WaitHandle_Close_m956998739
qej:_AnimationOffsetPlayable__cctor_m94461170
kAi:_WaitCallback_BeginInvoke_m3012509827
GAb:__ZN14SafeBinaryRead21TransferSTLStyleArrayI13dynamic_arrayI12LightmapDataLj4EEEEvRT_17TransferMetaFlags
H9j:_Ext_Reverse_TisRuntimeObject_m3234066066_gshared
V4b:__ZNSt3__26vectorIN9ShaderLab20SerializedSubProgram16TextureParameterENS_9allocatorIS3_EEE6assignIPS3_EENS_9enable_ifIXaasr21__is_forward_iteratorIT_EE5valuesr16is_constructibleIS3_NS_15iterator_traitsISA_E9referenceEEE5valueEvE4typeESA_SA_
ksk:__ZN13Il2CppHashMapIN6il2cpp5utils13dynamic_arrayIPK10Il2CppTypeLj4EEEPFvvENS0_8metadata19Il2CppSignatureHashENS9_22Il2CppSignatureCompareENSt3__29allocatorINSC_4pairIK10KeyWrapperIS6_ES8_EEEEEC2EjRKSA_RKSB_
QSh:__Z122RuntimeInvoker_Void_t1185182177_RuntimeObject_RuntimeObject_ContractionU5BU5DU26_t2277527001_Level2MapU5BU5DU26_t359320357PFvvEPK10MethodInfoPvPS4_
MHk:__ZN15dense_hashtableINSt3__24pairIK10KeyWrapperIPK22Il2CppGenericParameterEPK24MonoGenericParameterInfoEES6_N6il2cpp5utils11PointerHashIS4_EEN14dense_hash_mapIS6_SA_SF_NS6_14EqualsComparerINS0_8equal_toIS5_EEEENS0_9allocatorISB_EEE9SelectKeyESK_SM_E15set_deleted_keyERKSB_
dti:_SByte_TryParse_m2431806379
JFl:__ZL64ObjectDisposedException_t21392786_CustomAttributesCacheGeneratorP21CustomAttributesCache
y9b:__ZN6prcoreL11inner_clearILj2EEEvPhjjj
KTe:_DSACryptoServiceProvider_get_KeySize_m786836990
g_h:__Z74RuntimeInvoker_RuntimeObject_RuntimeObject_SByte_t1669577662_RuntimeObjectPFvvEPK10MethodInfoPvPS4_
Zsd:__ZNK5physx2Sc9ClothCore20getNbCollisionPlanesEv
ph:_emscripten_exit_fullscreen
sMd:__ZN5physx6shdfnd5ArrayINS_9PxBounds3ENS0_15InlineAllocatorILj192ENS0_19ReflectionAllocatorIS2_EEEEE8recreateEj
NUd:__ZNK5physx23PxsBroadPhaseContextSap7getTypeEv
b8d:__ZNK5physx13GuMeshFactory17getNbHeightFieldsEv
t6f:_Object_MemberwiseClone_m1474068832
ZVk:__ZN6il2cpp6icalls8mscorlib6System6String19InternalAllocateStrEi
iMc:__Z29Transfer_Blittable_ArrayFieldI8JSONRead11QuaternionfEvRT_R9ArrayInfoRK23StaticTransferFieldInfo
Ipf:_Array_SetValue_m282347242
oPd:__ZNK5physx2Gu12OBBAABBTestsILb1EEclENS_6shdfnd3aos5Vec3VES5_
Fsc:__Z45Register_UnityEngine_Camera_get_targetDisplayv
Qgc:__ZNK24RendererAnimationBinding15GenerateBindingERKN4core12basic_stringIcNS0_20StringStorageDefaultIcEEEEbRN11UnityEngine9Animation14GenericBindingE
Kph:_IPv6Address__ctor_m3704187391
Jtb:__Z15GetFlareManagerv
qac:__ZN15ApplicationInfo24GetApplicationIdentifierEv
TOc:__ZN5physx3Cct9SweepTestD2Ev
jal:_GUI_get_changed_m3692887427
wpb:__ZN9Behaviour8TransferI18StreamedBinaryReadILb0EEEEvRT_
fE:__ZN8Animator13GetAvatarRootEv
fYc:__ZN26IntersectAnyVsMeshCallbackILi0ELb0EED2Ev
gkm:_Transform_get_localPosition_m265057664
R4:__ZN19CloudServiceHandler10QueueEventEPN11UnityEngine15CloudWebService14CloudEventInfoE
A7g:_BigInteger_get_Rng_m3283260184
OGh:_ValueCollection_System_Collections_IEnumerable_GetEnumerator_m1831587876_gshared
sGl:__ZL55EventHandler_t1348719766_CustomAttributesCacheGeneratorP21CustomAttributesCache
Wfk:_InvokableCall_1_Invoke_m873932240_gshared
bH:__ZN7mecanim9animation16EvaluateAvatarDXEPKNS0_14AvatarConstantEPKNS0_11AvatarInputEPNS0_12AvatarMemoryEPNS0_15AvatarWorkspaceEPNS0_12AvatarOutputE
G9e:_RaycastResult_ToString_m2678663776_AdjustorThunk
blj:_AudioClipPlayable_Seek_m2712115426_AdjustorThunk
b5f:_Array_InternalArray__get_Item_TisKeyValuePair_2_t2530217319_m2886833132_gshared
Dyj:_ScrollRect_OnEndDrag_m3202230060
mzc:__Z34Transform_CUSTOM_SetAsFirstSiblingP12Il2CppObject
GCk:__ZNK15dense_hashtableINSt3__24pairIK10KeyWrapperINS1_IPK14Il2CppAssemblyP11Il2CppClassEEEjEES9_17ReflectionMapHashIS8_EN14dense_hash_mapIS9_jSD_NS9_14EqualsComparerINS0_8equal_toIS8_EEEENS0_9allocatorISB_EEE9SelectKeyESI_SK_E10test_emptyEj
LSc:__ZN12_GLOBAL__N_141SphereMeshContactGenerationCallback_ScaleD0Ev
KZc:__ZN5physx3Cct17CapsuleController16setContactOffsetEf
FSi:_Ext_DecompressToArray_m1187738944
JSh:__Z63RuntimeInvoker_Void_t1185182177_RuntimeObject_SByte_t1669577662PFvvEPK10MethodInfoPvPS4_
rQl:__ZL77Physics_t2310948930_CustomAttributesCacheGenerator_Physics_Raycast_m313226229P21CustomAttributesCache
smf:_InputField_Delete_m3471899192
LEl:__ZL79Convert_t2465617642_CustomAttributesCacheGenerator_Convert_ToUInt64_m1627266664P21CustomAttributesCache
hxl:__ZL91UrlAttribute_t221584584_CustomAttributesCacheGenerator_UrlAttribute_IsContextOK_m1228378186P21CustomAttributesCache
ioi:_RemotingConfiguration_get_ProcessId_m2180277012
Lwa:__ZN17PersistentManager40GlobalToLocalSerializedFileIndexInternalERK26SerializedObjectIdentifier
f2:__ZN11UnityEngine15CloudWebService17SessionEventQueue14ParseEventDataERKN4core12basic_stringIcNS2_20StringStorageDefaultIcEEEE
gPl:__ZL50Playable_t459825607_CustomAttributesCacheGeneratorP21CustomAttributesCache
jkd:__ZN12GeomQueryAnyIN5physx10PxSweepHitEE7geomHitERKNS0_2Sq17SceneQueryManagerERKNS0_15MultiQueryInputERKNS3_9ShapeDataERKNS0_10PxGeometryERKNS0_11PxTransformENS0_7PxFlagsINS0_9PxHitFlag4EnumEtEEjPS1_fbPNS0_9PxBounds3E
eCh:_Transform_1_BeginInvoke_m4058251461_gshared
JNa:__ZN13TranslateGLES4InitERK12GraphicsCaps16GfxDeviceLevelGL
Qhm:_TextEditor_SelectGraphicalLineStart_m771614311
m2b:__Z29Transfer_Blittable_ArrayFieldI18StreamedBinaryReadILb0EE10ColorRGBAfEvRT_R9ArrayInfoRK23StaticTransferFieldInfo
VRc:__ZN43CapsuleHeightfieldContactGenerationCallback7onEventEjPj
V$:__Z60AudioClipPlayable_CUSTOM_INTERNAL_CALL_GetPauseDelayInternalR9HPlayable
Ehe:__ZThn4_N12MemoryStream4readEPvj
u0j:_EqualityComparer_1_get_Default_m180770000_gshared
Kdg:_Int64_System_IConvertible_ToUInt16_m848637338_AdjustorThunk
VLe:__Z32CustomEventData_CUSTOM_AddUInt32P12Il2CppObjectP12Il2CppStringj
MRi:_Uri_get_PathAndQuery_m2396197970
eHh:_Dictionary_2_System_Collections_Generic_ICollectionU3CSystem_Collections_Generic_KeyValuePairU3CTKeyU2CTValueU3EU3E_Add_m2414635523_gshared
$Wf:_Array_InternalArray__IndexOf_TisLink_t544317964_m455584088_gshared
$Nb:__ZNSt3__26vectorIN30RuntimeInitializeOnLoadManager15ClassMethodInfoE13stl_allocatorIS2_L18MemLabelIdentifier12ELi16EEE8__appendEj
XDg:_Enumerator_get_Current_m2282646120_AdjustorThunk
ndc:__ZN13ProduceHelperI10TagManagerLb0EE7ProduceE18MemLabelIdentifier18ObjectCreationMode
H3g:_KeyGeneratedEventHandler__ctor_m1990062371
BCd:__ZN5physx6shdfnd8internal8HashBaseIPNS_13NpVolumeCacheES4_NS0_4HashIS4_EENS1_11HashSetBaseIS4_S6_NS0_9AllocatorELb0EE6GetKeyES8_Lb0EE15reserveInternalEj
V5l:__ZL66Selectable_t3250028441_CustomAttributesCacheGenerator_m_TransitionP21CustomAttributesCache
_5k:__ZN6il2cpp2os6Memory12AlignedAllocEjj
sxj:_U3CClickRepeatU3Ec__Iterator0_System_Collections_IEnumerator_get_Current_m543328413
lnd:__ZN5physx6shdfnd8internal8HashBaseIPKNS_6PxBaseES5_NS0_4HashIS5_EENS1_11HashSetBaseIS5_S7_NS0_9AllocatorELb0EE6GetKeyES9_Lb0EE6createERKS5_Rb
M7h:__Z81RuntimeInvoker_Void_t1185182177_RuntimeObject_SByte_t1669577662_Int32_t2950945753PFvvEPK10MethodInfoPvPS4_
sTd:__ZN5physx28solveFrictionCoulombPreBlockEPKNS_23PxcSolverConstraintDescEjRNS_16PxcSolverContextE
ABj:_Text_set_alignByGeometry_m3828822280
U$k:__ZN6il2cpp8metadataL7CompareEPK10Il2CppTypeS3_
jVb:__Z18Transfer_BlittableI17RemapPPtrTransferLb0E11ColorRGBA32EvRK29SerializationCommandArgumentsR31RuntimeSerializationCommandInfo
Tkh:_HybridDictionary__ctor_m1681134385
J0b:__Z18Transfer_BlittableI18StreamedBinaryReadILb0EELb1E10ColorRGBAfEvRK29SerializationCommandArgumentsR31RuntimeSerializationCommandInfo
Cyb:__ZN12CubemapArray23VirtualRedirectTransferER17RemapPPtrTransfer
fCi:_TimeSpan_op_LessThan_m1594498345
Dpc:__ZL27GetComponentsImplementationILb0ELi0EEbR10GameObjectbRK17CompareParametersRK39GetComponentsImplementation_ReturnValue
Pcm:_Rect_ToString_m2230825896
kLg:_Collection_1_set_Item_m2355850893_gshared
oPb:__ZN9Scripting36IsSystemCollectionsGenericDictionaryE17ScriptingClassPtr
Jlm:_Vector3_get_normalized_m1684899259_AdjustorThunk
Nxl:__ZL92ConstructionCallDictionary_t686578562_CustomAttributesCacheGenerator_U3CU3Ef__switchU24map24P21CustomAttributesCache
Vid:__ZN5physx12NpConstraint12actorDeletedEPNS_12PxRigidActorE
p6l:__ZL64Slider_t3903728902_CustomAttributesCacheGenerator_m_WholeNumbersP21CustomAttributesCache
Qda:__ZL16ReadTypeTreeImplILb0EEbR8TypeTreeRK16TypeTreeIteratorRPKhS6_i
HLi:_Interval_Contains_m110351300_AdjustorThunk
$Ff:_Convert_ToInt32_m3048308591
rL:__ZN25RuntimeAnimatorControllerD2Ev
dxc:__Z28PlayableOutputValidityChecksRK15HPlayableOutput
WC:__ZN27AnimationLayerMixerPlayable16SetLayerMaskCopyEjRKN7mecanim6bitsetILj70EEEPKNS0_8skeleton12SkeletonMaskE
bKf:_DateTimeOffset_Equals_m3030958070
F1c:__ZN5physx2Sc8ShapeSim18reinsertBroadPhaseEv
ixb:__ZNK22BuiltinResourceManager21GetResourceInstanceIDEPKN5Unity4TypeERKN4core12basic_stringIcNS4_20StringStorageDefaultIcEEEE
Otc:__Z42Register_UnityEngine_RectOffset_set_bottomv
Emk:_AnalyticsTracker_BuildParameters_m43920649
vDc:__Z28GUIStyleState_CUSTOM_CleanupP12Il2CppObject
uP:__Z92Register_UnityEngine_Animations_AnimationClipPlayable_INTERNAL_CALL_GetAnimationClipInternalv
l8f:_DateTimeFormatInfo_GetMonthName_m2034512315
f7a:__ZN28LightProbeProxyVolumeContext8CopyFromERKS_
wTg:_ReadOnlyCollection_1_System_Collections_Generic_IListU3CTU3E_Insert_m2489506856_gshared
Ifb:__ZN23TransformChangeDispatch32QueueTransformChangeIfHasChangedER18TransformHierarchy
AZg:_SimpleCollator_ToDashTypeValue_m6184468
K3h:__Z105RuntimeInvoker_RuntimeObject_Vector3_t3722313464_Vector3_t3722313464_Single_t1397266774_Int32_t2950945753PFvvEPK10MethodInfoPvPS4_
PSa:__ZN7ApiGLES18DeleteRenderbufferERj
p5c:__ZN5physx6shdfnd5ArrayIPvNS0_15InlineAllocatorILj256ENS0_19ReflectionAllocatorINS_16NpConnectorArrayEEEEEE15growAndPushBackERKS2_
DRa:__ZL23ProgramUniformMatrix4fvPK7ApiGLESjiihPKv
kIa:__ZN7ApiGLES13CreateTextureEjj14GraphicsFormatiiiii
rhc:__ZN13ProduceHelperI11LightProbesLb0EE7ProduceE18MemLabelIdentifier18ObjectCreationMode
zqf:_Array_new_gap_m262136975
$Wd:__ZN5physx14SingleAABBTaskC2Ev
D4b:__ZN9ShaderLab20SerializedSubProgram15MatrixParameter8TransferI14SafeBinaryReadEEvRT_
LJi:_CaptureCollection_get_SyncRoot_m1721113318
Fpc:__ZL27GetComponentsImplementationILb0ELi1EEbR10GameObjectbRK17CompareParametersRK39GetComponentsImplementation_ReturnValue
eJi:_X509Store__ctor_m275383717
f_g:_SimpleCollator_LastIndexOfOrdinalIgnoreCase_m2984667899
RCe:_Round_Down_To_Grid
Csa:__ZN13RenderTexture7ReleaseEv
cHb:__ZN10MeshFilter23VirtualRedirectTransferER14SafeBinaryRead
u7l:__ZL64LayoutGroup_t2436138090_CustomAttributesCacheGenerator_m_PaddingP21CustomAttributesCache
Bvh:_AsnEncodedData_get_Oid_m402887164
mHb:__ZN12MeshRenderer17MainThreadCleanupEv
Ynk:__ZN6il2cpp2vmL10InitLockedEP11Il2CppClassRKNS_2os12FastAutoLockE
Frc:__Z36AsyncOperation_Get_Custom_PropIsDoneP12Il2CppObject
vVa:__ZN22CreateGpuProgramOutput12CreateParamsEv
m7i:_MethodBase_GetMethodFromHandle_m286788163
ITg:_ReadOnlyCollection_1_System_Collections_IList_Insert_m177536056_gshared
sgf:_FontData_get_font_m2720086288
Mfd:__ZNK5physx18NpArticulationLink11getChildrenEPPNS_18PxArticulationLinkEj
$Ij:_InternalEnumerator_1_System_Collections_IEnumerator_get_Current_m548105685_gshared
BNa:__ZNK14GfxContextGLES13GetDefaultFBOEv
lgi:__Z99RuntimeInvoker_Void_t1185182177_UILineInfoU5BU5DU26_t2468919161_Int32_t2950945753_Int32_t2950945753PFvvEPK10MethodInfoPvPS4_
ctf:_Byte_System_IConvertible_ToType_m2251112646
vdl:_GUIStyleState_ProduceGUIStyleStateFromDeserialization_m3019693491
KLg:_Collection_1_Contains_m692247505_gshared
D9h:__Z81RuntimeInvoker_Char_t3634460470_RuntimeObject_Int32_t2950945753_Int16_t2552820387PFvvEPK10MethodInfoPvPS4_
u3d:__Z15atomIntegrationfPKPN5physx11PxsBodyCoreEPKPNS_12PxsRigidBodyEjPKNS_2Cm13SpatialVectorEPNS_13PxcSolverBodyEPNS_17PxcSolverBodyDataEPS9_RjSH_
WIf:_DateTime_get_Hour_m4153505178_AdjustorThunk
Zgm:_TextEditor_get_position_m2950336677
k$e:_Evidence_Equals_m1478353107
aMi:_CostDelegate__ctor_m4027655829
GBd:__ZN5physx13NpRigidStatic11createShapeERKNS_10PxGeometryEPKPNS_10PxMaterialEtNS_7PxFlagsINS_11PxShapeFlag4EnumEhEE
Slc:__Z13GetImagePixelI10ColorRGBAfET_PKhii13TextureFormat15TextureWrapModeS5_ii
ixg:_List_1_System_Collections_IList_set_Item_m1842844683_gshared
q8j:_ObjectPool_1__ctor_m2535233435_gshared
_6j:_EventFunction_1__ctor_m4292798223_gshared
mLk:__ZN6il2cpp2vm6Thread49CheckCurrentThreadForInterruptAndThrowIfNecessaryEv
Rjm:_TouchScreenKeyboard_Open_m1573053638
ZOf:_Enum_ToObject_m1136033697
Mua:__ZNSt3__23mapIN9ShaderLab16FastPropertyNameEN18UnityPropertySheet11UnityTexEnvENS_4lessIS2_EENS_9allocatorINS_4pairIKS2_S4_EEEEEixERS9_
lIa:__ZNK13TranslateGLES25GetTextureTargetDimensionEj
Mzg:_List_1__ctor_m668768191_gshared
r9c:__ZN5physx11NpAggregate22removeActorAndReinsertERNS_7PxActorEb
rgi:__Z96RuntimeInvoker_Void_t1185182177_Vector3U5BU5DU26_t3038522815_Int32_t2950945753_Int32_t2950945753PFvvEPK10MethodInfoPvPS4_
VQg:_ReadOnlyCollection_1_System_Collections_IList_Remove_m1842121503_gshared
Wae:__ZZL19ExtractHullPolygonsRjRN5physx2Gu9ContainerERKNS0_17ConvexHullBuilderEPS2_S3_EN5Local9FloodFillES3_PKNS0_11AdjTriangleEjPb
_Vk:__ZN6il2cpp6icalls8mscorlib6System6String13InternalSplitEP12Il2CppStringP11Il2CppArrayii
Dgg:_File_OpenRead_m2936789020
Gyc:__Z47Texture2D_CUSTOM_INTERNAL_CALL_GetPixelBilinearP12Il2CppObjectffR10ColorRGBAf
kCf:_Enumerator_get_Entry_m3561948123
n8h:__Z94RuntimeInvoker_Void_t1185182177_RuntimeObject_PlayableGraph_t3515989261_RuntimeObject_IntPtr_tPFvvEPK10MethodInfoPvPS4_
oj:_emscripten_glVertexAttrib4f
Vsj:_ArgumentCache_get_boolArgument_m4017632913
xkl:_Physics_Raycast_m2500195530
glm:_Vector2_ToString_m592043461
Xne:__ZL28RegisterModuleICalls_Physicsv
ePj:_InternalEnumerator_1_System_Collections_IEnumerator_Reset_m4072625129_AdjustorThunk
r7b:__ZNSt3__26vectorIN20GpuProgramParameters14ConstantBufferENS_9allocatorIS2_EEE8__appendEj
Cwh:_X509CertificateCollection_AddRange_m3683116910
YYl:__ZL117GUIUtility_t1868551600_CustomAttributesCacheGenerator_GUIUtility_INTERNAL_CALL_Internal_GetNextControlID2_m3559403649P21CustomAttributesCache
crj:_Native__cctor_m1512421093
ILj:_InternalEnumerator_1_Dispose_m1837758743_AdjustorThunk
Vsh:_Socket_BeginReceive_m2439065097
Ebj:_CustomEventData_t317522481_marshal_pinvoke_cleanup
$dk:_Predicate_1_Invoke_m2315049893_gshared
To:FUNCTION_TABLE_vf
aVj:_SinkProviderData__ctor_m1624738837
M5a:__ZN11HaloManager21ReleaseGeometryJobMemEP25DynamicVBOGeometryJobData
qgg:_DirectoryNotFoundException__ctor_m1689636868
Dji:__Z96RuntimeInvoker_RuntimeObject_Vector2_t2156229523_Vector2_t2156229523_RuntimeObject_RuntimeObjectPFvvEPK10MethodInfoPvPS4_
$bd:__ZN5physx14NpArticulation26setMaxProjectionIterationsEj
a$c:__ZN5physx3Cct15ObstacleContext14removeObstacleEj
nRg:_ReadOnlyCollection_1_System_Collections_Generic_IListU3CTU3E_get_Item_m978644313_gshared
GMg:_Collection_1_get_Item_m2253972692_gshared
C0i:_CustomAttributeTypedArgument_Equals_m2261980307
gC:__ZN7mecanim12statemachine24CreateStateMachineMemoryEPKNS0_20StateMachineConstantERNS_6memory9AllocatorE
CLa:__ZN9GfxDevice18SetGlobalDepthBiasEff
Swk:__ZN6il2cpp6icalls8mscorlib6System8MonoType12get_AssemblyEP20Il2CppReflectionType
jig:_IsolatedStorageException__ctor_m3386787868
x6i:_TypeBuilder_MakeGenericType_m2799607032
Kjk:__ZL25UnresolvedVirtualCall_157P12Il2CppObjecthhPK10MethodInfo
Jle:__ZN15CapsuleCollider9SetCenterERK8Vector3f
YKi:_RepeatContext_get_Start_m1076992038
E8l:__ZL71Ext_t2749166018_CustomAttributesCacheGenerator_Ext_Contains_m3634178632P21CustomAttributesCache
eWg:_ReadOnlyCollection_1_IndexOf_m3669095250_gshared
Cj:_emscripten_glGetPointerv
N$l:__ZL81Logger_t274032455_CustomAttributesCacheGenerator_Logger_set_logEnabled_m507755901P21CustomAttributesCache
fzd:__ZNK5physx15NpActorTemplateINS_14PxRigidDynamicEE13getActorFlagsEv
J3f:_Dictionary_2_Do_CopyTo_TisKeyValuePair_2_t3842366416_TisRuntimeObject_m1564656153_gshared
SG:__ZN8Animator22ApplyBuiltinRootMotionEv
NRk:__ZN15dense_hashtableI10KeyWrapperIP18Il2CppGenericClassES3_N6il2cpp8metadata22Il2CppGenericClassHashEN14dense_hash_setIS3_S6_NS3_14EqualsComparerINS5_25Il2CppGenericClassCompareEEENSt3__29allocatorIS3_EEE8IdentityESA_SD_E5clearEv
sie:__ZN5physx7profile8ZoneImplINS_28PxProfileNameProviderForwardEE17handleBufferFlushEPKhj
kZh:__Z55RuntimeInvoker_DateTime_t3738529785_TimeSpan_t881159249PFvvEPK10MethodInfoPvPS4_
o9c:__ZN5physx2Sc5ActorC2ERNS0_16InteractionSceneEhNS0_14IslandNodeInfo4TypeE
qog:_MulticastDelegate_KPM_m22863605
nMj:_InternalEnumerator_1_get_Current_m1897120917_AdjustorThunk
Ong:_MonoType_ReorderParamArrayArguments_m2458683451
Cpi:_FormatterConverter_ToInt16_m4282804414
LWh:__Z81RuntimeInvoker_Void_t1185182177_Int64_t3736567304_RuntimeObject_Int64_t3736567304PFvvEPK10MethodInfoPvPS4_
HGi:_UIntPtr__ctor_m698924671
kaf:_StandaloneInputModule_ProcessTouchPress_m4019232747
ygg:_FileStream__ctor_m3151488352
yqf:_Array_swap_m547389985
Ytd:__ZN5physx15NpActorTemplateINS_7PxClothEED2Ev
KFi:_UInt32_ToString_m2420423038
dug:_List_1_System_Collections_IList_Add_m634558835_gshared
ZVg:_ReadOnlyCollection_1_System_Collections_IList_get_IsFixedSize_m1923250479_gshared
chg:_FileStream_get_Length_m426703983
Bsd:__ZN5physx2Sc9ClothCore16setRestPositionsEPKNS_6PxVec4E
nEh:_Enumerator__ctor_m1558933899_AdjustorThunk
EGl:__ZL88BigInteger_t2902905090_CustomAttributesCacheGenerator_BigInteger_op_Implicit_m3414367033P21CustomAttributesCache
PAi:_WaitCallback_Invoke_m1820972147
b4a:__Z27ConvertSubMeshesToTrianglesR13dynamic_arrayI7SubMeshLj4EERS_ItLj2EE
KBc:__ZN5IMGUI14GUIWindowStateD2Ev
vBg:_List_1_Remove_m2092085040_gshared
Lnb:__ZL13MotionHandleriPK27EmscriptenDeviceMotionEventPv
pUl:__ZL133AnimatorControllerPlayable_t1015767841_CustomAttributesCacheGenerator_AnimatorControllerPlayable_INTERNAL_CALL_SetFloatID_m2796983017P21CustomAttributesCache
ZT:__ZN12AudioManager5ResetEv
FPh:__Z67RuntimeInvoker_Boolean_t97287965_RuntimeObject_SByteU26_t3619038962PFvvEPK10MethodInfoPvPS4_
CZl:__ZL114UnityAnalyticsHandler_t3011359618_CustomAttributesCacheGenerator_UnityAnalyticsHandler_InternalDestroy_m3155597353P21CustomAttributesCache
cgl:_Input_get_touchSupported_m461932327
LQh:__Z143RuntimeInvoker_Boolean_t97287965_RuntimeObject_Int32_t2950945753_RuntimeObject_SByte_t1669577662_DoubleU26_t1739162597_ExceptionU26_t3600731591PFvvEPK10MethodInfoPvPS4_
fRg:_ReadOnlyCollection_1_get_Count_m1336304542_gshared
b8l:__ZL111LayoutUtility_t2745813735_CustomAttributesCacheGenerator_LayoutUtility_U3CGetPreferredHeightU3Em__6_m3049688934P21CustomAttributesCache
CG:__ZN7mecanim5human14RetargetToTDoFEPKNS0_5HumanEPNS0_9HumanPoseEPNS_8skeleton13SkeletonPoseTIN4math4trsXEEESB_
zHk:__ZNK15dense_hashtableINSt3__24pairIK10KeyWrapperIPK14Il2CppAssemblyEPK22Il2CppMonoAssemblyNameEES6_N6il2cpp5utils11PointerHashIS4_EEN14dense_hash_mapIS6_SA_SF_NS6_14EqualsComparerINS0_8equal_toIS5_EEEENS0_9allocatorISB_EEE9SelectKeyESK_SM_E10test_emptyEj
hYk:__ZN6il2cpp6icalls8mscorlib6System11Environment20GetWindowsFolderPathEi
iDf:_Convert_ToBoolean_m2833752130
SA:__ZN7mecanim5human18HumanPoseBlendNodeERNS0_9HumanPoseEPS1_f
Hye:_UNITY_FT_RoundFix
A7b:__ZN9ShaderLab20SerializedSubProgram15AddTextureParamEPKcii16TextureDimension
r1:__ZN23CloudWebServicesManager23VirtualRedirectTransferER17RemapPPtrTransfer
a3k:_GC_is_heap_ptr
_am:_RangeInt__ctor_m3370658309_AdjustorThunk
MTc:__ZNK5physx2Gu15HeightFieldUtil12traceSegmentI24ConvexVsHeightfieldSweepLb0ELb0ELb1EEEvRKNS_6PxVec3ES6_PT_PS5_
t0g:_ASN1_DecodeTLV_m1200977460
iZ:__ZNK18AudioMixerPlayable11DerivesFromE17ScriptingClassPtr
F7d:__ZNK5physx12PxConvexMesh19getConcreteTypeNameEv
ATg:_ReadOnlyCollection_1_System_Collections_Generic_IListU3CTU3E_set_Item_m1584697503_gshared
oHb:__ZNK12MeshRenderer22GetTypeVirtualInternalEv
Tuf:_Char_System_IConvertible_ToUInt32_m3901815580
Awj:_Scrollbar_set_onValueChanged_m346467699
lUc:__ZN5physx2Gu19gjkLocalPenetrationINS0_9TriangleVENS0_17ShrunkConvexHullVEEEjRKT_RKT0_RKNS_6shdfnd3aos6FloatVERNSB_5Vec3VESG_SG_RSC_PhSI_Rhb
sZh:__Z157RuntimeInvoker_Int32_t2950945753_RuntimeObject_Int32_t2950945753_Int32_t2950945753_Int32_t2950945753_SByte_t1669577662_SByte_t1669577662_Int32U26_t1369213839PFvvEPK10MethodInfoPvPS4_
V7j:_ListPool_1_Release_m957266927_gshared
zyl:__ZL105ConfigHandler_t4192437216_CustomAttributesCacheGenerator_ConfigHandler_ValidatePath_m3895556516____paths1P21CustomAttributesCache
CW:__ZN4FMOD6System17setSoftwareFormatEi17FMOD_SOUND_FORMATii18FMOD_DSP_RESAMPLER
Bij:_AnimatorControllerPlayable_PlayInternal_m2689832137
zud:__ZN5physx15NpActorTemplateINS_15PxParticleFluidEE22setClientBehaviorFlagsENS_7PxFlagsINS_25PxActorClientBehaviorFlag4EnumEhEE
hbe:__ZN5physx18AdjacenciesBuilderC2Ev
D1c:__ZN5physx2Sc13ShapeIterator4initERKNS0_8ActorSimE
AKl:__ZL105Component_t1923634451_CustomAttributesCacheGenerator_Component_SendMessageUpwards_m3320529579____options2P21CustomAttributesCache
dva:__ZN14SafeBinaryRead19TransferSTLStyleMapINSt3__23mapIN4core12basic_stringIcNS3_20StringStorageDefaultIcEEEES7_NS1_4lessIS7_EE13stl_allocatorINS1_4pairIKS7_S7_EEL18MemLabelIdentifier1ELi16EEEEEEvRT_17TransferMetaFlags
bHe:__ZN2UI6Canvas27UpdateEventIndexesRecursiveERi
sdc:__ZN14SpriteRenderer12CleanupClassEv
l2:__ZN11UnityEngine15CloudWebService16SessionContainer21PrepareDataErrorEventERN4core12basic_stringIcNS2_20StringStorageDefaultIcEEEE
Iue:_UNITY_FT_Outline_New
Qvf:_ArrayList_set_Item_m2003485935
YYk:__ZNSt3__218uninitialized_copyIPNS_4pairIK10KeyWrapperIPK19Il2CppGenericMethodEP10MethodInfoEESB_EET0_T_SD_SC_
uSj:_SatelliteContractVersionAttribute__ctor_m3630863995
IEl:__ZL79Convert_t2465617642_CustomAttributesCacheGenerator_Convert_ToUInt64_m3102114524P21CustomAttributesCache
t9e:_MouseButtonEventData_PressedThisFrame_m1060658845
e5e:_AxisEventData_get_moveVector_m270528189
sZb:__Z19TransferField_ArrayI19StreamedBinaryWriteILb0EE27Converter_SimpleNativeClassI8GUIStyleEEvRK23StaticTransferFieldInfoR31RuntimeSerializationCommandInfoRT0_
mRg:_ReadOnlyCollection_1_System_Collections_Generic_IListU3CTU3E_RemoveAt_m3969985996_gshared
b5j:_SymmetricTransform_CFB_m1755507252
Bnd:__ZN5physx14NpArticulationC2Ev
Xfm:_SortingLayer_GetLayerValueFromID_m1500421328
mma:__ZNK13ScreenManager12GetIsFocusedEv
jif:_GraphicRegistry_GetGraphicsForCanvas_m4219276355
A0l:__ZL90EventSystem_t1003666588_CustomAttributesCacheGenerator_EventSystem_get_current_m1416377559P21CustomAttributesCache
Js:__ZL32CleanupAnimationScriptingClassesv
KJc:__Z35Transfer_Blittable_FixedBufferFieldI8JSONReadiEvRK29SerializationCommandArgumentsR31RuntimeSerializationCommandInfo
hzl:__ZL59StreamingContext_t3711869237_CustomAttributesCacheGeneratorP21CustomAttributesCache
Bvk:__ZNSt3__213__vector_baseIN6il2cpp2os19SocketHandleWrapperENS_9allocatorIS3_EEED2Ev
tZ:__ZNK19AudioPlayableOutput11DerivesFromE17ScriptingClassPtr
Uql:__ZL48_Type_t3588564251_CustomAttributesCacheGeneratorP21CustomAttributesCache
RUi:_WebHeaderCollection_getHeaderInfo_m2278129060
M3l:__ZL81FontUpdateTracker_t1839077620_CustomAttributesCacheGenerator_U3CU3Ef__mgU24cache0P21CustomAttributesCache
Lc:invoke_viiffi
itl:__ZL103RegionInfo_t1090270226_CustomAttributesCacheGenerator_RegionInfo_t1090270226____NativeName_PropertyInfoP21CustomAttributesCache
tkb:__ZN13sorted_vectorINSt3__24pairIN4core12basic_stringIcNS2_20StringStorageDefaultIcEEEEPK17MessageIdentifierEEN10vector_mapIS6_S9_NS0_4lessIS6_EENS0_9allocatorISA_EEE13value_compareESF_E10insert_oneERKSA_
dbj:_UnityAnalyticsHandler__ctor_m183110035
b$l:__ZL81UnityEvent_t2581268647_CustomAttributesCacheGenerator_UnityEvent__ctor_m974839563P21CustomAttributesCache
RG:__ZNSt3__227__insertion_sort_incompleteIRPFbPKN8Animator11AnimatorJobES4_EPS4_EEbT0_S9_T_
zyb:__ZNK12CubemapArray20GetRuntimeMemorySizeEv
QBi:_TimeSpan_FromHours_m1109641064
PWa:__ZN9GfxDevice5FlushEv
t5b:__Z14resize_trimmedINSt3__26vectorIN9ShaderLab18SerializedPropertyENS0_9allocatorIS3_EEEEEvRT_j
PEd:__ZN5physx6shdfnd8PoolBaseINS_2Sc9ActorPairENS0_19ReflectionAllocatorIS3_EEE12allocateSlabEv
otk:__ZN6il2cpp2vm13MetadataCache38GetMethodInfoFromMethodDefinitionIndexEi
o6e:_EventSystem_set_current_m38955169
uwc:__Z39MonoBehaviour_CUSTOM_GetScriptClassNameP12Il2CppObject
rrj:_CustomYieldInstruction_get_Current_m544197713
Nqi:_TypeMetadata__ctor_m646635308
cMi:_CostDelegate_EndInvoke_m2797921932
VDb:__ZN10VertexData8TransferI24GenerateTypeTreeTransferEEvRT_
iJb:__ZN19SkinnedMeshRenderer16UpdateCachedMeshEv
xDf:_Double_IsInfinity_m820013146
Vrf:__ZN21InterfaceFuncInvoker1I19Decimal_t2948259380P12Il2CppObjectE6InvokeEjP11Il2CppClassS2_S2_
fkm:_TrackedReference_GetHashCode_m1270858212
DYk:__ZN13Il2CppHashMapIPK19Il2CppGenericMethodP10MethodInfoN6il2cpp8metadata23Il2CppGenericMethodHashENS6_26Il2CppGenericMethodCompareENSt3__29allocatorINS9_4pairIK10KeyWrapperIS2_ES4_EEEEEC2EjRKS7_RKS8_
Stg:_List_1_TrimExcess_m440552561_gshared
fyi:_UTF8Encoding_InternalGetByteCount_m2120178851
b0k:_GC_default_oom_fn
pdb:__ZL10CullLightsRK22SceneCullingParametersR11CullResults
gVl:__ZL95TextGenerator_t3211863866_CustomAttributesCacheGenerator_TextGenerator_get_lineCount_m467646179P21CustomAttributesCache
OSi:_CookieCollection_splitCookieHeaderValue_m986713822
QHf:_Convert_ToUInt64_m3170916409
jcl:_GUIStyleState_GetGUIStyleState_m2565005256
bC:__ZN7mecanim12statemachine20GetBlendTreeConstantERKNS0_13StateConstantEi
uHj:_InternalEnumerator_1_Dispose_m1913545470_AdjustorThunk
SFd:__ZN5physx7NpScene21setDominanceGroupPairEhhRKNS_20PxDominanceGroupPairE
ydg:_Int64_System_IConvertible_ToInt16_m4062196970_AdjustorThunk
jog:_MonoType_GetGenericTypeDefinition_m3201894896
Ekc:__Z40GetTemporaryCachePathApplicationSpecificv
LJa:__ZN9GfxDevice16EndAsyncJobFrameEv
XFk:__ZNK15dense_hashtableINSt3__24pairIK10KeyWrapperINS1_IPK12PropertyInfoP11Il2CppClassEEEjEES9_17ReflectionMapHashIS8_EN14dense_hash_mapIS9_jSD_NS9_14EqualsComparerINS0_8equal_toIS8_EEEENS0_9allocatorISB_EEE9SelectKeyESI_SK_E10test_emptyERK30dense_hashtable_const_iteratorISB_S9_SD_SM_SI_SK_E
Cve:_UNITY_tt_face_load_hhea
JTh:__Z58RuntimeInvoker_RSAParameters_t1728406613_SByte_t1669577662PFvvEPK10MethodInfoPvPS4_
wl:___syscall3
Ixd:__ZNK5physx15NpActorTemplateINS_16PxParticleSystemEE7getNameEv
zl:___syscall6
dLa:__ZN9GfxDevice15GetNextCPUFenceEv
Bl:___syscall4
k3:__ZN11UnityEngine15CloudWebService20WebRequestRestClient17GetResponseStatusEv
pmi:_ReturnMessage__ctor_m2352989078
eKl:__ZL85Camera_t4157153871_CustomAttributesCacheGenerator_Camera_FireOnPostRender_m1633769721P21CustomAttributesCache
rpl:__ZL70RuntimeArray_CustomAttributesCacheGenerator_Array_get_Length_m21610649P21CustomAttributesCache
VTk:__ZN6il2cpp2vm3RCW14QueryInterfaceILb1EEEP14Il2CppIUnknownP15Il2CppComObjectRK10Il2CppGuid
qeh:_TlsServerCertificateRequest__ctor_m1334974076
vNc:__ZN27PerformanceReportingManager23VirtualRedirectTransferER14SafeBinaryRead
cGf:_Convert_ToInt32_m1613163543
Ugi:__Z52RuntimeInvoker_TimeSpan_t881159249_Int32_t2950945753PFvvEPK10MethodInfoPvPS4_
huj:_MatEntry__ctor_m1949610076
Tpc:__ZN9Scripting25BroadcastScriptingMessageER10GameObjectPKc18ScriptingObjectPtr
Ql:_emscripten_glShaderBinary
I$l:__ZL80Logger_t274032455_CustomAttributesCacheGenerator_U3ClogEnabledU3Ek__BackingFieldP21CustomAttributesCache
y3:__ZN15DownloadHandler19OnFinishReceiveDataEv
REi:_UInt16_ToString_m760649087
ona:__ZNK20LocalFileSystemPosix6ExistsERK13FileEntryData
flk:__ZL25UnresolvedVirtualCall_234P12Il2CppObject19Color32_t2600501292PK10MethodInfo
WZh:__Z21RuntimeInvoker_Guid_tPFvvEPK10MethodInfoPvPS4_
S_h:__Z46RuntimeInvoker_CipherAlgorithmType_t1174400495PFvvEPK10MethodInfoPvPS4_
u7c:__ZN5physx35NpArticulationJointGetBodiesFromScbERNS_3Scb17ArticulationJointERPNS0_4BodyES5_
fz:__ZN7mecanim5human19MaskHasLeftFootGoalERKNS_6bitsetILj70EEE
_6d:__ZNK5physx2Sc15ClothFabricCore16getTetherLengthsEPfj
cGc:__Z23TransferScriptingObjectI8JSONReadEvRT_18ScriptingObjectPtr17ScriptingClassPtrPK15MonoScriptCache
yKe:__Z58Register_UnityEngine_Canvas_GetETC1SupportedCanvasMaterialv
eCi:_TimeSpan_op_Inequality_m2467851530
F$b:__ZN17AnimationCurveTplIfE8TransferI18StreamedBinaryReadILb1EEEEvRT_
A2f:_Array_Sort_TisUIVertex_t4057497605_m3996333845_gshared
$eh:_Context_get_ReceivedConnectionEnd_m4011125537
tZe:_ToBase64Transform_get_CanReuseTransform_m702204640
AOe:__ZN18UnityConnectClientD2Ev
Ose:__ZN20TextRenderingPrivate25ReadFontFileAndAddToCacheERKN4core12basic_stringIcNS0_20StringStorageDefaultIcEEEE
Csi:_SByte_System_IConvertible_ToDouble_m2381680501
Sqf:_Swapper_BeginInvoke_m1688449973
YYi:_WebSocket_processUnsupportedFrame_m3037121873
HKd:__ZN5physx2Sc13ConstraintSim8getForceERNS_6PxVec3ES3_
Vqb:__ZN16LevelGameManager23VirtualRedirectTransferER19StreamedBinaryWriteILb0EE
W_h:__Z81RuntimeInvoker_Void_t1185182177_RuntimeObject_Int32_t2950945753_Int64_t3736567304PFvvEPK10MethodInfoPvPS4_
QDb:__Z32TransferEnumWithNameForceIntSizeI14SafeBinaryRead16GfxPrimitiveTypeEvRT_RT0_PKc17TransferMetaFlags
bM:__ZN7mecanim5human5HumanC2Ev
uei:__Z52RuntimeInvoker_Int32_t2950945753_HitInfo_t3229609740PFvvEPK10MethodInfoPvPS4_
qXh:__Z86RuntimeInvoker_Boolean_t97287965_Int16_t2552820387_Int16_t2552820387_Int32_t2950945753PFvvEPK10MethodInfoPvPS4_
fDl:__ZL80Convert_t2465617642_CustomAttributesCacheGenerator_Convert_ToBoolean_m2807110707P21CustomAttributesCache
APc:__ZN5physx15PxGeometryQuery18computePenetrationERNS_6PxVec3ERfRKNS_10PxGeometryERKNS_11PxTransformES6_S9_
Xej:_AnimatorControllerPlayable_GetFloatString_m1449390567
JNe:__ZN11UnityEngine15PlatformWrapper30GetGraphicsDriverLibraryStringEv
hsi:_RuntimeMethodHandle_Equals_m3301340296_AdjustorThunk
x1f:_Array_Resize_TisAnimatorClipInfo_t3156717155_m3215314758_gshared
fne:__ZN5Unity12PhysicsQueryC2Ev
amm:_Vector4__ctor_m1702261405_AdjustorThunk
Bhk:__ZL24UnresolvedVirtualCall_40P12Il2CppObjectS0_PK10MethodInfo
o8j:_ListPool_1__cctor_m704263611_gshared
K0b:__Z18Transfer_BlittableI18StreamedBinaryReadILb0EELb0E4AABBEvRK29SerializationCommandArgumentsR31RuntimeSerializationCommandInfo
Bcm:_Rect_Contains_m2308869928_AdjustorThunk
QM:__ZN16MecanimAnimation24DeleteAnimatedPropertiesERP26IAnimatedPropertyEvaluator
Ril:_MonoBehaviour_StartCoroutine_Auto_m2947476851
C1a:__Z14DrawGUITextureRK5RectTIfEP7Texture11ColorRGBA32P8Materiali
mYi:_WebSocket_releaseCommonResources_m1276114624
PYh:__Z64RuntimeInvoker_RuntimeObject_SByte_t1669577662_Int32_t2950945753PFvvEPK10MethodInfoPvPS4_
iRg:_ReadOnlyCollection_1_System_Collections_Generic_ICollectionU3CTU3E_Add_m2686599243_gshared
FF:__ZN9BlobWrite8TransferI22OffsetPtrArrayTransferIKN4math7_float4EEEEvRT_PKc17TransferMetaFlags
Zra:__ZN15TextureSettings8TransferI24GenerateTypeTreeTransferEEvRT_
wJc:__ZN9JSONWrite8TransferI4AABBEEvRT_PKc17TransferMetaFlags
lZa:__ZN25MultiBlocksMemoryFileData9SetLengthEy
Erg:_List_1_Clear_m2154023298_gshared
$4e:_AbstractEventData_get_used_m2991176710
PKj:_InternalEnumerator_1_get_Current_m3191242573_AdjustorThunk
pbi:__Z94RuntimeInvoker_Void_t1185182177_ObjectU5BU5DU26_t712384779_Int32_t2950945753_Int32_t2950945753PFvvEPK10MethodInfoPvPS4_
Pei:__Z71RuntimeInvoker_Void_t1185182177_CustomAttributeNamedArgument_t287865710PFvvEPK10MethodInfoPvPS4_
f4d:__ZNK18ScBeforeSolverTask7getNameEv
E3f:_Dictionary_2_Do_ICollectionCopyTo_TisRuntimeObject_m1855083806_gshared
w5j:_Aes__ctor_m178909601
hzb:__ZNK9Texture2D20GetRuntimeMemorySizeEv
_bf:_CanvasScaler_set_screenMatchMode_m2975492035
pTd:__ZN5physx14solve1D4_BlockEPKNS_23PxcSolverConstraintDescEjRNS_16PxcSolverContextE
Zm:_emscripten_glUniform2iv
och:_CipherSuite_get_Context_m1621551997
ZPc:__ZL33GeomMTDCallback_ConvexHeightFieldRN5physx6PxVec3ERfRKNS_10PxGeometryERKNS_11PxTransformES5_S8_
o4j:_Enumerator_Dispose_m1204547613_AdjustorThunk
Mre:_UNITY_FT_Outline_Transform
A4f:_Mesh_SetUvsImpl_TisVector2_t2156229523_m984389559_gshared
Ayc:__Z60Register_UnityEngine_Sprites_DataUtility_Internal_GetMinSizev
zok:__ZN6il2cpp2vm5Class10GetMethodsEP11Il2CppClassPPv
GRe:__ZNK25UnityWebRequestJavaScript17GetUploadProgressEv
$8a:__Z30AddDefaultStreamsToMeshBuffersR9GfxDeviceR11MeshBuffersRK16DrawBuffersRange17ShaderChannelMaskS6_
sSa:__ZN7ApiGLES17DeleteFramebufferERN2gl6HandleILNS0_10ObjectTypeE9EEES3_
yUa:__ZN15UniformTFMethod13MapBoneBufferEj
dGe:__ZN2UI14CanvasRendererD2Ev
t5f:_Array_InternalArray__get_Item_TisParameterModifier_t1461694466_m29553316_gshared
W6i:_FieldInfo_internal_from_handle_type_m3256989094
Qdg:_Int64_CompareTo_m1928360444_AdjustorThunk
wYd:__ZN5physx26PxcPCMContactCapsuleConvexERKNS_2Gu13GeometryUnionES3_RKNS_11PxTransformES6_RKfRNS_10PxcNpCacheERNS0_13ContactBufferE
VVh:__Z44RuntimeInvoker_GCHandle_t3351438187_IntPtr_tPFvvEPK10MethodInfoPvPS4_
GIk:__ZN15dense_hashtableINSt3__24pairIK10KeyWrapperINS1_IPK9EventInfoP11Il2CppClassEEEjEES9_17ReflectionMapHashIS8_EN14dense_hash_mapIS9_jSD_NS9_14EqualsComparerINS0_8equal_toIS8_EEEENS0_9allocatorISB_EEE9SelectKeyESI_SK_E15set_deleted_keyERKSB_
ioa:__Z9SetupArgviPPKc
uGf:_Convert_ToInt64_m2075031821
KGc:__ZN9rapidjson13GenericReaderINS_4UTF8IcEES2_13JSONAllocatorE11ParseObjectILj0ENS_19GenericStringStreamIS2_EENS_15GenericDocumentIS2_S3_S3_EEEEvRT0_RT1_
Coi:_RemotingException__ctor_m1015537352
cBm:_glTexParameteri__wrapper
sad:__ZN5physx10PxsContext17addParticleSystemEPNS_15PxsParticleDataERKNS_26PxvParticleSystemParameterEb
o8c:__ZN5physx3Scb5Scene13addRigidNoSimINS0_4BodyELb1ELb1EEEvRT_RNS0_13ObjectTrackerE
Bpb:__ZN12ImmediatePtrI10GameObjectE8TransferI19StreamedBinaryWriteILb0EEEEvRT_
Dyb:__ZN12CubemapArray23VirtualRedirectTransferER24GenerateTypeTreeTransfer
jhk:__ZL24UnresolvedVirtualCall_22P12Il2CppObjectS0_iS0_S0_S0_PK10MethodInfo
uea:__ZN12FileAccessor4OpenER15FileSystemEntry14FilePermission16FileAutoBehavior
kTl:__ZL142AnimatorControllerPlayable_t1015767841_CustomAttributesCacheGenerator_AnimatorControllerPlayable_INTERNAL_CALL_ResolveHashInternal_m3517774387P21CustomAttributesCache
kXk:__ZN6il2cpp2os9Directory6CreateERKNSt3__212basic_stringIcNS2_11char_traitsIcEENS2_9allocatorIcEEEEPi
$va:__ZN4PPtrI6ShaderE8TransferI18StreamedBinaryReadILb0EEEEvRT_
jVc:__ZL19sweepBoxVsTrianglesjPKN5physx10PxTriangleERKNS_2Gu3BoxERKNS_6PxVec3EfRNS_10PxSweepHitENS_7PxFlagsINS_9PxHitFlag4EnumEtEEbPKj
Hfb:__ZN23TransformChangeDispatch32QueueTransformChangeIfHasChangedERK15TransformAccess
V3:__ZNSt3__24listIP19CloudServiceHandler13stl_allocatorIS2_L18MemLabelIdentifier86ELi16EEE6removeERKS2_
Buh:_TcpClient_Connect_m1569041472
jJl:__ZL99Application_t1852185770_CustomAttributesCacheGenerator_Application_InvokeOnBeforeRender_m1636116954P21CustomAttributesCache
_he:__ZN9Rigidbody18AddForceAtPositionERK8Vector3fS2_i
z$a:__ZN15ArchiveReadFile5WriteEyPKvPy
U_i:_Assembly_get_FullName_m293988418
ZBf:_SortedList_set_Capacity_m509376950
bEc:__Z31GUIStyle_CUSTOM_SetFontInternalP12Il2CppObjectS0_
B:tempValue
Ulb:__Z29StdTemplateConversionFunctionIaiEbPvR14SafeBinaryRead
L6k:__ZN6il2cpp8metadata24Il2CppGenericContextHash4HashEPK20Il2CppGenericContext
vKj:_InternalEnumerator_1_get_Current_m356936020_AdjustorThunk
LMg:_Collection_1_CheckWritable_m1583234367_gshared
ddg:_Int32_ToString_m141394615_AdjustorThunk
waa:__Z29scripting_class_from_fullnamePKcS0_S0_
qij:_AnimatorControllerPlayable_PlayInternal_m2844371131
v2g:_SmallXmlParser_UnexpectedEndError_m1914362401
BC:__ZN26AnimatorControllerPlayable18DeallocateBindingsEv
Nyl:__ZL61FormatterTypeStyle_t3400733584_CustomAttributesCacheGeneratorP21CustomAttributesCache
gQc:__ZN5physx2Gu29ConvexVsMeshContactGeneration20generateLastContactsEv
y3h:__Z85RuntimeInvoker_Boolean_t97287965_Ray_t3785851493_Single_t1397266774_Int32_t2950945753PFvvEPK10MethodInfoPvPS4_
a5c:__ZNK5physx2Gu22SupportMapRelativeImplINS0_4BoxVEE14doSupportSweepERKNS_6shdfnd3aos5Vec3VE
pwe:_UNITY_FT_Stream_ReadAt
Cvd:__ZN5physx2Sc17ParticleSystemSim16getParticleStateEv
OJl:__ZL97Behaviour_t1437897464_CustomAttributesCacheGenerator_Behaviour_get_isActiveAndEnabled_m3013577336P21CustomAttributesCache
l3d:__ZN5physx6shdfnd5ArrayINS_25PxsCompoundContactManagerENS0_19ReflectionAllocatorIS2_EEE8recreateEj
dBi:_TimeSpan__ctor_m1896986612_AdjustorThunk
uR:__Z87Register_UnityEngine_Animations_AnimatorControllerPlayable_INTERNAL_CALL_GetFloatStringv
zsk:__ZN15dense_hashtableINSt3__24pairIK10KeyWrapperIN6il2cpp5utils13dynamic_arrayIPK10Il2CppTypeLj4EEEEPFvvEEESA_NS3_8metadata19Il2CppSignatureHashEN14dense_hash_mapISA_SD_SG_NSA_14EqualsComparerINSF_22Il2CppSignatureCompareEEENS0_9allocatorISE_EEE9SelectKeyESK_SM_E9set_valueEPSE_RKSE_
a$g:_ArgumentException__ctor_m1216717135
uTj:_GCHandle_op_Explicit_m976572069
Qud:__ZN5physx22NpParticleBaseTemplateINS_15PxParticleFluidENS_15NpParticleFluidEE18setProjectionPlaneERKNS_6PxVec3Ef
_wg:_List_1_System_Collections_IList_Contains_m3860993176_gshared
hWd:__ZN5physx14PxsAABBManagerC2ERNS_2Cm13EventProfilerERNS_19PxcScratchAllocatorE
g$:__ZN11AudioModule22CreateAudioClipFromWWWEP10IWWWStreamPKcbbi
Tqi:_ObjectRecord_get_IsUnsolvedObjectReference_m1163921033
VEi:_UInt32_System_IConvertible_ToBoolean_m1763673183_AdjustorThunk
g_i:_U3CGetEnumeratorU3Ed__18_System_Collections_Generic_IEnumeratorU3CSystem_ByteU3E_get_Current_m1829326233
$He:__Z13RegisterClassIN2UI11CanvasGroupEEvv
O1h:__Z35RuntimeInvoker_RangeInt_t2094684618PFvvEPK10MethodInfoPvPS4_
A9b:__ZN6prcoreL11inner_clearILj4EEEvPhjjj
Zf:_emscripten_glClear
lSf:_Array_InternalArray__ICollection_Remove_TisByte_t1134296376_m2266787817_gshared
Tli:_DictionaryEnumerator_get_Value_m2166220004
sab:__ZN15SHConstantCacheC2ER13BatchRendererR15RenderLoopStats
qFl:__ZL72LoaderOptimization_t1484956347_CustomAttributesCacheGenerator_DomainMaskP21CustomAttributesCache
yRh:__Z74RuntimeInvoker_Void_t1185182177_RuntimeObject_StreamingContext_t3711869237PFvvEPK10MethodInfoPvPS4_
u2k:_GC_initialize_offsets
Qia:__ZNK8Playable6HandleEv
Uzj:_SetPropertyUtility_SetColor_m2229203028
Jrm:___cxa_guard_abort
Fzh:_Enumerator_MoveNext_m481679286_gshared
dab:__Z30SetupBakedOcclusionForGeometrybRK26SharedLightmapSettingsDataRK15LightmapIndicesR17ShaderPassContext
Dca:__ZN14MessageHandler28MessageIDToMessageIdentifierEi
qEb:__ZNK11SpriteAtlas20GetRuntimeRenderDataEPK6Sprite
Fik:__ZL24UnresolvedVirtualCall_98P12Il2CppObject8IntPtr_tPK10MethodInfo
lgg:_FileSystemInfo__ctor_m3035148496
y9j:_Mesh_GetAllocArrayFromChannel_TisVector2_t2156229523_m2030487332_gshared
wcg:_Int32_System_IConvertible_ToDecimal_m2190376994_AdjustorThunk
bak:_KeyValuePair_2_set_Key_m2121548577_AdjustorThunk
N8l:__ZL73Ext_t2749166018_CustomAttributesCacheGenerator_Ext_GetMessage_m1043082710P21CustomAttributesCache
MBl:__ZL88UTF7Encoding_t2644108479_CustomAttributesCacheGenerator_UTF7Encoding_GetBytes_m521917477P21CustomAttributesCache
sA:__ZN7mecanim14ValueArrayCopyILb0EEEvPKNS_10ValueArrayEPS1_
cQ:__Z51Register_UnityEngine_Animator_get_hasBoundPlayablesv
gIg:_Collection_1_CopyTo_m3142835220_gshared
oe:emscriptenWebGLGetUniform
Bp:FUNCTION_TABLE_iiiiiiiiiii
MFh:_ValueCollection_System_Collections_IEnumerable_GetEnumerator_m2535969909_gshared
nXc:__ZN5physx2Gu19sweepCapsuleCapsuleERKNS0_7CapsuleES3_RKNS_6PxVec3EfRfRS4_S8_jRt
JRd:__ZN5physx2Gu29EPASupportMapPairRelativeImplINS0_9TriangleVENS0_11ConvexHullVEED0Ev
nEa:__Z32TransferEnumWithNameForceIntSizeI14SafeBinaryRead13TextureFormatEvRT_RT0_PKc17TransferMetaFlags
Coj:_CapsuleCollider_set_center_m3089889343
afb:__ZL10CleanUpJobP20CullingGroupsJobData
_8a:__Z20IsRunningNativeTestsv
Hfg:_DirectoryInfo_get_Exists_m3142069876
bHb:__ZN10MeshFilter23VirtualRedirectTransferER24GenerateTypeTreeTransfer
y7d:__ZN5physx13BigConvexData4LoadERNS_13PxInputStreamE
t1a:__ZN13RenderManager15BatchModeUpdateEv
hRf:_Array_InternalArray__ICollection_Contains_TisKeyValuePair_2_t4237331251_m138928983_gshared
lVl:__ZL77Font_t1956802104_CustomAttributesCacheGenerator_Font_HasCharacter_m2728901030P21CustomAttributesCache
oyh:_Enumerator_VerifyState_m1545185457_AdjustorThunk
qrh:_X509Chain_get_CertificateAuthorities_m804805415
yDb:__ZN14SafeBinaryRead21TransferSTLStyleArrayI13dynamic_arrayI8Vector2fLj4EEEEvRT_17TransferMetaFlags
dul:__ZL123GenericTypeParameterBuilder_t1988827940_CustomAttributesCacheGenerator_GenericTypeParameterBuilder_IsSubclassOf_m2266644074P21CustomAttributesCache
Kwa:__ZN17PersistentManager51InstanceIDToLocalSerializedObjectIdentifierInternalEiR31LocalSerializedObjectIdentifier
kHh:_Dictionary_2_System_Collections_Generic_IEnumerableU3CSystem_Collections_Generic_KeyValuePairU3CTKeyU2CTValueU3EU3E_GetEnumerator_m3183086864_gshared
a4j:_GenericEqualityComparer_1__ctor_m4072188982_gshared
xhd:__ZN5physx2Sc8ActorSim24postDominanceGroupChangeEv
TBc:__ZN8GUIState12GetControlIDEi9FocusType
Smk:_FieldWithTarget__ctor_m583221563
Sd:_glVertexAttribIPointer
ywi:_StringBuilder_ToString_m3317489284
FWj:_Context_AllocateNamedDataSlot_m103537862
umc:__ZNK6Sprite10GetPaddingE20SpriteRenderDataMode
pid:__ZN5physx2Cm8PtrTable5clearERNS0_22PtrTableStorageManagerE
cii:__Z77RuntimeInvoker_KeyValuePair_2_t4237331251_Int32_t2950945753_Int32_t2950945753PFvvEPK10MethodInfoPvPS4_
WSf:_Array_InternalArray__ICollection_Remove_TisUInt32_t2560061978_m733727733_gshared
xti:_CryptographicException__ctor_m503735289
Aoj:_CapsuleCollider_get_center_m2493090254
Z_c:__ZN5physx3Cct15ObstacleContext7releaseEv
pki:_ConstructionCall_get_CallSiteActivationAttributes_m3498917408
VSd:__ZN5physx27solveFrictionBlockWriteBackEPKNS_23PxcSolverConstraintDescEjRNS_16PxcSolverContextEPNS_25PxcThresholdStreamElementEjPi
nli:_RemotingConfiguration_get_ApplicationName_m593755586
QOh:__Z93RuntimeInvoker_Boolean_t97287965_Int32_t2950945753_SByte_t1669577662_ExceptionU26_t3600731591PFvvEPK10MethodInfoPvPS4_
wgm:_DataUtility_Internal_GetMinSize_m2954368021
UOj:_InternalEnumerator_1__ctor_m3322594868_gshared
nmk:_MathfInternal__cctor_m3796400441
owe:_UNITY_ft_glyphslot_alloc_bitmap
ZJh:_Dictionary_2_GetObjectData_m3463318060_gshared
CWg:_ReadOnlyCollection_1_System_Collections_IList_get_IsReadOnly_m165706550_gshared
TUl:__ZL90Animator_t434523843_CustomAttributesCacheGenerator_Animator_ResetTriggerString_m1083629800P21CustomAttributesCache
nih:_RSASslSignatureDeformatter_SetHashAlgorithm_m895570787
lTk:__ZN14dense_hash_mapI10KeyWrapperIP12Il2CppObjectEN6il2cpp2gc9CachedCCWENS4_5utils11PointerHashIS1_EENS3_14EqualsComparerINSt3__28equal_toIS2_EEEENSB_9allocatorINSB_4pairIKS3_S6_EEEEEC2EjRKS9_RKSE_
G_j:_X509CrlEntry__ctor_m4013514048
nrk:__ZN15dense_hashtableI10KeyWrapperIPK17Il2CppGenericInstES4_N6il2cpp8metadata21Il2CppGenericInstHashEN14dense_hash_setIS4_S7_NS4_14EqualsComparerINS6_24Il2CppGenericInstCompareEEENSt3__29allocatorIS4_EEE8IdentityESB_SE_E16reset_thresholdsEv
scc:__ZZN2UI13RectTransform15InitializeClassEvEN31FunctorImpl_62kTransformChanged4CallEPviR11MessageData
O7h:__Z87RuntimeInvoker_Color_t2555686324_Color_t2555686324_Color_t2555686324_Single_t1397266774PFvvEPK10MethodInfoPvPS4_
Kxe:_ft_raster1_render
iYl:__ZL89GUIStyle_t3956901511_CustomAttributesCacheGenerator_GUIStyle_set_stretchWidth_m3968500777P21CustomAttributesCache
Bxc:__Z57Register_UnityEngine_RectTransform_INTERNAL_set_anchorMaxv
Lem:_RenderTexture_Internal_GetWidth_m3496340582
Csg:_List_1_Contains_m2654125393_gshared
Fhl:_Matrix4x4_MultiplyPoint3x4_m1691748578
Gug:_List_1_CheckIndex_m2109147658_gshared
tqm:__ZNKSt3__221__basic_string_commonILb1EE20__throw_length_errorEv
a1j:_EqualityComparer_1_System_Collections_IEqualityComparer_Equals_m245992594_gshared
Nj:_JS_SystemInfo_GetMemory
fzj:_Selectable_get_allSelectables_m868218263
hZi:_WebSocket_send_m253119507
pXf:_Array_InternalArray__IndexOf_TisParameterModifier_t1461694466_m1227120810_gshared
cTa:__ZN18GfxFramebufferGLES13ReadbackImageER14ImageReferenceiiiiii
RJi:_FactoryCache__ctor_m206337971
Bni:_SerializationInfo_SetType_m3923964808
fya:__ZN6prcoreL12RemapGenericI17TexFormatARGB888815TexFormatRGB565EEvPKNS_9InnerInfoE
hV:__ZN4FMOD7Channel19setReverbPropertiesEPK29FMOD_REVERB_CHANNELPROPERTIES
Fjg:_StreamReader_Dispose_m156389394
bca:__ZN13MonoBehaviour22GetScriptFullClassNameEv
kAk:_il2cpp_object_get_class
mZe:_SymmetricAlgorithm_get_Padding_m1011382560
KWe:_RIPEMD160Managed_JJ_m112143231
s3d:__ZN5physx6shdfnd4sortIPNS_15PxsContactPatchENS_27SortBoundsPredicateManifoldENS0_19ReflectionAllocatorIS3_EEEEvPT_jRKT0_RKT1_j
oxh:_Comparer_1__ctor_m191896560_gshared
B_g:_PreviousInfo_t2148130204_marshal_pinvoke_back
_Ca:__ZN20SphericalHarmonicsL211AddWeightedERKS_f
PVl:__ZL93Canvas_t3310196443_CustomAttributesCacheGenerator_Canvas_GetDefaultCanvasMaterial_m2548556249P21CustomAttributesCache
UEd:__ZN5physx2Sc24ElementInteractionMarker12onDeactivateEj
aSh:__Z82RuntimeInvoker_RuntimeObject_Int64_t3736567304_Int64_t3736567304_Int64_t3736567304PFvvEPK10MethodInfoPvPS4_
kqj:_Component_get_tag_m3111332171
TVb:__Z19TransferField_ArrayI17RemapPPtrTransfer27Converter_SimpleNativeClassI8GUIStyleEEvRK23StaticTransferFieldInfoR31RuntimeSerializationCommandInfoRT0_
w9:__ZL22StaticInitializeShaderPv
jUi:_HttpBase_get_Headers_m2697833383
xGc:__ZN9JSONWrite8TransferI10ColorRGBAfEEvRT_PKc17TransferMetaFlags
s_c:__ZN5physx3Cct26CharacterControllerManager16createControllerERKNS_16PxControllerDescE
hOj:_InternalEnumerator_1__ctor_m3913006324_AdjustorThunk
xca:__Z25scripting_method_get_name18ScriptingMethodPtr
o9j:_Component_GetComponentsInChildren_TisRuntimeObject_m2439966880_gshared
Kxc:__Z35Register_UnityEngine_Resources_Loadv
yih:_SslCipherSuite_ComputeKeys_m661027754
sUb:__Z19TransferField_ArrayI14SafeBinaryRead16Converter_StringEvRK23StaticTransferFieldInfoR31RuntimeSerializationCommandInfoRT0_
uCg:_List_1_RemoveAll_m4058864288_gshared
mDf:_Convert_ToBoolean_m481380807
QLf:_Decimal_Equals_m2486655999
w2k:_GC_exit_check
DPg:_ReadOnlyCollection_1_System_Collections_Generic_ICollectionU3CTU3E_Remove_m1100818788_gshared
nXi:_PayloadData__cctor_m1032380990
Ot:__ZN7mecanim9animation9DenseClip8TransferI14SafeBinaryReadEEvRT_
Zij:_AnimatorStateInfo_get_speedMultiplier_m1871749593_AdjustorThunk
$Qc:__ZNK5physx2Gu15OBBTriangleTest10obbTriTestERKNS_6PxVec3ES4_S4_
kij:_AnimatorControllerPlayable_PlayInFixedTime_m3833898112
T7h:__Z52RuntimeInvoker_Boolean_t97287965_HitInfo_t3229609740PFvvEPK10MethodInfoPvPS4_
QOg:_Collection_1_set_Item_m11553568_gshared
$aa:__Z20UnlockObjectCreationv
T8i:_MonoField_ToString_m2518484388
s1g:_DSAManaged_get_Random_m923751780
JCh:_Transform_1_Invoke_m2385719192_gshared
AKi:_Interpreter_PopulateGroup_m4042796257
mDi:_Type_GetProperty_m3414567179
iOj:_InternalEnumerator_1_System_Collections_IEnumerator_Reset_m1451164462_AdjustorThunk
wF:__ZN9BlobWrite8TransferI22OffsetPtrArrayTransferI9OffsetPtrIN7mecanim12statemachine18StateMachineMemoryEEEEEvRT_PKc17TransferMetaFlags
Rte:_UNITY_ft_smooth_renderer_class_pic_free
yZ:__ZN19AudioPlayableOutput22OnConnectionHashChangeEv
bKg:_Collection_1_System_Collections_IList_IndexOf_m3894953546_gshared
QYj:_PKCS12_get_Certificates_m26161562
Glh:_NameObjectCollectionBase_Init_m2525481323
FZk:__ZN6il2cpp2vm6String8NewUtf16EPKDsi
vsi:_SByte_System_IConvertible_ToByte_m2268214252_AdjustorThunk
JWk:__ZN6il2cpp2os10ThreadImpl12QueueUserAPCEPFvPvES2_
Lxg:_List_1_get_Capacity_m3047075120_gshared
pS:__Z32TransferEnumWithNameForceIntSizeI14SafeBinaryReadN10SampleClip17CompressionFormatEEvRT_RT0_PKc17TransferMetaFlags
tQi:_RegularExpression__ctor_m119502265
Ure:__ZN20TextRenderingPrivate15DynamicFontData36GetFaceForCharacterIfAvailableInFontERKNS_7FontRefERKNSt3__26vectorI4PPtrIN13TextRendering4FontEE13stl_allocatorIS9_L18MemLabelIdentifier34ELi16EEEEj
_$c:__ZN5physx12PxControllerD2Ev
jRg:_ReadOnlyCollection_1_System_Collections_Generic_ICollectionU3CTU3E_Clear_m522482168_gshared
huh:_SocketAsyncResult_Complete_m3054928721
e2i:_DerivedType_IsByRefImpl_m2585680005
ski:_ConstructionCall_InitMethodProperty_m2021094586
I9l:__ZL65U3CU3Ec__DisplayClass7_t2136597917_CustomAttributesCacheGeneratorP21CustomAttributesCache
UWc:__ZNK5physx2Gu15HeightFieldUtil12traceSegmentI25CapsuleTraceSegmentReportLb0ELb0ELb1EEEvRKNS_6PxVec3ES6_PT_PS5_
Cxk:__ZNSt3__26__treeIP11Il2CppClassNS_4lessIS2_EENS_9allocatorIS2_EEE16__insert_node_atEPNS_16__tree_node_baseIPvEERSB_SB_
FZc:__ZN5physx3Cct17CapsuleController13setStepOffsetEf
jDe:_UNITY_FT_Hypot
vXd:__ZN5physx10PxsContext23prepareCMDiscreteUpdateEPNS_10PxBaseTaskE
$cc:__ZN8RendererC2E12RendererType18MemLabelIdentifier18ObjectCreationMode
U6l:__ZL74CanvasScaler_t2767979955_CustomAttributesCacheGenerator_m_DefaultSpriteDPIP21CustomAttributesCache
Shd:__ZN5physx6shdfnd5ArrayIPvNS0_19ReflectionAllocatorINS_2Cm5BlockIhLj256EEEEEE4copyINS0_15InlineAllocatorILj256ES7_EEEEvRKNS1_IS2_T_EE
hg:_emscripten_glGetError
pHk:__ZN15dense_hashtableINSt3__24pairIK10KeyWrapperIPK14Il2CppAssemblyEPK22Il2CppMonoAssemblyNameEES6_N6il2cpp5utils11PointerHashIS4_EEN14dense_hash_mapIS6_SA_SF_NS6_14EqualsComparerINS0_8equal_toIS5_EEEENS0_9allocatorISB_EEE9SelectKeyESK_SM_E14squash_deletedEv
D2g:_SmallXmlParser__ctor_m202236734
VV:__Z14FMOD_FILE_SeekPvjS_
wld:__ZN5physx6shdfnd8PoolBaseINS_11NpAggregateENS0_19ReflectionAllocatorIS2_EEE15disposeElementsEv
sif:_LayoutGroup__ctor_m2162961217
gWc:__ZThn4_N16RayRTreeCallbackILi1ELb1EE14processResultsEjPj
vHi:_ValueType_t3640485471_marshal_pinvoke_cleanup
Agb:__ZNK13RenderTexture32CalculateNeedsInvertedProjectionEv
N_c:__ZN5physx2Gu17RadixSortBuffered4SortEPKfj
pg:emscriptenWebGLGet
Iea:__Z19CanReplaceComponentRN5Unity9ComponentEPKNS_4TypeEPN4core12basic_stringIcNS5_20StringStorageDefaultIcEEEE
Ilg:_UnmanagedMemoryStream_Flush_m1540584491
tag:_GuidParser_ParseGuid2_m1914838819
Tfc:__ZN12CubemapArray11InitTextureEiii13TextureFormatb
xya:__ZN6prcoreL18BlitIntegerToFloatERK14ImageReferenceRS0_
slh:_ListDictionary_get_SyncRoot_m4242825143
g6k:__ZN6il2cpp2vm9LastError31InitializeLastErrorThreadStaticEv
npc:__Z17GetSceneBuildInfoRKN4core12basic_stringIcNS_20StringStorageDefaultIcEEEEiR14SceneBuildInfo
nug:_List_1_System_Collections_IList_get_Item_m1112579679_gshared
XGf:_Convert_ToSingle_m3983149863
NEj:_InternalEnumerator_1_System_Collections_IEnumerator_get_Current_m55999184_gshared
uFh:_ValueCollection_System_Collections_Generic_ICollectionU3CTValueU3E_Contains_m1842955046_gshared
kYa:__ZNK15Lz4Decompressor20DecompressStreamInitEPPv
hEk:__ZN24dense_hashtable_iteratorINSt3__24pairIK10KeyWrapperIPK10Il2CppTypeEjEES6_N6il2cpp8metadata14Il2CppTypeHashEN14dense_hash_mapIS6_jSB_NS6_14EqualsComparerINSA_26Il2CppTypeEqualityComparerEEENS0_9allocatorIS8_EEE9SelectKeyESF_SH_E30advance_past_empty_and_deletedEv
dTk:__ZN6il2cpp2os6Socket15SetSocketOptionENS0_17SocketOptionLevelENS0_16SocketOptionNameEi
qhf:_Graphic_get_depth_m815589653
B4c:__ZN27ConvexVsMeshOverlapCallbackC2ERKN5physx2Gu10ConvexMeshERKNS0_11PxMeshScaleERKNS0_2Cm23FastVertex2ShapeScalingERKNS0_11PxTransformESE_bRKNS1_3BoxE
qdf:_ContentSizeFitter_get_horizontalFit_m2773126143
A7j:_U3CStartU3Ec__Iterator0__ctor_m2366347741_gshared
dYg:_Func_2_BeginInvoke_m3203555673_gshared
dG:__ZN7mecanim5human13HumanFixTwistEPKNS0_5HumanEPNS_8skeleton13SkeletonPoseTIN4math4trsXEEES9_iiRKf
K9a:__ZL24AssignProjectorQueuesJobP30AssignProjectorQueuesJobHeader
yhm:_TextEditor_MoveTextEnd_m3937039734
Qfj:_AnimatorControllerPlayable_SetTrigger_m1884134869
A4h:__Z54RuntimeInvoker_AnimationLayerMixerPlayable_t3631223897PFvvEPK10MethodInfoPvPS4_
wJg:_Collection_1_System_Collections_IList_get_IsReadOnly_m4084244672_gshared
Fsk:__ZN15dense_hashtableINSt3__24pairIK10KeyWrapperIN6il2cpp5utils13dynamic_arrayIPK10Il2CppTypeLj4EEEEPFvvEEESA_NS3_8metadata19Il2CppSignatureHashEN14dense_hash_mapISA_SD_SG_NSA_14EqualsComparerINSF_22Il2CppSignatureCompareEEENS0_9allocatorISE_EEE9SelectKeyESK_SM_E4swapERSP_
Fbg:_Int16_System_IConvertible_ToUInt32_m3410279543
x7b:__ZN9ShaderLab20SerializedSubProgram14SetConstBufferEPKci
xIb:__Z22SkinVerticesGenericCPUILi2ELb1ELb0EEvPKhiiiiPhiPKvS4_
SAk:__ZN6il2cpp2os4File5CloseEPNS0_10FileHandleEPi
xdm:_RectTransform_INTERNAL_set_anchoredPosition_m3924630850
rZi:_WebSocket_U3CcheckProtocolsU3Eb__9_m746499225
one:__ZN13PhysicsModule17SetRigidBodyStateER9RigidbodyRKN8IPhysics14RigidBodyStateE
Pci:__Z48RuntimeInvoker_Boolean_t97287965_Link_t544317964PFvvEPK10MethodInfoPvPS4_
Kze:_cf2_getStdVW
uci:__Z53RuntimeInvoker_UIVertex_t4057497605_Int32_t2950945753PFvvEPK10MethodInfoPvPS4_
zEi:_UInt16_CompareTo_m2664746316_AdjustorThunk
DFh:_ValueCollection_GetEnumerator_m616748621_gshared
s9e:_MouseButtonEventData__ctor_m1200403967
hJg:_Collection_1_IsSynchronized_m2775206130_gshared
xOd:__ZN5physx2Sq12BucketPruner11shiftOriginERKNS_6PxVec3E
rLc:__Z29Transfer_Blittable_ArrayFieldI8JSONReadjEvRT_R9ArrayInfoRK23StaticTransferFieldInfo
R7c:__ZN5physx6shdfnd5ArrayIPNS_2Sc16ArticulationCoreENS0_19ReflectionAllocatorIS4_EEE15growAndPushBackERKS4_
C2k:_GC_check_finalizer_nested
Wg:__setLetterbox
_wa:__ZNSt3__26__treeINS_12__value_typeIN9ShaderLab16FastPropertyNameEfEENS_19__map_value_compareIS3_S4_NS_4lessIS3_EELb1EEENS_9allocatorIS4_EEE12__find_equalIS3_EERPNS_16__tree_node_baseIPvEENS_21__tree_const_iteratorIS4_PNS_11__tree_nodeIS4_SE_EEiEESH_RKT_
yyj:_ScrollRect_OnScroll_m3861066534
T1d:__ZN5physx19normalizePartitionsERNS_6shdfnd5ArrayIjNS0_19ReflectionAllocatorIjEEEEPNS_23PxcSolverConstraintDescEPKNS_13PxcSolverBodyEjjS5_
FRf:_Array_InternalArray__ICollection_Contains_TisResourceCacheItem_t51292791_m2991582559_gshared
Xug:_List_1__ctor_m4010933415_gshared
l0l:__ZL72FormerlySerializedAsAttribute_t2859083114_CustomAttributesCacheGeneratorP21CustomAttributesCache
WRc:__ZN18ContactCapsuleMesh20processTriangleCacheILj16EEEbRN5physx2Gu13TriangleCacheIXT_EEE
mNi:_PatternCompiler_EmitFastRepeat_m3012952683
ZFb:__ZNSt3__26vectorI17BlendShapeChannelNS_9allocatorIS1_EEE6assignINS_11__wrap_iterIPS1_EEEENS_9enable_ifIXaasr21__is_forward_iteratorIT_EE5valuesr16is_constructibleIS1_NS_15iterator_traitsISA_E9referenceEEE5valueEvE4typeESA_SA_
T1a:__ZN11TimeManager11GetRealtimeEv
y3c:__ZN5physx2Sc16InteractionScene25removeFromActiveActorListERNS0_5ActorE
WRe:__ZN20UnityWebRequestProtoI19TransportJavaScript16AtomicRefCounter14RedirectHelper14ResponseHelper15DownloadHandler13UploadHandler12HeaderHelper14AsyncOperationE26Job_ExecuteUnityWebRequestEPS8_
gW:__ZN29AudioEffectInternalDefinitionC2EP26UnityAudioEffectDefinitionb
VVg:_ReadOnlyCollection_1_System_Collections_IList_Remove_m2434650390_gshared
SEi:_UInt16_ToString_m3056878594_AdjustorThunk
gI:__ZN4PPtrI6AvatarE8TransferI18StreamedBinaryReadILb0EEEEvRT_
iLh:_Dictionary_2_System_Collections_Generic_ICollectionU3CSystem_Collections_Generic_KeyValuePairU3CTKeyU2CTValueU3EU3E_Contains_m2803718146_gshared
W$c:__ZN5physx3Ext21InertiaTensorComputer6rotateERKNS_7PxMat33E
Del:_GUIStyle_Internal_CalcSizeWithConstraints_m287899535
rCk:__ZNSt3__2plIcNS_11char_traitsIcEENS_9allocatorIcEEEENS_12basic_stringIT_T0_T1_EERKS9_PKS6_
Y0d:__ZN5physx22PxcDiscreteNarrowPhaseERNS_18PxcNpThreadContextERNS_13PxcNpWorkUnitE
UDa:_stbir_resize
BWf:_Array_IndexOf_TisCustomAttributeTypedArgument_t2723150157_m3158556463_gshared
C0j:_EqualityComparer_1_System_Collections_IEqualityComparer_GetHashCode_m360549782_gshared
hPf:_Environment_GetOSVersionString_m407782784
N4e:_DecoderExceptionFallback_Equals_m1082173956
ADj:_U3CGetEnumeratorU3Ec__Iterator0__ctor_m1150758267_gshared
Xbj:_UnityAnalyticsHandler_InternalDestroy_m3155597353
hHb:__ZN4PPtrI4MeshE8TransferI14SafeBinaryReadEEvRT_
vYd:__ZN5physx23PxcPCMContactCapsuleBoxERKNS_2Gu13GeometryUnionES3_RKNS_11PxTransformES6_RKfRNS_10PxcNpCacheERNS0_13ContactBufferE
uPl:__ZL101SceneManager_t2787271929_CustomAttributesCacheGenerator_SceneManager_Internal_SceneLoaded_m4023393011P21CustomAttributesCache
LYa:__Z37ReadDirectoryInfo_UnityWebAndUnityRawR12FileAccessorRKN20ArchiveStorageHeader6HeaderERNS1_13DirectoryInfoE
b9:__ZNSt3__26__treeINS_12__value_typeIPKciEENS_19__map_value_compareIS3_S4_15compare_tstringIS3_ELb1EEENS_9allocatorIS4_EEE7destroyEPNS_11__tree_nodeIS4_PvEE
T_f:_Array_InternalArray__Insert_TisIntPtr_t_m189626842_gshared
odg:_Int64_System_IConvertible_ToByte_m375085029_AdjustorThunk
ZEj:_InternalEnumerator_1_System_Collections_IEnumerator_get_Current_m2062365953_AdjustorThunk
Hxl:__ZL52LeaseState_t747101024_CustomAttributesCacheGeneratorP21CustomAttributesCache
zYg:_Locale_GetText_m3374010885
t0f:_Array_InternalArray__set_Item_TisAnimatorClipInfo_t3156717155_m21807017_gshared
CNg:_Collection_1_System_Collections_IEnumerable_GetEnumerator_m1598238343_gshared
jWe:_RijndaelManaged_CreateEncryptor_m263736311
JAi:_WaitCallback__ctor_m1893321019
dPe:__ZN13dynamic_arrayIN4core12basic_stringIcNS0_20StringStorageDefaultIcEEEELj4EE6assignEPKS4_S7_
o9l:__ZL73Ext_t2749166018_CustomAttributesCacheGenerator_Ext_UTF8Decode_m4288698255P21CustomAttributesCache
S6a:__ZN20DynamicPropertySheet14SetValueQueuedEN9ShaderLab16FastPropertyNameEN19ShaderPropertySheet12PropertyTypeEjNS2_8SetFlagsE
OGe:__ZN2UI6Canvas26MarkAllNestedCanvasesDirtyEv
HPk:__ZN6il2cpp2vm12ReboxIfBoxedEP14Il2CppIUnknownP11Il2CppClass
_Ua:__ZN16GeometryJobTasks20ScheduleGeometryJobsER9GfxDevicePFvP15GeometryJobDataEPK22GeometryJobInstructionjb
nmb:__ZN25PathNamePersistentManagerD2Ev
Uaa:__ZN17PersistentManager48IntegrateObjectAndUnlockIntegrationMutexInternalEi
FNl:__ZL73Random_t635017412_CustomAttributesCacheGenerator_Random_Range_m2870227214P21CustomAttributesCache
Mla:__ZZ29InitializeSortingGroupManagerPvEN44PostLateUpdateSortingGroupsUpdateRegistrator7ForwardEv
D0l:__ZL55EventTrigger_t1076084509_CustomAttributesCacheGeneratorP21CustomAttributesCache
h0e:_SecurityElement_SearchForChildByTag_m900466299
yq:__ZN6Object12SetHideFlagsENS_9HideFlagsE
Rge:__ZN9Rigidbody23VirtualRedirectTransferER14SafeBinaryRead
QGf:_Convert_ToSingle_m3227075028
Sxm:_emscripten_glGetFramebufferAttachmentParameteriv__wrapper
$1a:__ZN13RendererScene15InitializeUmbraEv
KCa:__Z28CalculateGlobalMatrixInverse23TransformAccessReadOnly
BIc:__ZN4PPtrI6ObjectE8TransferI9JSONWriteEEvRT_
LYl:__ZL59GUITargetAttribute_t25796337_CustomAttributesCacheGeneratorP21CustomAttributesCache
P3j:_GenericEqualityComparer_1_Equals_m3457564127_gshared
e5f:_Array_InternalArray__get_Item_TisSlot_t3975888750_m905303097_gshared
YGj:_InternalEnumerator_1_System_Collections_IEnumerator_Reset_m2386791007_AdjustorThunk
y4a:__ZN13dynamic_arrayI12BoneWeights4Lj16EE18resize_initializedEjRKS0_12ResizePolicy
J4e:_DecoderExceptionFallback__ctor_m4044614564
vTj:_GCHandle_ToIntPtr_m3288225389
_Ij:_InternalEnumerator_1_System_Collections_IEnumerator_Reset_m3011999097_AdjustorThunk
Qvd:__ZNK5physx15PxsParticleData15getWorldBoundsVEv
Mee:__ZN15CapsuleCollider13AwakeFromLoadE17AwakeFromLoadMode
_ba:__ZN13MonoBehaviour19ReleaseMonoInstanceEv
SXc:__ZN12_GLOBAL__N_124HfTrianglesEntityReport27onEventEjPj
zXl:__ZL80GUISkin_t1244372282_CustomAttributesCacheGenerator_m_verticalScrollbarDownButtonP21CustomAttributesCache
J9i:_MonoProperty_CachePropertyInfo_m2968057423
oyd:__ZN5physx22NpParticleBaseTemplateINS_16PxParticleSystemENS_16NpParticleSystemEE17setStaticFrictionEf
dtl:__ZL53RegionInfo_t1090270226_CustomAttributesCacheGeneratorP21CustomAttributesCache
jol:__ZL74Single_t1397266774_CustomAttributesCacheGenerator_Single_IsNaN_m4024467661P21CustomAttributesCache
Rgd:__ZN5physx17PxsContactManager16resetCachedStateEv
XRe:__ZN12HeaderHelper14SetUnvalidatedERKN4core12basic_stringIcNS0_20StringStorageDefaultIcEEEES6_b
BS:__ZN4FMOD6SoundI7releaseEv
NAd:__ZN5physx20NpRigidActorTemplateINS_14PxRigidDynamicEE15setActorSimFlagEb
oJb:__ZN14SpriteRenderer13AwakeFromLoadE17AwakeFromLoadMode
zZa:__ZN10MemoryFile9SetLengthEy
$K:__ZN7mecanim10ValueArray8TransferI19StreamedBinaryWriteILb0EEEEvRT_
j8k:_ExecuteInEditMode__ctor_m2328450127
q_c:__ZNK5physx3Cct26CharacterControllerManager16getNbControllersEv
EPb:__Z28scripting_class_is_interface17ScriptingClassPtr
ji:_glTexStorage2D
a6f:_CultureInfo_ConstructInternalLocaleFromName_m4012802696
l7b:__ZNK9ShaderLab10SubProgram14EnsureCompiledEv
t5i:_MethodBuilder_GetGenericArguments_m1765425737
lJf:_DateTime_CompareTo_m3687348273
S9j:_KeyValuePair_2_get_Key_m2288232422_AdjustorThunk
KJf:_DateTime_ToUniversalTime_m1945318289_AdjustorThunk
Kje:__ZN5physx7profile10DataBufferINS_6shdfnd6MutexTINS0_26WrapperReflectionAllocatorIhEEEENS0_14ScopedLockImplIS6_EEE17handleBufferFlushEPKhj
hOf:_Enum_t4135868527_marshal_pinvoke
Cfj:_AnimatorControllerPlayable_INTERNAL_CALL_GetIntegerString_m225398
nca:__Z18BuildScriptClassId17ScriptingClassPtr
u3g:_RSAManaged_Finalize_m3915335854
Rr:__ZNK16LevelGameManager7GetNameEv
xgc:__ZN8Renderer28HandleParentHierarchyChangesEPK23TransformAccessReadOnlyj
oil:_Mesh_SetVertices_m2641879696
Kna:__ZL31DeleteLastPathNameComponentImplRKN4core12basic_stringIcNS_20StringStorageDefaultIcEEEEPKc
Lac:__Z13RegisterClassI18DelayedCallManagerEvv
EOe:__ZN18UnityConnectClient15GetCloudServiceEv
fWb:__Z18Transfer_BlittableI24GenerateTypeTreeTransferLb0EiEvRK29SerializationCommandArgumentsR31RuntimeSerializationCommandInfo
E4d:__ZN5physx20PxsConstraintProjectEPKNS_13PxsConstraintEbf
wod:__ZN5physx7NpShape7setFlagENS_11PxShapeFlag4EnumEb
OJj:_InternalEnumerator_1_get_Current_m2698009637_gshared
fEh:_Enumerator_System_Collections_IEnumerator_Reset_m278261807_gshared
wdl:_GUIStyleState_GetBackgroundInternalFromDeserialization_m3576650576
yPb:__ZL28SerializationCommandGroupForRK31TransferFunctionScriptingTraits17ScriptingClassPtr17ScriptingFieldPtrRK20CoreScriptingClasses
vrb:__ZN10TagManager32RegisterDefaultTagsAndLayerMasksEv
YBh:_ShimEnumerator_MoveNext_m3492974564_gshared
aAg:_List_1_System_Collections_IList_get_IsReadOnly_m1729002068_gshared
qYh:__Z50RuntimeInvoker_Double_t594665363_Int32_t2950945753PFvvEPK10MethodInfoPvPS4_
Zdk:_Predicate_1_EndInvoke_m1490920825_gshared
rFl:__ZL78LoaderOptimization_t1484956347_CustomAttributesCacheGenerator_DisallowBindingsP21CustomAttributesCache
tEg:_Queue_1_CopyTo_m39711753_gshared
B0d:__ZN5physx2Sc35ParticleElementRbElementInteraction12onDeactivateEj
d9h:__Z104RuntimeInvoker_Void_t1185182177_Color_t2555686324_Single_t1397266774_SByte_t1669577662_SByte_t1669577662PFvvEPK10MethodInfoPvPS4_
zzg:_List_1_Remove_m3853969205_gshared
Fpg:_Enumerator_System_Collections_IEnumerator_get_Current_m1540440674_gshared
tqg:_List_1_System_Collections_ICollection_get_IsSynchronized_m1235563358_gshared
e1e:_Single_System_IConvertible_ToInt16_m809233024_AdjustorThunk
hMe:__Z56Register_UnityEngine_Analytics_CustomEventData_AddUInt32v
Gom:_fmodf
nFg:_Collection_1_Contains_m726396241_gshared
EXe:_RSAPKCS1SHA1SignatureDescription__ctor_m621804060
INa:__ZN4gles8InitCapsEP7ApiGLESP12GraphicsCapsR16GfxDeviceLevelGL
yxa:__ZN6prcore14BlitImageFloatERK14ImageReferenceRS0_NS0_8BlitModeE
cFa:__Z24CalculateVertexLightDataRK15SharedLightDataR14GfxVertexLight
Ti:_glEnable
JAa:__ZN15dense_hashtableINSt3__24pairIKiiEEi21InstanceIDHashFunctorN14dense_hash_mapIiiS4_NS0_8equal_toIiEE13stl_allocatorIS3_L18MemLabelIdentifier1ELi16EEE9SelectKeyES7_SA_E12maybe_shrinkEv
bMj:_InternalEnumerator_1_MoveNext_m973048327_gshared
R4a:__ZNK25CameraStackRenderingState21GetImageEffectTextureEb
hKd:__ZN5physx2Sq8AABBTreeC2Ev
TMi:_PatternCompiler_EmitCategory_m851169746
lHc:__Z35Transfer_Blittable_FixedBufferFieldI9JSONWriteiEvRK29SerializationCommandArgumentsR31RuntimeSerializationCommandInfo
Jfl:_HumanBone_t2465339518_marshal_pinvoke_cleanup
d4j:_Enumerator__ctor_m1590062855_AdjustorThunk
gNb:__ZNSt3__26vectorI4PPtrI6ObjectE13stl_allocatorIS3_L18MemLabelIdentifier51ELi16EEE6assignINS_11__wrap_iterIPS3_EEEENS_9enable_ifIXaasr21__is_forward_iteratorIT_EE5valuesr16is_constructibleIS3_NS_15iterator_traitsISD_E9referenceEEE5valueEvE4typeESD_SD_
KVl:__ZL85Canvas_t3310196443_CustomAttributesCacheGenerator_Canvas_set_sortingOrder_m2825109295P21CustomAttributesCache
tC:__ZN26AnimatorControllerPlayable17ProcessRootMotionEP35AnimationPlayableEvaluationConstantP32AnimationPlayableEvaluationInputP33AnimationPlayableEvaluationOutput
Eyl:__ZL54SoapServices_t133988723_CustomAttributesCacheGeneratorP21CustomAttributesCache
mlg:_UnexceptionalStreamReader_Peek_m1842169584
Fmk:_AnalyticsTracker_SendEvent_m2955089255
jNe:__ZN11UnityEngine7Connect15DeviceInfoEvent16CollectExtraInfoEv
$_k:__ZN6il2cpp2os11Environment22SetEnvironmentVariableERKNSt3__212basic_stringIcNS2_11char_traitsIcEENS2_9allocatorIcEEEESA_
Ivk:__ZN6il2cpp6icalls6System6System3Net7Sockets6Socket8ShutdownE12Il2CppIntPtrNS4_14SocketShutdownEPi
G7d:__ZN5physx2Gu10ConvexMeshD2Ev
Nti:_CryptographicException__ctor_m1422015889
rcm:_Rect_get_size_m3542039952_AdjustorThunk
gHk:__ZN6il2cpp2gc19AppendOnlyGCHashMapIPK10Il2CppTypeP20Il2CppReflectionTypeNS_8metadata14Il2CppTypeHashENS7_26Il2CppTypeEqualityComparerEEC2Ev
RHf:_Convert_ChangeType_m739676612
Rpm:_atoi
Bcg:_Int32_System_IConvertible_ToInt32_m265310525_AdjustorThunk
Spm:_atol
k4k:__ZN6il2cpp6icalls8mscorlib6System10Reflection9FieldInfo25internal_from_handle_typeE12Il2CppIntPtrS5_
D$k:__ZThn8_N6il2cpp2vm13CachedCCWBaseINS0_13ManagedObjectEE6AddRefEv
Jbh:_Alert_GetAlertMessage_m1942367141
a6l:__ZL88Selectable_t3250028441_CustomAttributesCacheGenerator_U3CisPointerDownU3Ek__BackingFieldP21CustomAttributesCache
Imi:_RemotingServices_GetRealProxy_m2081098851
Y0g:_BlockProcessor_Core_m189015002
Hqk:__ZN15dense_hashtableINSt3__24pairIK10KeyWrapperIPKcEP11Il2CppClassEES5_N6il2cpp5utils11StringUtils12StringHasherIS4_EEN14dense_hash_mapIS5_S8_SE_NS5_14EqualsComparerINSB_13VmStringUtils21CaseSensitiveComparerEEENS0_9allocatorIS9_EEE9SelectKeyESJ_SL_EC2EjRKSE_RKSJ_RKSN_
_xm:_emscripten_glScissor__wrapper
ofl:_GUIStyleState__ctor_m1882292417
Gp:FUNCTION_TABLE_viifi
Jp:FUNCTION_TABLE_viiff
o0:__Z75AudioPlayableGraphExtensions_CUSTOM_INTERNAL_CALL_InternalCreateAudioOutputR14HPlayableGraphP12Il2CppStringP15HPlayableOutput
J1c:__ZNK5physx2Sc8ShapeSim10getBodySimEv
z5g:_X501__cctor_m1166912714
y1l:__ZL102PointerEventData_t3807901092_CustomAttributesCacheGenerator_PointerEventData_set_lastPress_m2928324031P21CustomAttributesCache
Luj:_MaskUtilities_GetRectMasksForClip_m532898711
yDe:_UNITY_tt_face_free_hdmx
zJk:__ZN15dense_hashtableINSt3__24pairIK10KeyWrapperINS1_IP11Il2CppClassjEEES4_EES6_N6il2cpp8metadata14ArrayClassHashEN14dense_hash_mapIS6_S4_SB_NS6_14EqualsComparerINSA_17ArrayClassCompareEEENS0_9allocatorIS8_EEE9SelectKeyESF_SH_E5clearEv
eqk:__ZNSt3__218uninitialized_copyIPNS_4pairIK10KeyWrapperIPK11Il2CppClassEPKcEESB_EET0_T_SD_SC_
ZAk:__ZN6il2cpp2vm14TypeNameParser5ParseEb
cmg:_Math_Sqrt_m1297338011
Yjg:_StreamWriter_Initialize_m3490883444
ELk:__ZN6il2cpp6icalls8mscorlib6System7Runtime15InteropServices7Marshal17copy_to_unmanagedEP11Il2CppArrayi12Il2CppIntPtri
zDi:_Type_GetGenericArguments_m3500465462
B3j:_GenericEqualityComparer_1__ctor_m143873952_gshared
Whd:__ZN5physx6shdfnd5ArrayIPvNS0_19ReflectionAllocatorINS_2Cm5BlockIhLj128EEEEEE15growAndPushBackERKS2_
eRe:__ZN23UnityPurchasingSettingsC2Ev
LIb:__ZNK9Transform13GetWorldScaleEv
O7i:_Module_IsDefined_m2423524910
dsh:_X509Certificate2Enumerator__ctor_m1083666285
EWf:_Array_IndexOf_TisColor32_t2600501292_m2718632137_gshared
U5l:__ZL66Selectable_t3250028441_CustomAttributesCacheGenerator_m_NavigationP21CustomAttributesCache
Yaj:_ResolveEventHandler__ctor_m1911137231
Y6c:__ZN5physx2Sc11Interaction10onActivateEj
BWc:__ZNK5physx2Gu29EPASupportMapPairRelativeImplINS0_4BoxVENS0_11ConvexHullVEE6getDirEv
cpd:__ZN5physx14NpShapeManager15setupSceneQueryERNS_2Sq17SceneQueryManagerERKNS_12PxRigidActorERKNS_7NpShapeE
AWf:_Array_IndexOf_TisCustomAttributeNamedArgument_t287865710_m2817957199_gshared
dha:__ZNSt3__26__treeINS_12__value_typeI18VertexChannelsInfo16MeshVertexFormatEENS_19__map_value_compareIS2_S4_NS_4lessIS2_EELb1EEE13stl_allocatorIS4_L18MemLabelIdentifier16ELi16EEE12__find_equalIS2_EERPNS_16__tree_node_baseIPvEENS_21__tree_const_iteratorIS4_PNS_11__tree_nodeIS4_SF_EEiEESI_RKT_
sQg:_ReadOnlyCollection_1_System_Collections_IList_RemoveAt_m1980090087_gshared
_Da:__ZL37stbir__resample_horizontal_downsampleP11stbir__infoiPf
YXj:_ExtendedKeyUsageExtension_ToString_m2116504780
fBa:__ZNK5Unity9Component38MarkGameObjectAndComponentDependenciesER27GarbageCollectorThreadState
F7:__ZL16OutOfMemoryErrorjj18MemLabelIdentifieriPKc
kfg:_BinaryReader_Read_m3708759962
H9c:__ZNK5physx2Sc9ClothCore23getExternalAccelerationEv
QZ:__ZNK7Texture21GetShadowSamplingModeEv
Oca:__ZNK11TypeManager15ClassNameToRTTIEPKcb
FVc:__ZN5physx2Gu13coarseCullingERKNS_6PxVec3ES3_ffRKNS_10PxTriangleE
Bma:__ZN13ScreenManager21OnWindowRegainedFocusEv
v1b:__Z18Transfer_BlittableI18StreamedBinaryReadILb0EELb1EdEvRK29SerializationCommandArgumentsR31RuntimeSerializationCommandInfo
rzm:_emscripten_glVertexAttrib2fv__wrapper
QSe:__ZN13RuntimeStaticINSt3__26vectorIPN5physx15PxVehicleWheelsENS0_9allocatorIS4_EEEELb0EE13StaticDestroyEPv
zkg:_SynchronizedReader_ReadToEnd_m2160105378
b1d:__ZN5physx2Sc5Scene29processNarrowPhaseTouchEventsEv
mQa:__ZN4crnd12symbol_codec32decode_receive_static_data_modelERNS_25static_huffman_data_modelE
ncc:__ZN18ScriptingArguments8AddFloatEf
Djf:_Image_set_fillOrigin_m469806249
$Me:__ZN11UnityEngine15PlatformWrapper16GetVRRenderScaleEv
Kbd:__ZN5physx6shdfnd5ArrayIPvNS0_15InlineAllocatorILj256ENS0_19ReflectionAllocatorINS_18NpArticulationLinkEEEEEE15growAndPushBackERKS2_
JHh:_Dictionary_2_GetEnumerator_m2532220708_gshared
dIc:__Z18Transfer_BlittableI9JSONWriteLb0EaEvRK29SerializationCommandArgumentsR31RuntimeSerializationCommandInfo
H1:__ZN11UnityEngine15CloudWebService14DataDispatcher34OnSessionContainerArchivedAndReadyERNS0_16SessionContainerE
g8g:_Kernel_Multiply_m193213393
$mg:_IntComparer__ctor_m2901422390
d$c:__ZNK5physx3Cct15ObstacleContext11getObstacleEj
Zaj:_ResolveEventHandler_Invoke_m1337322179
Kzl:__ZL50HMACMD5_t2742219965_CustomAttributesCacheGeneratorP21CustomAttributesCache
gRj:_Comparer_1__ctor_m1078828713_gshared
nYb:__Z18Transfer_BlittableI19StreamedBinaryWriteILb0EELb0E8Vector3fEvRK29SerializationCommandArgumentsR31RuntimeSerializationCommandInfo
Ack:_Enumerator_VerifyState_m2621680056_gshared
oRi:_UriParser_InternalRegister_m3643767086
w3b:__ZN14SafeBinaryRead19TransferSTLStyleMapINSt3__23mapIN4core12basic_stringIcNS3_20StringStorageDefaultIcEEEEiNS1_4lessIS7_EENS1_9allocatorINS1_4pairIKS7_iEEEEEEEEvRT_17TransferMetaFlags
m8f:_DateTimeFormatInfo_get_RawAbbreviatedDayNames_m1257850285
hFk:__ZN15dense_hashtableINSt3__24pairIK10KeyWrapperINS1_IPK11Il2CppImageP11Il2CppClassEEEjEES9_17ReflectionMapHashIS8_EN14dense_hash_mapIS9_jSD_NS9_14EqualsComparerINS0_8equal_toIS8_EEEENS0_9allocatorISB_EEE9SelectKeyESI_SK_ED2Ev
fve:_gray_move_to
AKf:_DBNull_System_IConvertible_ToSingle_m13713620
C7l:__ZL127U3CDelayedSetDirtyU3Ec__Iterator0_t3170500204_CustomAttributesCacheGenerator_U3CDelayedSetDirtyU3Ec__Iterator0_Reset_m160466733P21CustomAttributesCache
Lci:__Z59RuntimeInvoker_Boolean_t97287965_KeyValuePair_2_t3699644050PFvvEPK10MethodInfoPvPS4_
ilm:_Vector2_GetHashCode_m2690926524
bGk:__ZN6il2cpp2vm10Reflection14GetEventObjectEP11Il2CppClassPK9EventInfo
Qjf:_Image_GetDrawingDimensions_m3060965396
X3h:__Z73RuntimeInvoker_AudioPlayableOutput_t2664391219_PlayableOutput_t3179894105PFvvEPK10MethodInfoPvPS4_
TDi:_TypeLoadException__ctor_m1154572625
epc:__Z30RegisterValidateMethodCallbackiPF18ScriptingMethodPtrS_17ScriptingClassPtrP6ObjectEPKc
coa:__ZN20LocalFileSystemPosixD0Ev
sol:__ZL75Decimal_t2948259380_CustomAttributesCacheGenerator_Decimal__ctor_m593929528P21CustomAttributesCache
ffh:_Context_get_WriteSequenceNumber_m1115956887
D6g:_Activator_CreateInstanceInternal_m1337209899
R3f:_Dictionary_2_Do_ICollectionCopyTo_TisKeyValuePair_2_t2401056908_m1169495264_gshared
QXi:_WebSocket_remove_OnError_m565859643
a6i:_OpCodes__cctor_m3821715395
pdf:_ContentSizeFitter__ctor_m2349275633
sHl:__ZL56TypeConverter_t2249118273_CustomAttributesCacheGeneratorP21CustomAttributesCache
obk:_Enumerator_get_Current_m3044490399_AdjustorThunk
HNd:__ZN5physx13IslandManager6resizeEj
gLg:_Collection_1_RemoveAt_m3506636491_gshared
Dwe:_tt_cmap_init
Ta:invoke_viidi
Tbc:__ZN9TextAssetC2E18MemLabelIdentifier18ObjectCreationMode
$Ti:_U3CSplitHeaderValueU3Ed__f_System_Collections_Generic_IEnumerableU3CSystem_StringU3E_GetEnumerator_m479541149
C6c:__ZN5physx6shdfnd8PoolBaseINS_2Cm5BlockIPvLj16EEENS0_19ReflectionAllocatorIS5_EEE17releaseEmptySlabsEv
hhf:_Graphic_OnRectTransformDimensionsChange_m3695755375
xsi:_SByte_System_IConvertible_ToChar_m1489191771_AdjustorThunk
Qfi:__Z76RuntimeInvoker_Void_t1185182177_Int32_t2950945753_PlayableBinding_t354260709PFvvEPK10MethodInfoPvPS4_
xLi:_Interval_t1802865632_marshal_pinvoke_cleanup
LKk:__ZNK15dense_hashtableINSt3__24pairIK10KeyWrapperIP11Il2CppClassES4_EES5_N6il2cpp8metadata16SZArrayClassHashEN14dense_hash_mapIS5_S4_SA_NS5_14EqualsComparerINS9_19SZArrayClassCompareEEENS0_9allocatorIS7_EEE9SelectKeyESE_SG_E12test_deletedEj
Dhf:_Graphic_GraphicUpdateComplete_m1502194795
P$c:__ZL20updateMassAndInertiabRN5physx11PxRigidBodyEPKfjPKNS_6PxVec3Eb
LKc:__Z18Transfer_BlittableI8JSONReadLb0EdEvRK29SerializationCommandArgumentsR31RuntimeSerializationCommandInfo
Uje:__ZN5physx24NpPtrTableStorageManagerC2Ev
JJ:__ZN7mecanim9animation21BlendTreeNodeConstant35Transfer_4_0_BackwardsCompatibilityI14SafeBinaryReadEEvRT_
hXj:_SynchronizationAttribute_EnterContext_m1660729920
sKe:__Z44Register_UnityEngine_Canvas_set_sortingOrderv
uQg:_ReadOnlyCollection_1_System_Collections_ICollection_get_SyncRoot_m2522539235_gshared
lvj:_VertexHelper_Clear_m627349662
gwk:__ZN6il2cpp2vm21ThreadPoolCompartment13QueueWorkItemEP17Il2CppAsyncResult
dJa:__ZNK9GfxDevice13GetViewMatrixEv
Jlg:_UnmanagedMemoryStream_Dispose_m2681886347
yGd:__ZN5physx7NpScene15flushSimulationEb
JFj:_InternalEnumerator_1_System_Collections_IEnumerator_get_Current_m1295084274_gshared
qnd:__ZN5physx6shdfnd8PoolBaseINS_10NpMaterialENS0_19ReflectionAllocatorIS2_EEE12allocateSlabEv
Jda:__ZN8TypeTree8BlobReadERPKhS1_ib
Ccj:_AnimationEvent_get_animationState_m2229874910
oqf:_Array_Reverse_m3714848183
Dff:_Dropdown_ClearOptions_m4085591601
Fcf:_CanvasUpdateRegistry_InternalRegisterCanvasElementForGraphicRebuild_m3522560454
Bak:_KeyValuePair_2__ctor_m880186442_gshared
kbe:__ZN5physx18ReducedVertexCloudC2EPKNS_6PxVec3Ej
CBa:__ZN18LoadSceneOperation23GetAllowSceneActivationEv
b1j:_EqualityComparer_1_get_Default_m1811086326_gshared
ssb:__ZN6CameraD0Ev
Tja:__ZN31CanvasBatchIntermediateRenderer16StaticInitializeEPv
GNg:_Collection_1_System_Collections_IList_IndexOf_m837396833_gshared
KB:__ZN7mecanim12AndValueMaskILb0EEEvPKNS_14ValueArrayMaskEPS1_
z0f:_Array_InternalArray__set_Item_TisRaycastHit_t1056001966_m42652901_gshared
Zhb:__ZN10GameObjectC2E18MemLabelIdentifier18ObjectCreationMode
hue:_raccess_guess_apple_double
jRa:__ZL18ProgramUniform1uivPK7ApiGLESjiihPKv
H7h:__Z65RuntimeInvoker_Boolean_t97287965_RuntimeObject_Single_t1397266774PFvvEPK10MethodInfoPvPS4_
Q1f:_Array_Sort_TisByte_t1134296376_m343015505_gshared
cgc:__ZN14Texture2DArray13RebuildMipMapEv
Gpk:__ZN13Il2CppHashSetIPK17Il2CppGenericInstN6il2cpp8metadata21Il2CppGenericInstHashENS4_24Il2CppGenericInstCompareENSt3__29allocatorI10KeyWrapperIS2_EEEEC2EjRKS5_RKS6_
lSb:__Z18Transfer_BlittableI14SafeBinaryReadLb1EaEvRK29SerializationCommandArgumentsR31RuntimeSerializationCommandInfo
UXk:__ZN6il2cpp2gc16GarbageCollector14RemoveWeakLinkEPPv
y7b:__ZN9ShaderLab20SerializedSubProgram14AddVectorParamEPKcii15ShaderParamTypei
zwg:_List_1_GetEnumerator_m563931292_gshared
wIe:__ZN2UI14CanvasRenderer12CleanupClassEv
Gfd:__ZNK5physx19NpRigidBodyTemplateINS_18PxArticulationLinkEE27getMinCCDAdvanceCoefficientEv
DCf:_Enumerator__ctor_m3362421874
A8h:__Z117RuntimeInvoker_CSSSize_t3377836552_IntPtr_t_Single_t1397266774_Int32_t2950945753_Single_t1397266774_Int32_t2950945753PFvvEPK10MethodInfoPvPS4_
gnj:_Camera_FireOnPreCull_m2863664483
ODm:_emscripten_glIsFramebuffer__wrapper
vUk:__ZN6il2cpp2vm6Object3BoxEP11Il2CppClassPv
Vdc:__ZN26HandleIndexedCountedBitSetD2Ev
Bq:__ZN6Object23VirtualRedirectTransferER19StreamedBinaryWriteILb1EE
Woa:__ZN13ScreenManager18SetAllowCursorLockEb
$2:__ZN11UnityEngine15CloudWebService10RestClientINS0_23WebRequestRestHeaderMapEE16SetRequestHeaderERKN4core12basic_stringIcNS4_20StringStorageDefaultIcEEEESA_
YNb:__ZN30RuntimeInitializeOnLoadManager15ClassMethodInfo8TransferI14SafeBinaryReadEEvRT_
hki:_ConstructionCall_InitDictionary_m2824447813
$9c:__ZNK5physx2Sc10ClothShape8isActiveEv
Raj:_TargetException__ctor_m3701535709
ydi:__Z86RuntimeInvoker_Int32_t2950945753_Vector3_t3722313464_Vector3_t3722313464_RuntimeObjectPFvvEPK10MethodInfoPvPS4_
z$:__ZL22InitializeModule_Audiov
kOd:__ZN5physx2Sq11PruningPoolD0Ev
jnb:__ZN16MemoryFileSystem8IsLockedERK13FileEntryData
cWd:__ZN3MBP15removeBoxPrunerEj
AJk:__ZN15dense_hashtableINSt3__24pairIK10KeyWrapperINS1_IP11Il2CppClassjEEES4_EES6_N6il2cpp8metadata14ArrayClassHashEN14dense_hash_mapIS6_S4_SB_NS6_14EqualsComparerINSA_17ArrayClassCompareEEENS0_9allocatorIS8_EEE9SelectKeyESF_SH_E8min_sizeEjj
pVh:__Z92RuntimeInvoker_RuntimeObject_RuntimeObject_RuntimeObject_SByte_t1669577662_SByte_t1669577662PFvvEPK10MethodInfoPvPS4_
Cl:_emscripten_glBindRenderbuffer
PDc:__Z32GUIStyle_Set_Custom_PropClippingP12Il2CppObjecti
nMl:__ZL118TouchScreenKeyboard_t731888065_CustomAttributesCacheGenerator_TouchScreenKeyboard_Open_m2745521035____textPlaceholder6P21CustomAttributesCache
gug:_List_1_System_Collections_IList_Insert_m1011775503_gshared
r2k:_GC_dirty_init
sRk:__ZN6il2cpp2vm5Image33GetCachedMemoryMappedResourceFileEP24Il2CppReflectionAssembly
hUk:__ZN6il2cpp2vm5Field14GetValueObjectEP9FieldInfoP12Il2CppObject
QHe:__ZNK2UI6Canvas16GetTargetDisplayEv
Bci:__Z69RuntimeInvoker_Void_t1185182177_Int32_t2950945753_Vector2_t2156229523PFvvEPK10MethodInfoPvPS4_
yVi:_AuthenticationResponse__ctor_m3150153889
KRh:__Z42RuntimeInvoker_UIntPtr_t_Int64_t3736567304PFvvEPK10MethodInfoPvPS4_
dTc:__ZL15SweepBoxCapsulePKN5physx3Cct9SweepTestEPKNS0_11SweptVolumeEPKNS0_11TouchedGeomERKNS_14PxExtendedVec3ERKNS_6PxVec3ERNS0_12SweptContactE
Bha:__ZN6Object17FindObjectsOfTypeEPKN5Unity4TypeER13dynamic_arrayIPS_Lj4EEb
Tkc:__ZNSt3__26vectorINS_4pairIiiEE13stl_allocatorIS2_L18MemLabelIdentifier1ELi16EEE21__push_back_slow_pathIKS2_EEvRT_
MIc:__ZN9JSONWrite8TransferI4PPtrI9Texture2DEEEvRT_PKc17TransferMetaFlags
mIg:_Collection_1_Remove_m3611142372_gshared
XOb:__ZN13MonoBehaviour17RemoveFromManagerEv
I5d:__ZN5physx2Sc19ParticlePacketShapeD2Ev
FIe:__ZL23RegisterModuleICalls_UIv
iDb:__ZL11DecodeValuePPKcS0_
S$e:_WindowsIdentity_System_Runtime_Serialization_IDeserializationCallback_OnDeserialization_m3428853631
r6:__ZN13MemoryManagerC2Ev
fUa:__ZN12SkinMeshInfo10DeallocateEPS_
$xj:_ScrollRect_SetDirty_m214267968
dEj:_ArrayReadOnlyList_1_CopyTo_m1127871639_gshared
Jw:__ZN15SerializeTraitsI22OffsetPtrArrayTransferIN7mecanim13ValueConstantEEE8TransferI19StreamedBinaryWriteILb0EEEEvRS3_RT_
M$a:__ZN20ArchiveStorageReader28AcquireAndPrefillUnusedBlockEjPNS_11CacheResultE
esf:_Boolean_System_IConvertible_ToDateTime_m603510836
Xfc:__Z12NHxRoughnessIA4_tEvP9Texture2DPT_iiii
Kik:__ZL25UnresolvedVirtualCall_103P12Il2CppObjectiS0_iS0_S0_PK10MethodInfo
EUi:_HttpResponse_get_Cookies_m491054665
y0g:_ASN1_get_Value_m1857007406
aia:__ZN18AsyncUploadManagerD2Ev
m9b:__ZN9Transform5ResetEv
GMf:_DelegateSerializationHolder__ctor_m23226427
aGf:_Decimal_op_Explicit_m1842265407
_Xb:__Z22TransferField_NonArrayI24GenerateTypeTreeTransfer16Converter_StringEvRK23StaticTransferFieldInfoR31RuntimeSerializationCommandInfoRT0_
uwe:_UNITY_FT_CMap_New
rGj:_InternalEnumerator_1_get_Current_m4241643334_AdjustorThunk
kFj:_InternalEnumerator_1_MoveNext_m154749640_AdjustorThunk
Moa:__Z17MainLoopKeepalivePv
t9c:__ZN5physx7NpScene16addActorInternalERNS_7PxActorE
mxj:_Selectable_FindSelectableOnDown_m1591762582
l6l:__ZL62Slider_t3903728902_CustomAttributesCacheGenerator_m_HandleRectP21CustomAttributesCache
Ueb:__Z24ScheduleCullingAllGroupsR8JobFenceRK22SceneCullingParameters4PPtrI6CameraERK13CullingOutputRK13dynamic_arrayIP12CullingGroupLj4EERKS_
xMj:_InternalEnumerator_1_get_Current_m1588647567_AdjustorThunk
Knm:_printf_core
pwl:__ZL51GCHandle_t3351438187_CustomAttributesCacheGeneratorP21CustomAttributesCache
eeb:__Z14CalcHullBoundsPK8Vector3fPKhhRK5PlaneRK10Matrix4x4fR10MinMaxAABB
Tkf:_InputField_get_caretBlinkRate_m3620074524
Vmk:_FieldWithTarget_get_fieldPath_m341366840
RY:__ZNK14SoundHandleAPI12GetFrequencyEv
N6a:__Z19SetupLODFadeKeywordR17ShaderPassContexti
gwe:_UNITY_FT_Stream_ReadFields
LXe:_RSAPKCS1SignatureFormatter_CreateSignature_m3191980616
ATa:__ZL25CheckCopyTextureArgumentsRK7ApiGLESP11GLESTextureS3_
zMj:_InternalEnumerator_1__ctor_m362401472_AdjustorThunk
wug:_List_1_AsReadOnly_m2400800347_gshared
Vha:__ZN13dynamic_arrayI26EnlightenSystemInformationLj8EE6insertEPS0_PKS0_S4_
_ve:_tt_name_entry_ascii_from_utf16
DXb:__Z29Transfer_Blittable_ArrayFieldI24GenerateTypeTreeTransferyEvRT_R9ArrayInfoRK23StaticTransferFieldInfo
zHi:_ValueType_Equals_m1524437845
XZl:__ZL71RuntimePlatform_t4159857903_CustomAttributesCacheGenerator_OSXWebPlayerP21CustomAttributesCache
yV:__ZN4FMOD7SystemI9playSoundE17FMOD_CHANNELINDEXPNS_5SoundEbPPNS_7ChannelE
Tdg:_Int64_GetHashCode_m703091690
nne:__ZN13PhysicsModule31GetColliderComponentsInChildrenERK10GameObjectbbR13dynamic_arrayIPN5Unity9ComponentELj4EE
W5:__GLOBAL__sub_I_runtime_graphics_mesh2_lump_cpp
Qqd:__ZNK5physx7NpCloth16getStretchConfigENS_22PxClothFabricPhaseType4EnumE
T_j:_X509CrlEntry_get_RevocationDate_m606796547
JB:__ZN27AnimationLayerMixerPlayable17LayerMixerProcessEP35AnimationPlayableEvaluationConstantP32AnimationPlayableEvaluationInputP33AnimationPlayableEvaluationOutputM17AnimationPlayableFvS1_S3_S5_EMS_FvS1_S3_S5_ESA_MS_FvS5_S1_S3_S5_ifE
sFf:_Decimal_op_Implicit_m4256234411
mw:__ZN18StreamedBinaryReadILb0EE21TransferSTLStyleArrayI13dynamic_arrayI12PPtrKeyframeLj4EEEEvRT_17TransferMetaFlags
URh:__Z60RuntimeInvoker_RuntimeObject_RuntimeObject_Int16_t2552820387PFvvEPK10MethodInfoPvPS4_
HFb:__ZN10VertexData13SwapEndianessEv
Bjg:_StreamReader__ctor_m3941437302
tzc:__Z57Register_UnityEngine_Transform_INTERNAL_get_localRotationv
hph:_IPv6Address_get_Address_m1389170741
LNb:__ZN30RuntimeInitializeOnLoadManager23VirtualRedirectTransferER17RemapPPtrTransfer
xum:dynCall_viif
C4h:__Z85RuntimeInvoker_PlayableHandle_t1095853803_PlayableGraph_t3515989261_Int32_t2950945753PFvvEPK10MethodInfoPvPS4_
uum:dynCall_viii
ukg:_StringReader_ReadLine_m2337102945
Vqj:_Coroutine_ReleaseCoroutine_m1341336641
mcm:_Rect_get_height_m977101306
Uej:_AnimatorControllerPlayable_GetAnimatorControllerInternal_m2390544595
B4d:__ZN5physx2Sc24ConstraintProjectionTree11projectPoseERNS0_19ConstraintGroupNodeE
rVb:__ZL26Transfer_SimpleNativeClassI17RemapPPtrTransfer8GradientLb0EEvRK29SerializationCommandArgumentsR31RuntimeSerializationCommandInfo
E$k:__ZThn8_N6il2cpp2vm13CachedCCWBaseINS0_13ManagedObjectEE7ReleaseEv
dBf:_SyncHashtable_Add_m3016107307
Osf:_Boolean_Equals_m2410333903_AdjustorThunk
SAg:_List_1_System_Collections_IList_Contains_m2131605266_gshared
Wyl:__ZL61ISurrogateSelector_t3040401154_CustomAttributesCacheGeneratorP21CustomAttributesCache
vne:__ZN13PhysicsModule29GetColliderMaterialInstanceIDER8Collider
ifd:__ZNK5physx20NpRigidActorTemplateINS_18PxArticulationLinkEE14getConstraintsEPPNS_12PxConstraintEjj
zCg:_List_1_ToArray_m1990123684_gshared
J3:__ZN13UploadHandlerD2Ev
xsm:dynCall_viiiiiffi
Tgm:_SystemInfo_get_operatingSystemFamily_m846124428
hd:_emscripten_glBlendFuncSeparate
lKg:_Collection_1_Add_m809543251_gshared
daa:__Z20scripting_string_newPKc
Sxc:__Z43Material_CUSTOM_Internal_CreateWithMaterialP12Il2CppObjectS0_
yQi:_Parser_IsSingleline_m326238187
Wyf:_CollectionBase_get_Count_m1708965601
tUe:_HMAC__ctor_m97939284
Dhl:_Matrix4x4_Equals_m2121237340_AdjustorThunk
DQk:__ZNK24NamespaceAndNamePairHashclERKNSt3__24pairIPKcS3_EE
yHi:_ValueType_DefaultEquals_m2927252100
F0g:_ASN1_ToString_m1340204511
fJi:_X509Store_get_Certificates_m2149701265
Ifd:__ZNK5physx19NpRigidBodyTemplateINS_18PxArticulationLinkEE27getMaxDepenetrationVelocityEv
fDi:_Type_GetField_m2961003358
wmh:_EditorBrowsableAttribute_GetHashCode_m123071459
JL:__ZN6Avatar23VirtualRedirectTransferER17RemapPPtrTransfer
s2l:__ZL144StandaloneInputModule_t2760469101_CustomAttributesCacheGenerator_StandaloneInputModule_t2760469101____allowActivationOnMobileDevice_PropertyInfoP21CustomAttributesCache
C8d:__ZThn8_N5physx2Gu11HeightFieldD1Ev
Dwi:_StringBuilder_set_Chars_m3548656617
KAk:__ZN6il2cpp2os4File17GetFileAttributesERKNSt3__212basic_stringIcNS2_11char_traitsIcEENS2_9allocatorIcEEEEPi
$Ad:__ZN5physx19NpRigidBodyTemplateINS_14PxRigidDynamicEED0Ev
ydd:__ZNK5physx19PxArticulationJoint19getConcreteTypeNameEv
jei:__Z59RuntimeInvoker_Int32_t2950945753_X509ChainStatus_t133602714PFvvEPK10MethodInfoPvPS4_
NG:__ZNSt3__26__sortIRPFbPKN8Animator11AnimatorJobES4_EPS4_EEvT0_S9_T_
qT:__ZN17AudioCustomFilterD2Ev
GR:__Z91Register_UnityEngine_Animations_AnimatorControllerPlayable_INTERNAL_CALL_ResetTriggerStringv
RYj:_X509CertificateCollection_GetEnumerator_m92169144
A9g:_ARC4Managed_GenerateKey_m1607343060
V2h:__Z78RuntimeInvoker_Void_t1185182177_PlayableHandleU26_t645981773_Double_t594665363PFvvEPK10MethodInfoPvPS4_
t9b:__ZN9Transform16ResetReplacementEv
PWi:_WebHeaderCollection_checkName_m1344657992
Ksl:__ZL64DebuggerBrowsableState_t747501856_CustomAttributesCacheGeneratorP21CustomAttributesCache
cCc:__ZNK8GUIStyle13GetLineHeightEv
aLl:__ZL87Display_t1387065949_CustomAttributesCacheGenerator_Display_GetSystemExtImpl_m1142438950P21CustomAttributesCache
LSa:__ZN18GfxFramebufferGLES18ReleaseFramebufferEP17RenderSurfaceBaseP14GfxContextGLES
Fic:__ZN13ProduceHelperI6CameraLb0EE7ProduceE18MemLabelIdentifier18ObjectCreationMode
Nkg:_TextReader_Dispose_m4253712522
f5:__ZN19CloudServiceHandler34HandleSaveFileWebRequestPlayerLoopEv
zGl:__ZL82BigInteger_t2902905090_CustomAttributesCacheGenerator_BigInteger__ctor_m2474659844P21CustomAttributesCache
VC:__ZN7mecanim21ValueArrayReverseCopyEPKNS_18ValueArrayConstantEPKNS_10ValueArrayES2_PS3_PKi
bT:__Z31GetParentSampleClipFromInstancePN11SoundHandle8InstanceE
akh:_InternalAsyncResult_get_BytesRead_m3975435112
ucc:__ZNK28RectTransformPropertyBinding13GetFloatValueERKN11UnityEngine9Animation10BoundCurveE
EYc:__ZN5physx11PxHitBufferINS_12PxOverlapHitEE14processTouchesEPKS1_j
Xgb:__ZN6Camera22StandaloneCustomRenderENS_10RenderFlagEP6ShaderRKN4core12basic_stringIcNS3_20StringStorageDefaultIcEEEEPNS_21PerformRenderFunctionE
YWf:_Array_InternalArray__IndexOf_TisKeyValuePair_2_t2401056908_m4118889689_gshared
uOg:_Collection_1_System_Collections_ICollection_get_IsSynchronized_m500240145_gshared
$Hl:__ZL68X509CertificateCollection_t3399372417_CustomAttributesCacheGeneratorP21CustomAttributesCache
fCd:__ZL22addOrRemoveRigidObjectILb0ELb0ELb0ELb1EN5physx3Scb11RigidStaticEEvRNS0_2Sc5SceneERT3_b
e7k:__ZN6il2cpp2os16ThreadLocalValue8GetValueEPPv
$qh:_X509Certificate2_get_PublicKey_m370665820
IXj:_AsyncResult_AsyncProcessMessage_m2076471000
Jd:_glUniform1uiv
Sej:_AnimatorControllerPlayable_Equals_m2059519356
Lzc:__Z52Object_CUSTOM_GetOffsetOfInstanceIDInCPlusPlusObjectv
OHg:_Collection_1_System_Collections_Generic_ICollectionU3CTU3E_get_IsReadOnly_m1419845799_gshared
O6c:__ZN5physx6shdfnd4sortIPvNS0_4LessIS2_EENS0_19ReflectionAllocatorINS_2Cm5BlockIS2_Lj8EEEEEEEvPT_jRKT0_RKT1_j
g_:__ZN9AudioClip15InitializeClassEv
Zmd:__ZNK5physx9NpPhysics11getNbShapesEv
rq:setThrew
Umi:_SoapMethodAttribute_get_XmlNamespace_m4029617514
Pfc:__ZL21BuildEmptyCubeTexturePKci11ColorRGBA3217TextureColorSpace
z3b:__ZN14SafeBinaryRead21TransferSTLStyleArrayINSt3__26vectorIN9ShaderLab20SerializedSubProgramENS1_9allocatorIS4_EEEEEEvRT_17TransferMetaFlags
uXf:_Array_InternalArray__IndexOf_TisX509ChainStatus_t133602714_m48896230_gshared
SJc:__Z15Transfer_StringI8JSONReadLb1EEvRK29SerializationCommandArgumentsR31RuntimeSerializationCommandInfo
qem:_Vector2_op_Implicit_m1304503157
Uya:__ZN6prcoreL17RemapGenericFloatI17TexFormatRGBFloat15TexFormatRGHalfEEvPKNS_9InnerInfoE
e8a:__Z25DoForwardShaderRenderLoopR17RenderLoopContextR13dynamic_arrayI16RenderObjectDataLj4EERK11CullResultsbbbN6Camera10RenderFlagE
A2e:_String_IndexOf_m3406607758
yve:_sfnt_load_face
Ire:_UNITY_FT_Render_Glyph_Internal
s9j:_GameObject_GetComponents_TisRuntimeObject_m2246329454_gshared
KUi:_HttpResponse_get_StatusCode_m4232740025
pve:_UNITY_ft_service_list_lookup
kVb:__Z18Transfer_BlittableI17RemapPPtrTransferLb1E11ColorRGBA32EvRK29SerializationCommandArgumentsR31RuntimeSerializationCommandInfo
FBc:__ZN5IMGUI21SelectReceivingWindowER8GUIStateb
JUe:_HMAC_Initialize_m3157696427
XRc:__ZN5physx2Gu20intersectTriangleBoxERKNS_6PxVec3ES3_S3_S3_S3_
NO:__ZNK26AnimatorControllerPlayable17ValidateGoToStateERiS0_
Uld:__ZN5physx10NpMaterial8setFlagsENS_7PxFlagsINS_14PxMaterialFlag4EnumEtEE
Tyg:_List_1_System_Collections_ICollection_CopyTo_m3643417403_gshared
Bob:__ZN13BaseAllocator13TryDeallocateEPv
RZb:__Z29Transfer_Blittable_ArrayFieldI19StreamedBinaryWriteILb0EEfEvRT_R9ArrayInfoRK23StaticTransferFieldInfo
n8j:_ListPool_1_Release_m1363449253_gshared
lJi:_X509SubjectKeyIdentifierExtension__ctor_m2055934916
Tdl:_GUIStyle_set_overflow_m935744454
Qck:_Enumerator_Dispose_m2531396701_AdjustorThunk
dOg:_Collection_1_set_Item_m480139225_gshared
Tmb:__ZN16MemoryFileSystem5WriteER13FileEntryDatayPvPy
eYl:__ZL87GUIStyle_t3956901511_CustomAttributesCacheGenerator_GUIStyle_set_fixedWidth_m3951783853P21CustomAttributesCache
Ckk:__ZL25UnresolvedVirtualCall_203P12Il2CppObjectsPK10MethodInfo
atb:__ZNSt3__26vectorIN12FlareManager10FlareEntryENS_9allocatorIS2_EEE21__push_back_slow_pathIKS2_EEvRT_
Gnm:_sprintf
p$l:__ZL67NativeContainerAttribute_t2600515814_CustomAttributesCacheGeneratorP21CustomAttributesCache
p3g:_PrivateKeyInfo_DecodeRSA_m2889346634
NT:__ZN13AudioListener17RemoveFromManagerEv
ce:_glAttachShader
Adf:_ContentSizeFitter_SetLayoutHorizontal_m2833273874
mie:__ZN5physx6shdfnd8internal8HashBaseINS0_4PairIKtPKcEEtNS0_4HashItEENS1_11HashMapBaseItS6_S9_NS_7profile26WrapperReflectionAllocatorIS6_EEE6GetKeyESD_Lb1EE6createERS4_Rb
H5a:__ZNK6Camera19GetProjectionMatrixEv
Z5d:__ZNK5physx2Cm12DelegateTaskINS_2Sc5SceneEXadL_ZNS3_18clothPreprocessingEPNS_10PxBaseTaskEEEE7getNameEv
rHd:__ZNK5physx7NpScene24getWakeCounterResetValueEv
qAd:__ZN5physx20NpRigidActorTemplateINS_14PxRigidDynamicEE17resolveReferencesERNS_24PxDeserializationContextE
D4l:__ZL70InputField_t3762917431_CustomAttributesCacheGenerator_m_SelectionColorP21CustomAttributesCache
qlf:_InputField_SetToCustomIfContentTypeIsNot_m2813459946
BOh:__Z49RuntimeInvoker_DateTime_t3738529785_RuntimeObjectPFvvEPK10MethodInfoPvPS4_
a_l:__ZL70RuntimePlatform_t4159857903_CustomAttributesCacheGenerator_FlashPlayerP21CustomAttributesCache
kDc:__Z33GUI_CUSTOM_INTERNAL_CALL_DoButtonRK5RectTIfEP12Il2CppObject13Il2Cpp_IntPtr
Pag:_Guid_GetHashCode_m3042133858_AdjustorThunk
JYd:__ZN5physx2Gu32PCMConvexVsMeshContactGeneration20generateLastContactsEv
Xba:__Z38PreallocateObjectFromPersistentManagerib
hsj:_Event_t2956885303_marshal_pinvoke_cleanup
uRl:__ZL57SphereCollider_t2077223608_CustomAttributesCacheGeneratorP21CustomAttributesCache
tim:_TextEditor_SelectTextStart_m2956527974
cmd:__ZThn12_N5physx10NpMaterialD0Ev
KKi:_Interpreter_Backtrack_m2828876822
Y5:__GLOBAL__sub_I_runtime_interfaces_lump_cpp
ozb:__ZNK9Texture2D20GetUnscaledTextureIDEv
zul:__ZL103TypeBuilder_t1073948154_CustomAttributesCacheGenerator_TypeBuilder_DefineDefaultConstructor_m2168449784P21CustomAttributesCache
Nsi:_SByte_System_IConvertible_ToType_m4075253447
r4g:_StrongName_get_PublicKey_m1841537984
lce:__ZN5physx6shdfnd4sortIjNS_19SortBoundsPredicateENS0_19ReflectionAllocatorIjEEEEvPT_jRKT0_RKT1_j
GAm:_glFenceSync__wrapper
JR:__Z103Register_UnityEngine_Animations_AnimatorControllerPlayable_INTERNAL_CALL_IsParameterControlledByCurveIDv
Cod:__ZN5physx7NpShape14onRefCountZeroEv
xmf:_InputField_IsValidChar_m1928072643
Kbe:__ZL15TestContainmentRKN5physx6PxVec3EPKfjPKNS_2Gu15HullPolygonDataE
efi:__Z51RuntimeInvoker_Void_t1185182177_HitInfo_t3229609740PFvvEPK10MethodInfoPvPS4_
tzb:__ZNK9Texture2D26CanReuploadDataToGfxDeviceEv
l2b:__ZN18StreamedBinaryReadILb0EE21TransferSTLStyleArrayI13dynamic_arrayI4AABBLj4EEEEvRT_17TransferMetaFlags
SAl:__ZL63CodeAccessPermission_t2681295399_CustomAttributesCacheGeneratorP21CustomAttributesCache
eCa:__Z29ClearRepeatingLogMessageStatev
KKj:_InternalEnumerator_1_get_Current_m3191242573_gshared
Utf:_Byte_Equals_m1161982810_AdjustorThunk
EZk:__ZN6il2cpp2vm6String6NewLenEPKcj
vei:__Z53RuntimeInvoker_Int32_t2950945753_UICharInfo_t75501106PFvvEPK10MethodInfoPvPS4_
L8d:__ZN5physx2Gu11HeightField12loadFromDescERKNS_17PxHeightFieldDescEb
Gcc:__ZN15QualitySettings12CleanupClassEv
pha:__ZN21EnlightenSceneMappingaSERKS_
aCg:_List_1_GrowIfNeeded_m278824317_gshared
_5i:_OpCode_get_StackBehaviourPush_m986094870_AdjustorThunk
BXa:__ZN7ApiGLESD2Ev
Wjj:_AsyncOperation_InternalDestroy_m2288495658
Yak:_KeyValuePair_2_get_Key_m2065642340_AdjustorThunk
Iib:__ZN9Transform47ClearTransformHierarchyAndApplyToSerializedDataEv
xEd:__ZN5physx6shdfnd8PoolBaseINS_2Gu30LargePersistentContactManifoldENS0_19ReflectionAllocatorIS3_EEE12allocateSlabEv
Mld:__ZNK5physx10NpMaterial17getReferenceCountEv
VSk:__ZN6il2cpp2os6Socket8ShutdownEi
Jmf:_InputField_IsSelectionVisible_m3622592134
tcj:_AnimationEvent_set_objectReferenceParameter_m1772927931
tmb:__ZN17PersistentManager9AddStreamEv
Uum:dynCall_fidi
B3i:_TypeBuilder_IsDefined_m1289323273
OEc:__Z47Register_UnityEngine_GUIStyle_set_imagePositionv
N0d:__ZN5physx20getVertexEdgeIndicesERKNS_2Gu11HeightFieldEjjjPNS_8EdgeDataE
Qug:_List_1_TrimExcess_m3433550210_gshared
pEc:__Z49GUIStyle_CUSTOM_INTERNAL_CALL_Internal_DrawCursor13Il2Cpp_IntPtrRK5RectTIfEP12Il2CppObjectiRK10ColorRGBAf
DJd:__ZN5physx6shdfnd5ArrayIPNS_2Sc8BodyCoreENS0_19ReflectionAllocatorIS4_EEE6resizeEjRKS4_
t_c:__ZN5physx3Cct26CharacterControllerManager16createControllerERNS_9PxPhysicsEPNS_7PxSceneERKNS_16PxControllerDescE
l4:__ZN11UnityEngine15CloudWebService14RestDownloaderD2Ev
Z5k:__ZN6il2cpp6icalls6System6System14ComponentModel14Win32Exception15W32ErrorMessageEi
A2i:_EnumBuilder_get_Assembly_m1175292766
olb:__Z29StdTemplateConversionFunctionIjhEbPvR14SafeBinaryRead
R2f:_Array_swap_TisCustomAttributeNamedArgument_t287865710_TisCustomAttributeNamedArgument_t287865710_m881919420_gshared
$oc:__ZNK13MonoBehaviour13GetScriptTypeEv
Oqa:__ZN13RenderTexture12SetDimensionE16TextureDimension
l1g:_DSAManaged_add_KeyGenerated_m2286864968
Ue:_SDL_FreeRW
KMd:__ZN5physx6shdfnd8PoolBaseINS_2Cm5BlockIhLj128EEENS0_19ReflectionAllocatorIS4_EEE15disposeElementsEv
X0l:__ZL109ExecuteEvents_t3484638744_CustomAttributesCacheGenerator_ExecuteEvents_U3Cs_HandlerListPoolU3Em__0_m391641698P21CustomAttributesCache
Efi:__Z79RuntimeInvoker_Void_t1185182177_Int32_t2950945753_ParameterModifier_t1461694466PFvvEPK10MethodInfoPvPS4_
hJe:__Z34CanvasRenderer_Get_Custom_PropCullP12Il2CppObject
Owd:__ZN5physx3Scb14ParticleSystem14setRestOffsetsEjRKNS_16PxStrideIteratorIKjEERKNS2_IKfEE
zfe:__ZN12MeshCollider11CreateShapeEPvPK9RigidbodyRK8Vector3f
oY:__ZN20SoundChannelInstance8getDelayE14FMOD_DELAYTYPEPjS1_
d5k:__ZNSt3__26__treeINS_12__value_typeIPvxEENS_19__map_value_compareIS2_S3_NS_4lessIS2_EELb1EEENS_9allocatorIS3_EEE12__find_equalIS2_EERPNS_16__tree_node_baseIS2_EESF_RKT_
ctj:_InvokableCall__ctor_m616326848
cEj:_ArrayReadOnlyList_1_Contains_m232667507_gshared
g9j:_ScriptableObject_CreateInstance_TisRuntimeObject_m3068602743_gshared
SXh:__Z77RuntimeInvoker_Boolean_t97287965_IntPtr_t_Int32_t2950945753_SByte_t1669577662PFvvEPK10MethodInfoPvPS4_
xqe:__ZNSt3__26vectorIN20TextRenderingPrivate8FontImpl13CharacterInfoE13stl_allocatorIS3_L18MemLabelIdentifier1ELi16EEE8__appendEj
ljg:_Stream_Dispose_m2589290611
v:tempBigInt
p$f:_Array_InternalArray__Insert_TisKeyframe_t4206410242_m1558638568_gshared
kDl:__ZL77Convert_t2465617642_CustomAttributesCacheGenerator_Convert_ToByte_m3567528984P21CustomAttributesCache
af:_emscripten_glVertexAttrib1fv
d4b:__ZNSt3__26vectorIN9ShaderLab20SerializedSubProgram12UAVParameterENS_9allocatorIS3_EEE7reserveEj
v7g:_BigInteger__ctor_m2644482640
orm:__ZSt11__terminatePFvvE
rId:__ZN5physx13NpVolumeCacheC2EPNS_2Sq17SceneQueryManagerEjj
K7c:__ZThn24_N5physx2Sc20ArticulationJointSimD1Ev
phm:_TextEditor_MoveUp_m4121125103
ZV:__ZN12AudioManager14systemCallbackEP11FMOD_SYSTEM24FMOD_SYSTEM_CALLBACKTYPEPvS3_
nPl:__ZL57PlayableOutput_t3179894105_CustomAttributesCacheGeneratorP21CustomAttributesCache
wRh:__Z53RuntimeInvoker_Single_t1397266774_Decimal_t2948259380PFvvEPK10MethodInfoPvPS4_
zoj:_CapsuleCollider__ctor_m2689926723
ZTg:_ReadOnlyCollection_1_System_Collections_Generic_ICollectionU3CTU3E_Clear_m3451551308_gshared
wbf:_BaseMeshEffect_OnEnable_m3291426649
XR:__ZN10SampleClip23VirtualRedirectTransferER24GenerateTypeTreeTransfer
Pwd:__ZN5physx2Sc18ParticleSystemCore14setRestOffsetsEjRKNS_16PxStrideIteratorIKjEERKNS2_IKfEE
mSc:__ZN5physx2Gu16testPolyDataAxisERKNS0_8CapsuleVERKNS0_13PolygonalDataEPNS0_12SupportLocalERKNS_6shdfnd3aos6FloatVERSB_RNSA_5Vec3VE
jgb:__ZN16ReflectionProbes16UpdateSampleDataEv
Bad:__ZN5physx2Sc17ParticleSystemSimD0Ev
Y$l:__ZL90PlayerEditorConnectionEvents_t3411787513_CustomAttributesCacheGenerator_disconnectionEventP21CustomAttributesCache
oTl:__ZL121AnimatorControllerPlayable_t1015767841_CustomAttributesCacheGenerator_AnimatorControllerPlayable_StringToHash_m2492053860P21CustomAttributesCache
IMl:__ZL98Quaternion_t2301928331_CustomAttributesCacheGenerator_Quaternion_INTERNAL_CALL_Inverse_m1744399623P21CustomAttributesCache
W6j:_UnityEvent_3_GetDelegate_m3568004668_gshared
$Qb:__ZN14SafeBinaryRead21TransferSTLStyleArrayI10vector_setI4PPtrI10MonoScriptENSt3__24lessIS4_EE13stl_allocatorIS4_L18MemLabelIdentifier76ELi16EEEEEvRT_17TransferMetaFlags
QEb:__ZN14Texture2DArray5ResetEv
xLc:__ZN8JSONRead21TransferSTLStyleArrayINSt3__26vectorI10RectOffset13stl_allocatorIS3_L18MemLabelIdentifier1ELi16EEEEEEvRT_S5_17TransferMetaFlags
xdb:__Z20AddActiveLocalLightsR11CullResultsR27LocalLightCullingParametersPPK15SharedLightDataPK8Vector4fRK9IndexListPfRSA_R12ActiveLightsSG_P5RectTIfEP13TargetEyeMask
lsl:__ZL80Hashtable_t1853889766_CustomAttributesCacheGenerator_Hashtable__ctor_m1763145853P21CustomAttributesCache
qFa:__ZN14BatchAllocator6CommitE18MemLabelIdentifier
bMg:_Collection_1__ctor_m3489157029_gshared
aym:_emscripten_glRenderbufferStorage__wrapper
Mpj:_Color_op_Multiply_m69884213
yf:_JS_Sound_Play
Wwl:__ZL56_MethodBuilder_t600455149_CustomAttributesCacheGeneratorP21CustomAttributesCache
WUg:_ReadOnlyCollection_1_System_Collections_IList_set_Item_m1538987737_gshared
RQj:_DefaultComparer_Compare_m1920986590_gshared
$Yi:_WebSocketFrame_dump_m1260598339
a3b:__ZN9ShaderLab16SerializedShader8TransferI14SafeBinaryReadEEvRT_
QFa:__ZN5Mutex7TryLockEv
Cif:_GridLayoutGroup_set_constraint_m3308895167
Kki:_ConstructionCallDictionary_SetMethodProperty_m3145285304
Mcg:_Int32_System_IConvertible_ToUInt32_m3557270157
R_h:__Z243RuntimeInvoker_Void_t1185182177_Int16_t2552820387_RuntimeObject_Int32_t2950945753_Int32_t2950945753_Int32_t2950945753_SByte_t1669577662_SByte_t1669577662_SByte_t1669577662_SByte_t1669577662_Int16_t2552820387_SByte_t1669577662_SByte_t1669577662PFvvEPK10MethodInfoPvPS4_
fFj:_InternalEnumerator_1_System_Collections_IEnumerator_get_Current_m1503522504_gshared
fG:__ZN7mecanim8skeleton13SkeletonAlignEPKNS0_8SkeletonERKN4math7_float4ES7_i
Igc:__ZN19ShaderPropertySheet16SetVectorIndexedEN9ShaderLab16FastPropertyNameEifRK8Vector4fNS_8SetFlagsE
zCi:_Type_get_IsAbstract_m1120089130
Kr:__ZN14SafeBinaryRead21TransferSTLStyleArrayIN4core12basic_stringIcNS1_20StringStorageDefaultIcEEEEEEvRT_17TransferMetaFlags
fSi:_UriFormatException__ctor_m1115096473
cJj:_InternalEnumerator_1_Dispose_m2818366163_AdjustorThunk
moh:_Dns_GetHostEntry_m3727355895
EUf:_Array_InternalArray__IEnumerable_GetEnumerator_TisSlot_t384495010_m460993382_gshared
sck:_Enumerator_Dispose_m670887799_AdjustorThunk
yJk:__ZN15dense_hashtableINSt3__24pairIK10KeyWrapperINS1_IP11Il2CppClassjEEES4_EES6_N6il2cpp8metadata14ArrayClassHashEN14dense_hash_mapIS6_S4_SB_NS6_14EqualsComparerINSA_17ArrayClassCompareEEENS0_9allocatorIS8_EEE9SelectKeyESF_SH_E9copy_fromERKSK_j
Slb:__Z29StdTemplateConversionFunctionIayEbPvR14SafeBinaryRead
MBd:__ZNK5physx20NpRigidActorTemplateINS_13PxRigidStaticEE14getConstraintsEPPNS_12PxConstraintEjj
KUc:__ZN25MeshMTDGenerationCallbackD0Ev
Hji:__Z55RuntimeInvoker_Boolean_t97287965_Nullable_1_t2603721331PFvvEPK10MethodInfoPvPS4_
O4:__ZN11UnityEngine15CloudWebService14DataDispatcher4StopEv
Hbg:_Int16_System_IConvertible_ToUInt64_m134975563
f4b:__ZNSt3__26vectorIN9ShaderLab20SerializedSubProgram12UAVParameterENS_9allocatorIS3_EEE8__appendEj
Nvl:__ZL68TargetInvocationException_t4266643902_CustomAttributesCacheGeneratorP21CustomAttributesCache
HGk:__ZNK15dense_hashtableINSt3__24pairIK10KeyWrapperINS1_IPK9EventInfoP11Il2CppClassEEEjEES9_17ReflectionMapHashIS8_EN14dense_hash_mapIS9_jSD_NS9_14EqualsComparerINS0_8equal_toIS8_EEEENS0_9allocatorISB_EEE9SelectKeyESI_SK_E12test_deletedERK24dense_hashtable_iteratorISB_S9_SD_SM_SI_SK_E
wBc:__ZN5IMGUI9GUIWindow5OnGUIER8GUIState
flm:_Vector2_set_Item_m1664083694_AdjustorThunk
a1e:_Single_System_IConvertible_ToDecimal_m325860800_AdjustorThunk
YZf:_Array_InternalArray__ICollection_CopyTo_TisSingle_t1397266774_m455540885_gshared
yta:__ZN17ScriptingGCHandle7AcquireE18ScriptingObjectPtr25ScriptingGCHandleWeakness
K$:__ZN19AudioPlayableOutputC2EjP13PlayableGraph
j_h:__Z74RuntimeInvoker_RuntimeObject_RuntimeObject_Int64_t3736567304_RuntimeObjectPFvvEPK10MethodInfoPvPS4_
Jgd:__ZN5physx12NpConstraint8comShiftEPNS_12PxRigidActorE
xEh:_Enumerator__ctor_m1734342590_gshared
ygj:_AnimatorControllerPlayable_GetLayerWeightInternal_m396188831
Npk:__ZN14dense_hash_mapI10KeyWrapperIPK11Il2CppClassEPKcN6il2cpp5utils11PointerHashIS1_EENS4_14EqualsComparerINSt3__28equal_toIS3_EEEENSC_9allocatorINSC_4pairIKS4_S6_EEEEE13set_empty_keyERSI_
vtm:dynCall_iifiii
v4j:_HashSet_1__ctor_m620629637_gshared
KDa:__Z21HasAlphaTextureFormat13TextureFormat
O_:__ZN12AudioManager6UpdateEv
FDa:__ZN14ImageReference9BlitImageERKS_NS_8BlitModeE
_Xg:_Func_1_Invoke_m3093923125_gshared
Ex:__ZN8Animator12AddToManagerEv
lmg:_MissingFieldException__ctor_m3742452630
Nqh:_X509Chain__ctor_m2674663382
KDj:_ArrayReadOnlyList_1_get_Count_m3450004702_gshared
mRc:__ZNK5physx2Gu16SupportLocalImplINS0_11ConvexHullVEE9doSupportERKNS_6shdfnd3aos5Vec3VERNS5_6FloatVESA_
TPb:__ZN23CachedSerializationDataD2Ev
Pfb:__ZNK25CameraStackRenderingState31CalculateStereoCameraTargetTypeEv
hOc:__ZNK5physx3Cct13BoxController8getActorEv
Xwb:__ZN14RenderSettings23VirtualRedirectTransferER14SafeBinaryRead
SNj:_InternalEnumerator_1_get_Current_m114240259_gshared
Pgm:_StateMachineBehaviour_OnStateMove_m645482327
RWk:__ZN6il2cpp2os10ThreadImpl15CurrentThreadIdEv
pmj:_Bounds_set_size_m1025767497
A$f:_Array_InternalArray__Insert_TisVector2_t2156229523_m2148694950_gshared
qBf:_Queue_CopyTo_m737385843
jub:__ZN17GlobalGameManager8TransferI17RemapPPtrTransferEEvRT_
Jam:__ZL73FieldWithTarget_t3058750293_CustomAttributesCacheGenerator_m_StaticStringP21CustomAttributesCache
C9d:__ZN5physx6shdfnd8internal8HashBaseIPNS_2Gu12TriangleMeshES5_NS0_4HashIS5_EENS1_11HashSetBaseIS5_S7_NS0_9AllocatorELb1EE6GetKeyES9_Lb1EE5eraseERKS5_
hZe:_SymmetricAlgorithm_get_Key_m3241860519
rnf:_U3CMouseDragOutsideRectU3Ec__Iterator1_Reset_m2233410497
Aeh:_ClientSessionInfo_get_HostName_m2118440995
Jwb:__ZN16LevelGameManager8TransferI18StreamedBinaryReadILb0EEEEvRT_
GLj:_InternalEnumerator_1_get_Current_m1909182215_gshared
DDe:_UNITY_tt_face_load_fpgm
EKb:__ZN12InputManagerD0Ev
vEg:_Queue_1_Peek_m1713833142_gshared
n5k:__ZN6il2cpp6icalls8mscorlib6System11Diagnostics10StackTrace9get_traceEP15Il2CppExceptionib
$yi:_ExecutionContext_Capture_m681135907
cLh:_Dictionary_2_System_Collections_IDictionary_Add_m4011968134_gshared
fhd:__ZN5physx2Sc9RigidCore20removeShapeFromSceneERNS0_9ShapeCoreEb
T0b:__Z18Transfer_BlittableI18StreamedBinaryReadILb0EELb1EtEvRK29SerializationCommandArgumentsR31RuntimeSerializationCommandInfo
HGj:_InternalEnumerator_1_System_Collections_IEnumerator_get_Current_m2889979481_AdjustorThunk
iqm:_posix_memalign
Ygc:__ZN13ProduceHelperI12MeshRendererLb0EE7ProduceE18MemLabelIdentifier18ObjectCreationMode
gce:__ZN5physx11RTreeCooker18buildFromTrianglesERNS_2Gu5RTreeEPKNS_6PxVec3EjPKtPKjjRNS_6shdfnd5ArrayIjNSB_19ReflectionAllocatorIjEEEEPNS0_13RemapCallbackEfNS_17PxMeshCookingHint4EnumE
qbd:__ZN5physx6shdfnd5ArrayIPvNS0_15InlineAllocatorILj256ENS0_19ReflectionAllocatorINS_14NpArticulationEEEEEE15growAndPushBackERKS2_
z5j:_AesManaged_GenerateKey_m2004209814
iAj:_Slider_get_direction_m3871593184
C0g:_ASN1_GetBytes_m3305539297
qGj:_InternalEnumerator_1_MoveNext_m1543390728_AdjustorThunk
PDl:__ZL77Convert_t2465617642_CustomAttributesCacheGenerator_Convert_ToSByte_m717245755P21CustomAttributesCache
HQj:_DefaultComparer__ctor_m2039558311_gshared
T8j:_Component_GetComponentInChildren_TisRuntimeObject_m3600364750_gshared
ada:__ZNK15MonoScriptCache7ReleaseEv
jok:__ZN6il2cpp2vm5Class13HasReferencesEP11Il2CppClass
n_d:__ZN5physx9PxTaskMgrC2EPNS_15PxCpuDispatcherEPNS_15PxGpuDispatcherEPNS_15PxSpuDispatcherE
Ivf:_CLSCompliantAttribute__ctor_m581760440
Mg:_glBindTexture
yom:_snprintf
Veg:_InvalidCastException__ctor_m2551002860
zZf:_Array_InternalArray__ICollection_CopyTo_TisKeyValuePair_2_t2401056908_m4025041902_gshared
qzm:_emscripten_glVertexAttrib1fv__wrapper
efc:__ZN13ProduceHelperI30RuntimeInitializeOnLoadManagerLb0EE7ProduceE18MemLabelIdentifier18ObjectCreationMode
RAa:__Z36scripting_liveness_calculation_begin17ScriptingClassPtriPFvPP12Il2CppObjectiPvES3_PFvvES7_
h9k:_Gradient__ctor_m3489855449
wVa:__ZN16UniformCacheGLES6CreateERK20GpuProgramParameters
aK:__ZN7mecanim12statemachine13StateConstant8TransferI24GenerateTypeTreeTransferEEvRT_
Qxm:_emscripten_glGetProgramInfoLog__wrapper
UM:__ZN25AnimatedPropertyEvaluator29BindCurveToScriptingObjectPtrERKN13AnimationClip10FloatCurveEj18ScriptingObjectPtrb
RAl:__ZL80AllowPartiallyTrustedCallersAttribute_t1828959166_CustomAttributesCacheGeneratorP21CustomAttributesCache
tUc:__ZN5physx2Gu17EPASupportMapPairD2Ev
t2l:__ZL52InputMode_t3382566315_CustomAttributesCacheGeneratorP21CustomAttributesCache
Wea:__ZN17PersistentManager23DestroyFromFileInternalEi
IQg:_ReadOnlyCollection_1_System_Collections_Generic_IListU3CTU3E_Insert_m1020890112_gshared
qff:_Dropdown_get_onValueChanged_m2462066659
yef:_DefaultControls_SetDefaultTextValues_m1943359795
q8a:__Z19SetupMotionMatricesR6CameraR18RPDataMotionVector
Qlk:__ZL7log2_64y
Amh:_TypeConverterAttribute_Equals_m1580461255
uH:__ZN26AnimatorControllerPlayable18PrepareForPlaybackERN7mecanim6memory9AllocatorE
xif:_GridLayoutGroup_get_cellSize_m2967185053
vQd:__ZN5physx19PxsMaterialCombiner24combineIsotropicFrictionERKNS_15PxsMaterialDataES3_
AYj:_PKCS12_Decrypt_m1280162536
QGj:_InternalEnumerator_1_get_Current_m3081223448_gshared
$sj:_BaseInvokableCall_AllowInvoke_m1250801794
nkl:_Physics_Raycast_m3501191919
Vxd:__ZN5physx22NpParticleBaseTemplateINS_16PxParticleSystemENS_16NpParticleSystemEE20lockParticleReadDataEv
aGg:_Collection_1_IndexOf_m3762683187_gshared
sua:__ZN22CreateGpuProgramOutputC2Ev
D8g:_BigInteger_op_LessThanOrEqual_m3925173639
dsf:_Boolean_System_IConvertible_ToChar_m4279513009_AdjustorThunk
jlh:_DictionaryNodeEnumerator__ctor_m1005316675
EOl:__ZL85Object_t631007953_CustomAttributesCacheGenerator_Object_FindObjectsOfType_m2898745631P21CustomAttributesCache
Vki:_LogicalCallContext__ctor_m1263247987
W7f:_NumberFormatter_ScaleOrder_m3813786990
Krg:_List_1_GetEnumerator_m239622569_gshared
q3l:__ZL60OptionData_t3270282352_CustomAttributesCacheGenerator_m_TextP21CustomAttributesCache
c9h:__Z43RuntimeInvoker_VerticalWrapMode_t2936607737PFvvEPK10MethodInfoPvPS4_
ubm:_RaycastHit_get_point_m177058539
pil:_Mesh_SetNormals_m404565226
zPh:__Z77RuntimeInvoker_Byte_t1134296376_RuntimeObject_Int32_t2950945753_RuntimeObjectPFvvEPK10MethodInfoPvPS4_
q3g:_PrivateKeyInfo_DecodeDSA_m771724585
sDl:__ZL81Convert_t2465617642_CustomAttributesCacheGenerator_Convert_ToDateTime_m1031474510P21CustomAttributesCache
oae:__ZN5physx7Cooking16cookTriangleMeshERKNS_18PxTriangleMeshDescERNS_14PxOutputStreamE
MLe:__Z38CustomEventData_CUSTOM_InternalDestroyP12Il2CppObject
t0l:__ZL53EventHandle_t600343995_CustomAttributesCacheGeneratorP21CustomAttributesCache
hme:__ZN14CompletionTask4InitEPN5physx7PxSceneE
Gxf:_SynchronizedArrayListWrapper_get_SyncRoot_m3862302789
C8c:__ZN5physx2Sc7ElementD0Ev
kFi:_UInt32_System_IConvertible_ToSByte_m1061556466
Nce:__ZN5physx6shdfnd10Foundation7releaseEv
fpi:_WellKnownClientTypeEntry__ctor_m2471908952
bd:invoke_vidi
Yog:_NumberFormatter_FormatRoundtrip_m19342689
Loi:_RemotingServices_CreateClientProxyForContextBound_m783705199
bai:__Z30RuntimeInvoker_Axis_t809944411PFvvEPK10MethodInfoPvPS4_
Iqf:_Array_slow_swapper_m4116724811
vjh:_InternalAsyncResult_get_ProceedAfterHandshake_m2508379800
oHe:__ZN2UI14CanvasRenderer17SyncDirtyElementsER8JobFence
P0b:__Z18Transfer_BlittableI18StreamedBinaryReadILb0EELb0ExEvRK29SerializationCommandArgumentsR31RuntimeSerializationCommandInfo
Ruf:_Convert_ToUInt16_m2952781888
qzh:_Enumerator_System_Collections_IEnumerator_get_Current_m3816090481_gshared
i_k:__ZN6il2cpp5utils11StringUtils15StringDuplicateEPKc
DTi:_Ext_IsToken_m1594326505
Ohb:__Z15CanAddComponentR10GameObjectPKN5Unity4TypeE
Lta:__ZNK9ShaderLab21ShaderRasterStateDesc16ToGfxRasterStateEPK19ShaderPropertySheetS3_R14GfxRasterState
G2f:_Array_Sort_TisVector3_t3722313464_m1915176437_gshared
l7k:__ZN6il2cpp2os9EventImplC2Ebb
qsg:_List_1_System_Collections_IList_get_IsFixedSize_m3566150119_gshared
XK:__ZN4PPtrI13MonoBehaviourE8TransferI19StreamedBinaryWriteILb0EEEEvRT_
Oxg:_List_1_get_Item_m2113769949_gshared
Duj:_MaskableGraphic_OnTransformParentChanged_m329502413
afc:__ZN13HandleManagerC2Ev
imh:_NameValueCollection__ctor_m4090053322
ifm:_ScriptableObject_t2528358522_marshal_pinvoke
Q7:__Z20IsMatrixBuiltinParamPKcPi
uqh:_SslStream_BeginWrite_m831482228
A_e:_String_memcpy4_m979367827
x0e:_SecurityFrame_t1422462475_marshal_pinvoke
DEk:__ZN15dense_hashtableINSt3__24pairIK10KeyWrapperINS1_IPK10MethodInfoP11Il2CppClassEEEjEES9_17ReflectionMapHashIS8_EN14dense_hash_mapIS9_jSD_NS9_14EqualsComparerINS0_8equal_toIS8_EEEENS0_9allocatorISB_EEE9SelectKeyESI_SK_E16reset_thresholdsEv
cxi:_UnicodeEncoding_GetBytesInternal_m1902824297
pgc:__ZN8Renderer19PostInitializeClassEv
qWf:_Array_FindIndex_TisRuntimeObject_m2504082708_gshared
y_j:_X509Chain_FindCertificateRoot_m1937726457
FIj:_InternalEnumerator_1__ctor_m217498388_AdjustorThunk
B3k:__ZN6il2cpp6icalls8mscorlib6System8Delegate23CreateDelegate_internalEP20Il2CppReflectionTypeP12Il2CppObjectP22Il2CppReflectionMethodb
pAh:_Enumerator_System_Collections_IEnumerator_get_Current_m921113401_AdjustorThunk
vzf:_DictionaryEntry_get_Value_m618120527_AdjustorThunk
hPb:__ZN18DelayedCallManager18CancelCallDelayed2E4PPtrI6ObjectEPF15CallObjectStatePS1_PvES7_
iMh:_Dictionary_2_InitArrays_m2036227893_gshared
Gob:__ZN25ThreadsafeLinearAllocator10ReallocateEPvji
GRb:__Z18Transfer_BlittableI14SafeBinaryReadLb1E11QuaternionfEvRK29SerializationCommandArgumentsR31RuntimeSerializationCommandInfo
Med:__ZNK5physx18PxArticulationLink8isKindOfEPKc
Jla:__ZN18SpriteAtlasManagerD0Ev
Q3j:_GenericEqualityComparer_1__ctor_m1058369027_gshared
ECj:_ToggleGroup_set_allowSwitchOff_m4192200290
Cme:__Z25CreatePxMeshFromUnityMeshP4MeshbbRK10Matrix4x4f13TransformTypef
Kci:__Z57RuntimeInvoker_Boolean_t97287965_KeyValuePair_2_t71524366PFvvEPK10MethodInfoPvPS4_
SFb:__ZN10Matrix4x4f8TransferI14SafeBinaryReadEEvRT_
mn:FUNCTION_TABLE_vifiiiiiiiiiiiiiiiiii
At:__ZN15SerializeTraitsI13dynamic_arrayIN11UnityEngine9Animation14GenericBindingELj4EEE19ResizeSTLStyleArrayERS4_i18MemLabelIdentifier
Kti:_CryptographicUnexpectedOperationException__ctor_m2381988196
KHk:__ZN14dense_hash_mapI10KeyWrapperIPK22Il2CppGenericParameterEPK24MonoGenericParameterInfoN6il2cpp5utils11PointerHashIS2_EENS4_14EqualsComparerINSt3__28equal_toIS3_EEEENSD_9allocatorINSD_4pairIKS4_S7_EEEEE15set_deleted_keyERSJ_
DJj:_InternalEnumerator_1_System_Collections_IEnumerator_get_Current_m4213507601_gshared
nfa:__Z6AppendRKN4core12basic_stringIcNS_20StringStorageDefaultIcEEEEPKc
BFf:_Convert_ToDouble_m996590115
QAa:__ZL14OnWorldStoppedv
NUf:_Array_InternalArray__IEnumerable_GetEnumerator_TisCustomAttributeNamedArgument_t287865710_m523021714_gshared
zOg:__ZN21InterfaceFuncInvoker1I19Vector4_t3319028937iE6InvokeEjP11Il2CppClassP12Il2CppObjecti
d_b:__Z18Transfer_BlittableI18StreamedBinaryReadILb1EELb0E8Vector3fEvRK29SerializationCommandArgumentsR31RuntimeSerializationCommandInfo
msj:_Event_Cleanup_m1044305745
_ei:__Z60RuntimeInvoker_Void_t1185182177_AnimatorClipInfo_t3156717155PFvvEPK10MethodInfoPvPS4_
HAf:_HashKeys_get_SyncRoot_m3757723936
Bff:_Dropdown_AddOptions_m3385413238
tsc:__Z37Camera_Get_Custom_PropAllCamerasCountv
jFb:__ZN14Texture2DArray8TransferI18StreamedBinaryReadILb0EEEEvRT_
lBg:_List_1_CopyTo_m2746988508_gshared
gid:__ZN5physx15NpActorTemplateINS_18PxArticulationLinkEED2Ev
Lcb:__Z18ApplyOcclusionMaskR19ProbeOcclusionCacheRK17LightProbeContextRK10RenderNodeb
eye:_Split_Cubic
rb:invoke_fiiii
cem:_ReapplyDrivenProperties_BeginInvoke_m1645183702
Xmf:_InputField_OnSubmit_m3583210804
UBh:_ShimEnumerator_get_Value_m1878724567_gshared
sXl:__ZL72GUISkin_t1244372282_CustomAttributesCacheGenerator_m_horizontalScrollbarP21CustomAttributesCache
v2l:__ZL79TouchInputModule_t4248229598_CustomAttributesCacheGenerator_m_ForceModuleActiveP21CustomAttributesCache
M9k:_GUI_HandleTextFieldEventForTouchscreen_m513356245
jme:__Z19ExtractDataFromMeshR4MeshR13dynamic_arrayI8Vector3fLj4EERS1_ItLj2EES6_
Ftm:dynCall_viiiiiiffii
iRi:_Uri_CheckHostName_m2213216182
h6k:__ZN6il2cpp2vm14MetadataLoader16LoadMetadataFileEPKc
nzm:_emscripten_glBindRenderbuffer__wrapper
$th:_SocketAsyncResult_t2080034863_marshal_pinvoke
K9g:_HMAC_set_Key_m3535779141
yjd:__ZN5physx2Sc16ArticulationCore26setMaxProjectionIterationsEj
oYc:__ZN26IntersectAnyVsMeshCallbackILi1ELb0EED2Ev
hFc:__Z64Register_UnityEngine_GUIStyle_GetFontInternalDuringLoadingThreadv
GNj:_InternalEnumerator_1_System_Collections_IEnumerator_Reset_m729791527_AdjustorThunk
Kwf:_ArrayListWrapper_Contains_m2641184447
Sxe:_ft_black_render
v5f:_Array_InternalArray__get_Item_TisResourceInfo_t2872965302_m3865610257_gshared
$um:dynCall_viiifi
nSa:__ZN18GfxFramebufferGLES20ActiveContextChangedEPP17RenderSurfaceBaseS2_
Uvf:_ArrayList_get_IsFixedSize_m24366329
zoh:_FileWebRequest_System_Runtime_Serialization_ISerializable_GetObjectData_m1504466482
jSa:__Z19PluginsRenderMarkeri
RPj:_InternalEnumerator_1__ctor_m2307827786_AdjustorThunk
HN:__ZN10HumanTrait18InitializeBoneNameEv
dWe:_RijndaelManaged_GenerateKey_m1736287430
DQi:__ZN23InterfaceActionInvoker1ItE6InvokeEjP11Il2CppClassP12Il2CppObjectt
PEb:__ZN14Texture2DArray21AwakeFromLoadThreadedEv
P1b:__Z29Transfer_Blittable_ArrayFieldI18StreamedBinaryReadILb0EEyEvRT_R9ArrayInfoRK23StaticTransferFieldInfo
QLj:_InternalEnumerator_1_get_Current_m1698047500_gshared
xRk:__ZNSt3__214__split_bufferIN6il2cpp2vm5Image20EmbeddedResourceDataERNS_9allocatorIS4_EEEC2EjjS7_
zrd:__ZNK5physx7NpCloth25getNbSelfCollisionIndicesEv
PTi:_Ext_Upgrades_m3959282879
r$g:_Kernel_multiByteDivide_m4249920547
zT:__ZN12AudioManager17RemoveAudioSourceEP11AudioSource
oN:__ZN6Avatar15InitializeClassEv
Urj:_Display_RelativeMouseAtImpl_m375710204
hsh:_X509Certificate2Collection_Add_m3151757943
xql:__ZL83RuntimeArray_CustomAttributesCacheGenerator_RuntimeArray____LongLength_PropertyInfoP21CustomAttributesCache
xxh:_Comparer_1__cctor_m951016718_gshared
sUl:__ZL136AnimatorControllerPlayable_t1015767841_CustomAttributesCacheGenerator_AnimatorControllerPlayable_INTERNAL_CALL_SetBoolString_m3514398973P21CustomAttributesCache
Eyf:_CaseInsensitiveHashCodeProvider_get_DefaultInvariant_m4264275163
O7d:__ZNK5physx2Gu10ConvexMesh17getReferenceCountEv
wJk:__ZN15dense_hashtableINSt3__24pairIK10KeyWrapperINS1_IP11Il2CppClassjEEES4_EES6_N6il2cpp8metadata14ArrayClassHashEN14dense_hash_mapIS6_S4_SB_NS6_14EqualsComparerINSA_17ArrayClassCompareEEENS0_9allocatorIS8_EEE9SelectKeyESF_SH_E4swapERSK_
EXh:__Z195RuntimeInvoker_Int32_t2950945753_RuntimeObject_Int32_t2950945753_Int32_t2950945753_Int32_t2950945753_RuntimeObject_DecoderFallbackBufferU26_t3866396827_ByteU5BU5DU26_t4057885439_SByte_t1669577662PFvvEPK10MethodInfoPvPS4_
PHd:__ZN5physx2Sc5Scene22setNbContactDataBlocksEj
qdc:__ZN13ProduceHelperI14SpriteRendererLb0EE7ProduceE18MemLabelIdentifier18ObjectCreationMode
D0:__ZN5physx14PxLightCpuTask12addReferenceEv
sdi:__Z86RuntimeInvoker_Int32_t2950945753_Color32_t2600501292_Color32_t2600501292_RuntimeObjectPFvvEPK10MethodInfoPvPS4_
pBb:__ZN21EnlightenSceneMapping8TransferI19StreamedBinaryWriteILb0EEEEvRT_
JTk:__ZN6il2cpp2gc16GarbageCollector19InitializeFinalizerEv
QRg:_ReadOnlyCollection_1_System_Collections_Generic_IListU3CTU3E_RemoveAt_m8081639_gshared
XC:__ZN7mecanim8skeleton18CreateSkeletonMaskEjPKNS0_19SkeletonMaskElementERNS_6memory9AllocatorE
NVg:_ReadOnlyCollection_1_System_Collections_Generic_ICollectionU3CTU3E_get_IsReadOnly_m2508509261_gshared
jBc:__ZN10GUIManager10DoGUIEventER10InputEventb
FWb:__Z35Transfer_Blittable_FixedBufferFieldI24GenerateTypeTreeTransferxEvRK29SerializationCommandArgumentsR31RuntimeSerializationCommandInfo
S$f:_Array_InternalArray__set_Item_TisLink_t544317964_m1234244240_gshared
R8:__Z20CalculateSqrDistanceRK8Vector3fRK4AABB
wff:_OptionData_get_text_m2997376818
$me:__ZN14PhysicsManager15ProcessContactsEv
Dri:_SerializationInfo_GetBoolean_m1756153320
SVc:__ZN21BoxTraceSegmentReport7onEventEjPj
wTj:_GCHandle_op_Explicit_m127498741
ted:__ZN5physx2Sc21ArticulationJointCore13setSwingLimitEff
pX:__Z32AudioMixerDuckingProcessCallbackP21UnityAudioEffectStatePfS1_jii
DRc:__ZL20HullProjectionCB_BoxRKN5physx2Gu13PolygonalDataERKNS_6PxVec3ERKNS_2Cm8Matrix34ERKNS7_23FastVertex2ShapeScalingERfSE_
zQg:_ReadOnlyCollection_1_Contains_m2979956790_gshared
sfc:__ZN26CustomRenderTextureManagerD2Ev
I0j:_EqualityComparer_1_System_Collections_IEqualityComparer_Equals_m4172006498_gshared
nWd:__ZN5physx14PxsAABBManager21selfCollideAggregatesEPKNS_19AggregateSortedDataE
fU:__ZN12AudioManager8TransferI24GenerateTypeTreeTransferEEvRT_
txa:__Z25GetBytesFromTextureFormat13TextureFormat
CDa:__ZN9Texture3D19UnloadFromGfxDeviceEb
v2d:__ZN5physx12_GLOBAL__N_112innerProductERKNS_14Px1DConstraintERS1_RKNS0_9MassPropsE
WUb:__Z18Transfer_BlittableI17RemapPPtrTransferLb0EsEvRK29SerializationCommandArgumentsR31RuntimeSerializationCommandInfo
UGg:_Collection_1_get_Item_m4103760396_gshared
amh:__KeysEnumerator_get_Current_m2996478063
M_i:_AmbiguousMatchException__ctor_m2012725345
utm:dynCall_iifff
uj:_emscripten_webgl_init_context_attributes
_t:__Z14resize_trimmedINSt3__26vectorIN13AnimationClip9PPtrCurveE13stl_allocatorIS3_L18MemLabelIdentifier25ELi16EEEEEvRT_j
NM:__ZN16MecanimAnimation25RegisterIAnimationBindingEPKN5Unity4TypeEiP17IAnimationBinding
Yca:__Z32scripting_class_get_assemblyname17ScriptingClassPtr
bNe:__ZN11UnityEngine15PlatformWrapper15GetVRDeviceNameEv
_7l:__ZL109LayoutUtility_t2745813735_CustomAttributesCacheGenerator_LayoutUtility_U3CGetFlexibleWidthU3Em__3_m1091238571P21CustomAttributesCache
N8h:__Z99RuntimeInvoker_Boolean_t97287965_Int32_t2950945753_PointerEventDataU26_t867828220_SByte_t1669577662PFvvEPK10MethodInfoPvPS4_
BSd:__ZN5physx26PxcFrictionPatchStreamPairC2ERNS_17PxcNpMemBlockPoolE
jIj:_InternalEnumerator_1_get_Current_m2128158355_AdjustorThunk
EWa:__ZN9GfxDevice21RegisterNativeTextureE9TextureIDi16TextureDimension
mhf:_GraphicRegistry__ctor_m1851575309
kGl:__ZL53TypeFilter_t2356120900_CustomAttributesCacheGeneratorP21CustomAttributesCache
C4k:__ZN6il2cpp6icalls8mscorlib6System10Reflection4Emit11TypeBuilder20create_generic_classEP27Il2CppReflectionTypeBuilder
YXe:_SHA1Internal_FillBuff_m3615718415
eCl:__ZL50Monitor_t2197244473_CustomAttributesCacheGeneratorP21CustomAttributesCache
Kxk:__ZNSt3__26vectorIPK10MethodInfoNS_9allocatorIS3_EEE26__swap_out_circular_bufferERNS_14__split_bufferIS3_RS5_EE
sVk:__ZN6il2cpp2os10SocketImpl6CreateENS0_13AddressFamilyENS0_10SocketTypeENS0_12ProtocolTypeE
Q8g:_PrimalityTest_EndInvoke_m1035389364
gZl:__ZL95GUIUtility_t1868551600_CustomAttributesCacheGenerator_GUIUtility_set_textFieldInput_m3210268170P21CustomAttributesCache
Bj:_emscripten_glUniformMatrix4fv
NJk:__ZN15dense_hashtableINSt3__24pairIK10KeyWrapperINS1_IP11Il2CppClassjEEES4_EES6_N6il2cpp8metadata14ArrayClassHashEN14dense_hash_mapIS6_S4_SB_NS6_14EqualsComparerINSA_17ArrayClassCompareEEENS0_9allocatorIS8_EEE9SelectKeyESF_SH_E13set_empty_keyERKS8_
_7b:__ZN12ScriptMapperD2Ev
DEh:_Enumerator_Dispose_m3040896940_AdjustorThunk
Jge:__ZN9Rigidbody13AwakeFromLoadE17AwakeFromLoadMode
ysi:_SByte_System_IConvertible_ToDateTime_m1659899958
U0k:_GC_stopped_mark
XWl:__ZL58FocusType_t718022695_CustomAttributesCacheGenerator_NativeP21CustomAttributesCache
_jd:__ZNK5physx14NpSceneQueries10multiQueryINS_12PxOverlapHitEEEbRKNS_15MultiQueryInputERNS_13PxHitCallbackIT_EENS_7PxFlagsINS_9PxHitFlag4EnumEtEEPKNS_12PxQueryCacheERKNS_17PxQueryFilterDataEPNS_21PxQueryFilterCallbackEPNS_20BatchQueryFilterDataE
Yji:__Z50RuntimeInvoker_RuntimeObject_ColorTween_t809614380PFvvEPK10MethodInfoPvPS4_
Nmf:_InputField_OnFillVBO_m3649106646
gri:_SerializationCallbacks__cctor_m1674315180
kme:__ZL21GetMeshLocationDetailR4Mesh
_ai:__Z98RuntimeInvoker_Boolean_t97287965_Byte_t1134296376_Byte_t1134296376_RuntimeObject_SByte_t1669577662PFvvEPK10MethodInfoPvPS4_
c5b:__Z32TransferEnumWithNameForceIntSizeI14SafeBinaryRead7FogModeEvRT_RT0_PKc17TransferMetaFlags
Pyc:__Z52Register_UnityEngine_RenderTexture_Internal_GetWidthv
O1k:_GC_check_leaked
G6b:__ZN9ShaderLab20SerializedSubProgram16TextureParameter8TransferI19StreamedBinaryWriteILb0EEEEvRT_
Mb:invoke_fiiiiiiiifiiiif
$pb:__ZNK7Hash12812PackToUInt32Ev
kRl:__ZL91Collider_t1773347010_CustomAttributesCacheGenerator_Collider_get_sharedMaterial_m4085386697P21CustomAttributesCache
Mxf:_SynchronizedArrayListWrapper_IndexOf_m3642674350
Fea:__ZNSt3__227__insertion_sort_incompleteIRNS_6__lessI14ObjectLoadDataS2_EEPS2_EEbT0_S6_T_
W4:__ZN11UnityEngine15CloudWebService16SessionContainer8AddEventEPNS0_14CloudEventInfoE
yVa:__Z4TrimRKN4core12basic_stringIcNS_20StringStorageDefaultIcEEEES5_
oTg:_ReadOnlyCollection_1_CopyTo_m209634623_gshared
L3f:_Dictionary_2_Do_ICollectionCopyTo_TisKeyValuePair_2_t3842366416_m1399105608_gshared
I0l:__ZL77ExecuteEvents_t3484638744_CustomAttributesCacheGenerator_U3CU3Ef__mgU24cache2P21CustomAttributesCache
pwh:_X509Certificate2_Import_m4026562329
EAm:_glGetStringi__wrapper
IDb:__ZN10VertexData8TransferI14SafeBinaryReadEEvRT_
Add:__ZN5physx19NpArticulationJointD0Ev
sV:__ZN4FMOD8ChannelI8setDelayE14FMOD_DELAYTYPEjj
I2k:_GC_malloc_atomic
Kke:__ZN5physx9NpPhysics14createInstanceEjRNS_12PxFoundationERKNS_17PxTolerancesScaleEbPNS_20PxProfileZoneManagerE
Voe:__Z59Register_UnityEngine_Physics_INTERNAL_CALL_Internal_Raycastv
Q4j:_HashSet_1_GetEnumerator_m3346268098_gshared
i5k:__ZN6il2cpp5utils6Memory13AlignedMallocEjj
pGd:__ZNK5physx7NpScene17getFilterCallbackEv
Czj:_Selectable_get_animator_m2899312855
aba:__ZL20SortItemByInstanceIDRKN18AwakeFromLoadQueue4ItemES2_
Lbj:_CustomEventData_Add_m1907944267
qke:__ZN5physx6shdfnd5ArrayIPvNS0_15InlineAllocatorILj256ENS0_19ReflectionAllocatorINS_24NpPtrTableStorageManager8PtrBlockILi16EEEEEEEE15growAndPushBackERKS2_
Cgf:_FontData_get_maxSize_m195374730
xmh:_TypeConverterAttribute__ctor_m1774069684
l4h:__Z65RuntimeInvoker_AudioMixerPlayable_t3520548497_Playable_t459825607PFvvEPK10MethodInfoPvPS4_
pD:__ZNK34AnimationStateMachineMixerPlayable26GetInterruptedPosePlayableEv
YPe:__ZN20UnityConnectSettings8TransferI24GenerateTypeTreeTransferEEvRT_
IF:__ZN34BlobWriteTransferSTLStyleArrayImplI22OffsetPtrArrayTransferIbEEclERS1_17TransferMetaFlagsR9BlobWrite
huf:_Byte_ToString_m4063101981
oel:_GUIStyle_Internal_DrawWithTextSelection_m4095233580
vng:_MonoType_GetConstructors_m2574682189
uod:__ZN5physx7NpShape13setRestOffsetEf
WYk:__ZNK15dense_hashtableINSt3__24pairIK10KeyWrapperIPK19Il2CppGenericMethodEP10MethodInfoEES6_N6il2cpp8metadata23Il2CppGenericMethodHashEN14dense_hash_mapIS6_S9_SD_NS6_14EqualsComparerINSC_26Il2CppGenericMethodCompareEEENS0_9allocatorISA_EEE9SelectKeyESH_SJ_E10test_emptyERK30dense_hashtable_const_iteratorISA_S6_SD_SL_SH_SJ_E
r$a:__Z16FlaggedAsSkippedIN4core12basic_stringIcNS0_20StringStorageDefaultIcEEEEEbRK13FileEntryInfoRKT_19FileEnumerationFlag
Xoh:_ServicePointManager_FindServicePoint_m4119451290
fha:__ZL31InitializeRendererUpdateManagerPv
r1i:_ParameterInfo__ctor_m2779026345
hlf:_InputField_set_onValueChange_m1251390545
aYg:_Func_1_EndInvoke_m3591709415_gshared
Mgf:_FontData_get_verticalOverflow_m4132840071
Wod:__ZN5physxL11getTriangleERKNS_2Gu12TriangleMeshEjPNS_6PxVec3EPKS4_PKvRKNS_2Cm8Matrix34Eb
F4g:_DeriveBytes_set_Password_m3005258189
Qog:_NumberFormatter_get_IsZeroInteger_m2263284741
z_:__ZN13AudioListener12CleanupClassEv
UBc:__ZN8GUIState12GetControlIDEi9FocusTypeRK5RectTIfE
xha:__Z13GetIEnlightenv
aqd:__ZNK5physx7NpCloth16lockParticleDataEv
Ffm:_HitInfo_t3229609740_marshal_pinvoke
LYj:_X509Certificate_PEM_m2020851166
Ysi:_SByte_Equals_m865896384_AdjustorThunk
b0g:_BigInteger_op_GreaterThanOrEqual_m700865613
N_f:_Array_InternalArray__Insert_TisDateTime_t3738529785_m2308632330_gshared
Zem:_Scene_GetHashCode_m42646907_AdjustorThunk
$We:_RNGCryptoServiceProvider_RngGetBytes_m1695806698
Mgh:_TlsServerCertificateRequest_ProcessAsTls1_m3214041063
dze:_compare_uni_maps
xEe:__ZL34RegisterModuleICalls_TextRenderingv
Q5h:__Z72RuntimeInvoker_Boolean_t97287965_Vector2_t2156229523_Vector2_t2156229523PFvvEPK10MethodInfoPvPS4_
ONe:__ZN11UnityEngine15PlatformWrapper27GetGraphicsCapsSupportFlagsEv
GFe:__ZNSt3__218__insertion_sort_3IRPFbPN2UI6CanvasES3_EPS3_EEvT0_S8_T_
CVa:__ZN18GlslGpuProgramGLES25LoadFromBinaryShaderCacheERKN4core12basic_stringIcNS0_20StringStorageDefaultIcEEEER17ShaderChannelMaskPKc
ALd:__ZN5physx13NpRigidStatic9visualizeERNS_2Cm12RenderOutputEPNS_7NpSceneE
OZb:__ZN12NativeBufferI16Converter_StringE15SetupForWritingER9ArrayInfo
h0g:_SequentialSearchPrimeGeneratorBase_GenerateSearchBase_m3595783982
THb:__ZThn32_N19SkinnedMeshRendererD1Ev
fCm:___cxa_end_catch__wrapper
R0h:__Z121RuntimeInvoker_Int32_t2950945753_RuntimeObject_Int32U26_t1369213839_Int32_t2950945753_Int32_t2950945753_Int32_t2950945753PFvvEPK10MethodInfoPvPS4_
Uj:_emscripten_glVertexAttrib3fv
ihm:_TextEditor_OnLostFocus_m3143071445
xyd:__ZNK5physx22NpParticleBaseTemplateINS_16PxParticleSystemENS_16NpParticleSystemEE13getRestOffsetEv
WNd:__ZN5physx6shdfnd8PoolBaseINS_2Sc35ParticleElementRbElementInteractionENS0_19ReflectionAllocatorIS3_EEE15disposeElementsEv
yvf:_Char_ToString_m278452217
_bh:_CipherSuite_get_DecryptionCipher_m2839827488
WPg:_ReadOnlyCollection_1_System_Collections_IList_set_Item_m4047645019_gshared
r9l:__ZL71Ext_t2749166018_CustomAttributesCacheGenerator_Ext_Contains_m2540761301P21CustomAttributesCache
y8g:_BigInteger_op_RightShift_m460065452
whb:__ZN13MonoBehaviour22DoScriptRebuildWarningEv
vsc:__Z38Camera_CUSTOM_INTERNAL_CALL_RaycastTryP12Il2CppObjectRK3Rayfi
wZl:__ZL92CustomEventData_t317522481_CustomAttributesCacheGenerator_CustomEventData_AddInt32_m43822415P21CustomAttributesCache
X7j:_ListPool_1_U3Cs_ListPoolU3Em__0_m2790550420_gshared
Whc:__ZZL23RegisterLightPropertiesR22GenericPropertyBindingEN22Wrapper_LightSpotAngle13GetFloatValueEPv
jhj:_AnimatorControllerPlayable_GetNextAnimatorClipInfo_m166731102_AdjustorThunk
LEe:__Z38TextGenerator_Get_Custom_PropLineCountP12Il2CppObject
XVc:__ZN5physx2Gu26EPASupportMapPairLocalImplINS0_9TriangleVENS0_4BoxVEED0Ev
Wjh:_InternalAsyncResult_SetComplete_m963842420
wvi:_Encoding_GetEncoding_m2801244948
tCc:__ZN11IMGUIModule25GetGUIStyleScriptingClassEv
bCe:_tt_get_interface
NMk:__ZN6il2cpp5utils9PathUtils7CombineIcEENSt3__212basic_stringIT_NS3_11char_traitsIS5_EENS3_9allocatorIS5_EEEERKSA_SC_
xWd:__ZN5physx14PxsAABBManager16processBPResultsERKNS_20PxsComputeAABBParamsE
kUf:_Ext_Contains_TisRuntimeObject_m1985353838_gshared
HJc:__ZN9JSONWrite8TransferI13dynamic_arrayIiLj4EEEEvRT_PKc17TransferMetaFlags
EUd:__ZN5physx23PxsBroadPhaseContextSapD2Ev
TKg:_Collection_1_System_Collections_IList_get_IsFixedSize_m214626114_gshared
b_h:__Z64RuntimeInvoker_RuntimeObject_SByte_t1669577662_SByte_t1669577662PFvvEPK10MethodInfoPvPS4_
bkc:__ZN13PlayableGraph21InvalidateMultithreadEv
mVi:_WebSocketException__ctor_m4202155420
nce:__ZN5physx12SubSortQuickC2EPjPKNS_10PxBounds3VEjf
JBl:__ZL86UTF7Encoding_t2644108479_CustomAttributesCacheGenerator_UTF7Encoding_Equals_m227704363P21CustomAttributesCache
l3j:_GenericComparer_1_Compare_m459680062_gshared
W2i:_EnumBuilder_GetConstructorImpl_m3068576149
gaa:__Z18ConvertUTF16toUTF8PPKtS0_PPhS2_15ConversionFlags
pYk:__ZN6il2cpp2os20PathErrnoToErrorCodeERKNSt3__212basic_stringIcNS1_11char_traitsIcEENS1_9allocatorIcEEEEi
t4l:__ZL68InputField_t3762917431_CustomAttributesCacheGenerator_m_KeyboardTypeP21CustomAttributesCache
$Ye:_SymmetricAlgorithm_System_IDisposable_Dispose_m3402297829
Dlk:__ZL16my_g_bit_nth_msfj
EFl:__ZL65NonSerializedAttribute_t2945079482_CustomAttributesCacheGeneratorP21CustomAttributesCache
gIb:__Z20DeformSkinnedMeshJobP12SkinMeshInfo
aKk:__ZN15dense_hashtableINSt3__24pairIK10KeyWrapperIP11Il2CppClassES4_EES5_N6il2cpp8metadata16SZArrayClassHashEN14dense_hash_mapIS5_S4_SA_NS5_14EqualsComparerINS9_19SZArrayClassCompareEEENS0_9allocatorIS7_EEE9SelectKeyESE_SG_E12expand_arrayEjN21dense_hash_map_traits17integral_constantIbLb0EEE
MNh:_DefaultComparer_GetHashCode_m3369508712_gshared
MDg:_Enumerator_MoveNext_m3662315381_AdjustorThunk
igh:_TlsClientFinished_ProcessAsTls1_m2429863130
aUj:_ActivatedClientTypeEntry_get_ApplicationUrl_m2894992111
iDj:_Action_2_BeginInvoke_m3374412194_gshared
A5a:__Z23SetupStereoFlareElementP11FlareVertexRK8Vector2fS3_S3_RK11ColorRGBA32RK10Matrix4x4fRK8Vector3fb
wbj:_CustomEventData_Add_m3038150000
y2i:_DerivedType_GetCustomAttributes_m851300494
wok:__ZN6il2cpp2vm5Class15GetInstanceSizeEPK11Il2CppClass
ab:invoke_iiiifiiii
nlf:_InputField_EnforceContentType_m2436948794
SMc:__ZN9rapidjson8internal6u64toaEyPc
Asd:__ZNK5physx2Sc9ClothCore16getRestPositionsEPNS_6PxVec4E
eLg:__ZN23InterfaceActionInvoker2Ii20UICharInfo_t75501106E6InvokeEjP11Il2CppClassP12Il2CppObjectiS0_
lRd:__ZN5physx20PxcSweepConvexConvexERKNS_11PxsCCDShapeES2_PKNS_12PxsRigidBodyES5_RKNS_11PxTransformES8_S8_S8_fRNS_6PxVec3ESA_RNS_10PxcNpCacheERNS_18PxcNpThreadContextEf
MP:__Z64AnimationOffsetPlayable_CUSTOM_INTERNAL_CALL_GetRotationInternalR9HPlayableR11Quaternionf
REa:__ZN8Renderer29GetTransformInfoAndUpdateSlowEv
Hvd:__ZN5physx15PxsParticleDataD0Ev
RSa:__ZL19BlitFramebufferImplRN4gles23BlitFramebufferDrawQuadER9GfxDevice9TextureIDRK8Vector4f
EUb:__Z18Transfer_BlittableI17RemapPPtrTransferLb0EhEvRK29SerializationCommandArgumentsR31RuntimeSerializationCommandInfo
eae:__ZN5physx6shdfnd5ArrayIPvNS0_19ReflectionAllocatorIN17PxcPoolMallocData9PoolData8EEEE15growAndPushBackERKS2_
IDk:__ZN15dense_hashtableINSt3__24pairIK10KeyWrapperIPK10Il2CppTypeEjEES6_N6il2cpp8metadata14Il2CppTypeHashEN14dense_hash_mapIS6_jSB_NS6_14EqualsComparerINSA_26Il2CppTypeEqualityComparerEEENS0_9allocatorIS8_EEE9SelectKeyESF_SH_E4findERS7_
Bfj:_AnimatorControllerPlayable_GetIntegerString_m2864965116
rtm:dynCall_viiiiiiiiiiiiii
mse:_UNITY_FT_List_Add
XP:__Z87Register_UnityEngine_Animations_AnimationPlayableOutput_INTERNAL_CALL_InternalGetTargetv
wBl:__ZL104Encoding_t1523322056_CustomAttributesCacheGenerator_Encoding_t1523322056____DecoderFallback_PropertyInfoP21CustomAttributesCache
gee:__ZN5physx15PxGeometryQuery14getWorldBoundsERKNS_10PxGeometryERKNS_11PxTransformEf
wyb:__ZN12CubemapArray21AwakeFromLoadThreadedEv
Ptd:__ZN5physx2Sc9ClothCore18setSolverFrequencyEf
Efg:_Directory_CreateDirectoriesInternal_m3735342319
F2l:__ZL108U3CStartU3Ec__Iterator0_t1249263001_CustomAttributesCacheGenerator_U3CStartU3Ec__Iterator0__ctor_m1316384627P21CustomAttributesCache
Rrg:_List_1_RemoveAll_m517055598_gshared
XJl:__ZL82Camera_t4157153871_CustomAttributesCacheGenerator_Camera_get_clearFlags_m869917516P21CustomAttributesCache
Atj:_LayoutUtility_GetLayoutProperty_m3731360667
Nfj:_AnimatorControllerPlayable_SetIntegerID_m690544869
zIk:__ZN15dense_hashtableINSt3__24pairIK10KeyWrapperINS1_IPK11Il2CppImageP11Il2CppClassEEEjEES9_17ReflectionMapHashIS8_EN14dense_hash_mapIS9_jSD_NS9_14EqualsComparerINS0_8equal_toIS8_EEEENS0_9allocatorISB_EEE9SelectKeyESI_SK_E14squash_deletedEv
_Ye:_SHAConstants__cctor_m1699027474
cLb:__ZN9InputAxis8TransferI18StreamedBinaryReadILb0EEEEvRT_
A8d:__ZN5physx2Gu11HeightField8requiresERNS_23PxProcessPxBaseCallbackE
Xrg:_List_1_TrimExcess_m4121641494_gshared
EDl:__ZL78Convert_t2465617642_CustomAttributesCacheGenerator_Convert_ToInt16_m1733792763P21CustomAttributesCache
iRc:__ZN5physx2Gu16buildPartialHullERKNS0_13PolygonalDataEPNS0_12SupportLocalERNS0_14SeparatingAxesERKNS_6shdfnd3aos5Vec3VESC_
l5j:_SymmetricTransform_FinalDecrypt_m764004682
Acj:_AnimationEvent_get_isFiredByLegacy_m2397681361
kSb:__Z18Transfer_BlittableI14SafeBinaryReadLb0EaEvRK29SerializationCommandArgumentsR31RuntimeSerializationCommandInfo
vFl:__ZL68Math_t1671470975_CustomAttributesCacheGenerator_Math_Min_m3253079129P21CustomAttributesCache
Cvf:_CharEnumerator_System_Collections_IEnumerator_get_Current_m1328529384
nwm:_emscripten_glFrustum__wrapper
Ocd:__ZNK5physx2Sc16ArticulationCore17releaseDriveCacheERNS_9PxcFsDataE
Uvj:_GetRayIntersectionAllCallback_Invoke_m1316694896
lPh:__Z98RuntimeInvoker_Boolean_t97287965_RuntimeObject_Int32_t2950945753_RuntimeObject_Int64U26_t200113976PFvvEPK10MethodInfoPvPS4_
kM:__ZN24GenerateTypeTreeTransfer8TransferIN7mecanim8skeleton8SkeletonEEEvRT_PKc17TransferMetaFlags
_0c:__ZN5physx11NpAggregate7releaseEv
Wuf:_Char_System_IConvertible_ToUInt64_m3536560782
Z$j:_EqualityComparer_1__cctor_m3452395357_gshared
vIi:_X509ChainStatus_get_Status_m2572005749_AdjustorThunk
Xce:__ZN5physx6shdfnd7PAUtilsD2Ev
C5h:__Z115RuntimeInvoker_Void_t1185182177_PlayableHandleU26_t645981773_Int32_t2950945753_Int32_t2950945753_Single_t1397266774PFvvEPK10MethodInfoPvPS4_
Ow:__ZN19StreamedBinaryWriteILb0EE8TransferIKN4math7_float3EEEvRT_PKc17TransferMetaFlags
g2a:__Z20SyncFenceCullResultsR11CullResults
mUa:__ZN15TextureTFMethod20IsBoneCountSupportedEi
PO:__ZN26AnimatorControllerPlayable9GotoStateEiifff
jFh:_ValueCollection_System_Collections_ICollection_CopyTo_m1976782887_gshared
cOf:_Double_ToString_m3828879243_AdjustorThunk
Ssh:_NetworkStream_set_Position_m4274646361
WVb:__Z22TransferField_NonArrayI17RemapPPtrTransfer27Converter_SimpleNativeClassI8GUIStyleEEvRK23StaticTransferFieldInfoR31RuntimeSerializationCommandInfoRT0_
ood:__ZN5physx7NpShape12setMaterialsEPKPNS_10PxMaterialEt
Ncc:__ZNK17AnimationCurveTplIfE20EvaluateWithoutCacheEfRf
_7h:__Z67RuntimeInvoker_Boolean_t97287965_Rect_t2360479859_SByte_t1669577662PFvvEPK10MethodInfoPvPS4_
Pua:__ZN19ShaderPropertySheet10SetTextureERK23FastTexturePropertyNameP7Texture
q0i:_CustomAttributeData__ctor_m2966233049
vcf:_CanvasUpdateRegistry_PerformUpdate_m1793997159
tfh:_Context_set_ClientWriteIV_m3405909624
Zlc:__ZN4Mesh10SetNormalsEPK8Vector3fj
A5j:_AesManaged_CreateDecryptor_m692040246
$Zk:__ZNSt3__212basic_stringIDsNS_11char_traitsIDsEENS_9allocatorIDsEEE9__grow_byEjjjjjj
ou:__ZN17AnimationCurveTplIfE8TransferI14SafeBinaryReadEEvRT_
TIh:_Dictionary_2_get_Count_m2449135560_gshared
Y$f:_Array_InternalArray__set_Item_TisInt16_t2552820387_m2544074754_gshared
Pof:_ArithmeticException__ctor_m3551809662
cgg:_MonoIO_ExistsDirectory_m2182482658
cDg:__ZN21InterfaceFuncInvoker0I19Vector4_t3319028937E6InvokeEjP11Il2CppClassP12Il2CppObject
Jgi:__Z72RuntimeInvoker_CustomAttributeNamedArgument_t287865710_Int32_t2950945753PFvvEPK10MethodInfoPvPS4_
P_c:__ZN5physx2Gu9RadixSortD2Ev
SCb:__ZNSt3__26vectorIN15QualitySettings14QualitySettingENS_9allocatorIS2_EEE6assignIPS2_EENS_9enable_ifIXaasr21__is_forward_iteratorIT_EE5valuesr16is_constructibleIS2_NS_15iterator_traitsIS9_E9referenceEEE5valueEvE4typeES9_S9_
Qpb:__ZNK5Unity9Component10GetEnabledEv
MYc:__Z15raycast_capsuleRKN5physx10PxGeometryERKNS_11PxTransformERKNS_6PxVec3ES8_fNS_7PxFlagsINS_9PxHitFlag4EnumEtEEjPNS_12PxRaycastHitEbPFbRSD_PvESG_
Lxj:_ScrollRect_get_scrollSensitivity_m2832710591
yud:__ZNK5physx15NpActorTemplateINS_15PxParticleFluidEE14getOwnerClientEv
j6:__GLOBAL__sub_I_runtime_utilities4_lump_cpp
Prg:_List_1_CheckCollection_m1671972112_gshared
Ezk:_il2cpp_class_get_image
qdh:_CipherSuiteFactory_GetSsl3SupportedCiphers_m3757358569
oxi:_UnicodeEncoding_GetPreamble_m3002287178
kea:__Z16AsyncReadRequestP16AsyncReadCommand
o3d:__ZNK5physx34PxsSolverConstraintPostProcessTask7getNameEv
R7h:__Z52RuntimeInvoker_Color_t2555686324_Color32_t2600501292PFvvEPK10MethodInfoPvPS4_
sSc:__ZN5physx2Gu23distancePointBoxSquaredERKNS_6PxVec3ES3_S3_RKNS_7PxMat33EPS1_
Bke:__ZN5physx9NpPhysics20MeshDeletionListener28onGuMeshFactoryBufferReleaseEPKNS_6PxBaseEtb
Zlj:_AudioConfigurationChangeHandler_EndInvoke_m1720774368
MRe:__ZNK12HeaderHelper3GetERKN4core12basic_stringIcNS0_20StringStorageDefaultIcEEEE
ALe:__Z24GetUnityAnalyticsManagerv
OQj:_DefaultComparer__ctor_m704436039_gshared
VKb:__ZN9InputAxis8TransferI14SafeBinaryReadEEvRT_
pba:__ZNK21ExecutionOrderManager30GetCustomAwakeFromLoadQueueForEPKN5Unity4TypeE
KFd:__ZNK5physx7NpScene9getActorsENS_7PxFlagsINS_15PxActorTypeFlag4EnumEtEEPPNS_7PxActorEjj
C_l:__ZL107StackTraceUtility_t3465565809_CustomAttributesCacheGenerator_StackTraceUtility_SetProjectFolder_m3713926588P21CustomAttributesCache
hRe:__Z27RegisterModule_UnityConnectv
Aig:_MemoryStream_Expand_m3554752073
D8f:_DateTimeFormatInfo_get_RoundtripPattern_m796050488
wxd:__ZN5physx15PxParticleFluidD0Ev
ANd:__ZN5physx11NodeManagerD0Ev
tke:__ZN5physx6shdfnd8PoolBaseINS_24NpPtrTableStorageManager8PtrBlockILi4EEENS0_19ReflectionAllocatorIS4_EEE12allocateSlabEv
ppi:_ObjectRecord_get_IsInstanceReady_m2304516395
RNj:_InternalEnumerator_1_System_Collections_IEnumerator_get_Current_m1635397542_gshared
fjg:_Path__cctor_m3273994011
C1c:__ZNK5physx2Sc8BodyCore6getSimEv
urm:__ZNSt11logic_errorD2Ev
IIf:_DateTimeUtils_CountRepeat_m3396693018
qcj:_AnimationEvent_get_intParameter_m2847673300
cIi:_WeakReference_get_Target_m168713953
yP:__Z96Register_UnityEngine_Animations_AnimationClipPlayable_INTERNAL_CALL_SetRemoveStartOffsetInternalv
MW:__ZN10ObjectPoolIN4FMOD12ChannelGroupENS0_13ChannelGroupIEE7SetSizeEi
sla:__ZN15dense_hashtableINSt3__24pairIKN4core12basic_stringIcNS2_20StringStorageDefaultIcEEEE13dynamic_arrayI4PPtrI6SpriteELj4EEEES6_20StringHash32FunctionIS6_EN14dense_hash_mapIS6_SC_SF_NS0_8equal_toIS6_EE13stl_allocatorISD_L18MemLabelIdentifier79ELi16EEE9SelectKeyESI_SL_E9copy_fromERKSO_j
mPg:_ReadOnlyCollection_1_System_Collections_IList_RemoveAt_m3030506374_gshared
XWk:__ZN6il2cpp2os10ThreadImpl33UnregisterCurrentThreadForCleanupEv
nOl:__ZL81Time_t2420636075_CustomAttributesCacheGenerator_Time_get_unscaledTime_m1478911891P21CustomAttributesCache
ZBg:_List_1_System_Collections_IList_get_Item_m1315368445_gshared
D1l:__ZL114PointerEventData_t3807901092_CustomAttributesCacheGenerator_PointerEventData_get_pointerCurrentRaycast_m2627585223P21CustomAttributesCache
cOi:_Parser_ParseGroupingConstruct_m263270497
ew:__ZN18StreamedBinaryReadILb0EE21TransferSTLStyleArrayI22OffsetPtrArrayTransferIN7mecanim9animation10ValueDeltaEEEEvRT_17TransferMetaFlags
Iel:_GUIStyle_get_isHeightDependantOnWidth_m802385395
Y6:__Z22ValidateTlsfAllocationPvjiS_
BIj:_InternalEnumerator_1_MoveNext_m3525157932_gshared
und:__ZN5physx2Cm12RefCountable14onRefCountZeroEv
aJ:__ZN15SerializeTraitsINSt3__24pairI8StateKey10StateRangeEEE8TransferI14SafeBinaryReadEEvRS4_RT_
FIk:__ZN14dense_hash_mapI10KeyWrapperINSt3__24pairIPK9EventInfoP11Il2CppClassEEEj17ReflectionMapHashIS8_ENS9_14EqualsComparerINS1_8equal_toIS8_EEEENS1_9allocatorINS2_IKS9_jEEEEE15set_deleted_keyERSH_
oUl:__ZL137AnimatorControllerPlayable_t1015767841_CustomAttributesCacheGenerator_AnimatorControllerPlayable_INTERNAL_CALL_SetFloatString_m1514080707P21CustomAttributesCache
zB:__ZN27AnimationLayerMixerPlayable22PrepareAnimationEventsEfR13dynamic_arrayI22AnimationClipEventInfoLj4EE
Kqd:__ZNK5physx7NpCloth25getMotionConstraintConfigEv
HTb:__Z14resize_trimmedINSt3__26vectorI17AnimationCurveTplIfE13stl_allocatorIS3_L18MemLabelIdentifier1ELi16EEEEEvRT_j
kPg:_ReadOnlyCollection_1_System_Collections_IList_Insert_m1043619507_gshared
Nfb:__ZN25CameraStackRenderingState19SetupLastEyeCamerasERK11CameraStack
erc:__Z12GUIDToStringRK9UnityGUID
Rkj:_AudioClipPlayable_SetStartDelayInternal_m1513051483
XSe:__GLOBAL__sub_I_runtime_vr_plugininterface_lump_cpp
PLh:_Dictionary_2__ctor_m1420032696_gshared
oih:_RSASslSignatureDeformatter_SetKey_m2204705853
kVk:__ZN6il2cpp6icalls8mscorlib6System4Enum12get_hashcodeEP12Il2CppObject
_S:__ZN11SoundHandleC2ERKS_
ukf:_InputField_set_shouldHideMobileInput_m1650743574
Atk:__ZNK6il2cpp5utils11collections13ArrayValueMapIPK10Il2CppType17Il2CppInteropData26InteropDataToTypeConverterNS_8metadata14Il2CppTypeLessENS8_26Il2CppTypeEqualityComparerEE10find_firstERKS5_
rQ:__Z75AnimatorControllerPlayable_CUSTOM_INTERNAL_CALL_GetAnimatorClipInfoInternalR9HPlayableihP12Il2CppObject
WEd:__ZThn8_N5physx2Sc24ElementInteractionMarker7destroyEv
uDg:_List_1_Reverse_m1445355384_gshared
bhg:_FileStream_get_CanSeek_m331583577
f0b:__ZN11Quaternionf8TransferI18StreamedBinaryReadILb1EEEEvRT_
slb:__Z29StdTemplateConversionFunctionItxEbPvR14SafeBinaryRead
toi:_WellKnownServiceTypeEntry_get_ObjectType_m3211195371
rrm:__ZNSt9bad_allocD0Ev
E6i:_TypeBuilder_get_ContainsGenericParameters_m1769080325
STe:_DSAParameters_t1885824122_marshal_pinvoke_back
C_c:__ZN5physx3Cct26CharacterControllerManager24setOverlapRecoveryModuleEb
WD:__ZN8Animator22OnGraphTopologyChangedEP8Playablei
Y$g:_Kernel_MultiplyByDword_m1266935086
YZk:__ZN4utf89unchecked8utf8to16INSt3__220back_insert_iteratorINS2_12basic_stringIDsNS2_11char_traitsIDsEENS2_9allocatorIDsEEEEEEPKcEET_T0_SE_SD_
bIa:__ZNSt3__26__treeINS_12__value_typeI18VertexChannelsInfoP17VertexDeclarationEENS_19__map_value_compareIS2_S5_NS_4lessIS2_EELb1EEE13stl_allocatorIS5_L18MemLabelIdentifier14ELi16EEE12__find_equalIS2_EERPNS_16__tree_node_baseIPvEENS_21__tree_const_iteratorIS5_PNS_11__tree_nodeIS5_SG_EEiEESJ_RKT_
HA:__ZN17AnimationPlayable18DeallocateBindingsEv
Pib:__ZN6Camera25StandaloneRenderToCubemapEP7TextureiPFvPK9SceneNodePK4AABBR9IndexListPvESA_j
bYg:_Func_2__ctor_m4090441849_gshared
G2e:_String_Trim_m3384720403
$wb:__ZN14RenderSettings18TransferDeprecatedI14SafeBinaryReadEEvRT_
gUc:__ZN24ConvexVsHeightfieldSweepD0Ev
QFl:__ZL56RankException_t3812021567_CustomAttributesCacheGeneratorP21CustomAttributesCache
Sci:__Z72RuntimeInvoker_Boolean_t97287965_CustomAttributeNamedArgument_t287865710PFvvEPK10MethodInfoPvPS4_
Z_h:__Z88RuntimeInvoker_RuntimeObject_RuntimeObject_RuntimeObject_RuntimeObject_Int32_t2950945753PFvvEPK10MethodInfoPvPS4_
Xdi:__Z59RuntimeInvoker_Int32_t2950945753_KeyValuePair_2_t2530217319PFvvEPK10MethodInfoPvPS4_
yDi:_Type_ToString_m3975981286
Vgl:_Material_get_mainTexture_m4181654696
E7:__ZN12TLSAllocatorI14StackAllocatorE8AllocateEji
mca:__ZN16ScriptingManager18GetMonoScriptCacheEi
qOi:_ExpressionAssertion__ctor_m2554412824
OPi:_CapturingGroup_IsComplex_m4061114763
v1f:_Array_Resize_TisCustomAttributeTypedArgument_t2723150157_m3021884250_gshared
rSb:__Z18Transfer_BlittableI14SafeBinaryReadLb1EyEvRK29SerializationCommandArgumentsR31RuntimeSerializationCommandInfo
Bog:_NullReferenceException__ctor_m3076065613
lGc:__ZN8JSONRead8TransferIfEEvRT_PKc17TransferMetaFlagsb
lK:__ZN25RuntimeAnimatorController8TransferI17RemapPPtrTransferEEvRT_
HDh:_Enumerator__ctor_m1783478807_AdjustorThunk
KHd:__ZNK5physx2Sc10NPhaseCore39getDefaultContactReportStreamBufferSizeEv
kXg:_Comparison_1_EndInvoke_m3981968715_gshared
Yrf:__ZN21InterfaceFuncInvoker2IP12Il2CppObjectP6Type_tS1_E6InvokeEjP11Il2CppClassS1_S3_S1_
R8g:_PrimalityTests_GetSPPRounds_m2558073743
vrd:__ZN5physx7NpCloth25setSelfCollisionStiffnessEf
TQd:__ZZN5physx28PxcSweepEstimateAnyShapeMeshERKNS_11PxsCCDShapeES2_PKNS_12PxsRigidBodyES5_RKNS_11PxTransformES8_fEN2CBD0Ev
j2e:_String_System_IConvertible_ToUInt16_m2888090399
c$i:_Assembly_InternalGetType_m3065345470
$0:__ZN13Simd4iFactoryIN6detail9FourTupleEEC2Eiiii
oHj:_InternalEnumerator_1__ctor_m3390957028_gshared
cSj:_ResourceSet__ctor_m3356376607
cef:_FloatTween_set_startValue_m53556027_AdjustorThunk
$wl:__ZL56_ParameterInfo_t489405856_CustomAttributesCacheGeneratorP21CustomAttributesCache
RAb:__ZN15SerializeTraitsI33EnlightenTerrainChunksInformationE8TransferI14SafeBinaryReadEEvRS0_RT_
kld:__ZN5physx2Sc14ConstraintCoreD2Ev
Fgc:__ZNK32RendererMaterialAnimationBinding9BindValueER6ObjectRKN11UnityEngine9Animation14GenericBindingERNS3_10BoundCurveE
d5l:__ZL109MaskableGraphic_t3839221559_CustomAttributesCacheGenerator_MaskableGraphic_ParentMaskStateChanged_m1092090553P21CustomAttributesCache
C8k:_Font_get_dynamic_m1886714215
nDh:_Transform_1_Invoke_m1731820209_gshared
jid:__ZN5physx15NpActorTemplateINS_18PxArticulationLinkEE13setActorFlagsENS_7PxFlagsINS_11PxActorFlag4EnumEtEE
Rxb:__Z13GetIAnimationv
eEa:__ZL18stbir__support_onef
O9d:__ZN5physx6shdfnd8internal8HashBaseIPNS_11PxAggregateES4_NS0_4HashIS4_EENS1_11HashSetBaseIS4_S6_NS0_9AllocatorELb0EE6GetKeyES8_Lb0EE15reserveInternalEj
C1e:_Single_CompareTo_m189772128
tIc:__Z26Transfer_UnityEngineObjectI9JSONWriteLb0EEvRK29SerializationCommandArgumentsR31RuntimeSerializationCommandInfo
EQj:_DefaultComparer_Compare_m4042058291_gshared
qjf:_Image_set_overrideSprite_m3213596394
Ova:__ZNSt3__26vectorIN4core12basic_stringIcNS1_20StringStorageDefaultIcEEEE13stl_allocatorIS5_L18MemLabelIdentifier1ELi16EEE6assignINS_11__wrap_iterIPS5_EEEENS_9enable_ifIXaasr21__is_forward_iteratorIT_EE5valuesr16is_constructibleIS5_NS_15iterator_traitsISF_E9referenceEEE5valueEvE4typeESF_SF_
BGe:__ZNSt3__27__sort5IRNS_6__lessIN2UI14DepthSortEntryES3_EEPS3_EEjT0_S7_S7_S7_S7_T_
Ngg:_FileLoadException_ToString_m2989457882
Hkh:_AuthorityKeyIdentifierExtension__ctor_m2197389230
inj:_Camera_FireOnPreRender_m475210052
Tre:_UNITY_FT_DivFix
h5f:_Array_InternalArray__get_Item_TisDecimal_t2948259380_m3511003792_gshared
rFk:__ZNSt3__218uninitialized_copyIPNS_4pairIK10KeyWrapperINS1_IPK11Il2CppImageP11Il2CppClassEEEjEESC_EET0_T_SE_SD_
M_e:_SecurityElement_IsValidAttributeValue_m948345692
Ia:invoke_vdd
qo:FUNCTION_TABLE_fiii
wvl:__ZL102MethodInfo_t_CustomAttributesCacheGenerator_MethodInfo_MakeGenericMethod_m1996785325____typeArguments0P21CustomAttributesCache
dlg:_TextWriter_Write_m2252948084
$L:__ZN14SafeBinaryRead21TransferSTLStyleArrayI19StaticArrayTransferIiLi15EEEEvRT_17TransferMetaFlags
uo:FUNCTION_TABLE_fiif
OXj:_AsyncResult_get_CallMessage_m1679778649
gth:_NetworkStream_EndWrite_m2616051554
iVf:_Array_InternalArray__IEnumerable_GetEnumerator_TisPlayableBinding_t354260709_m1924544205_gshared
Kdc:__ZNK30SpriteRendererAnimationBinding12GetPPtrValueERKN11UnityEngine9Animation10BoundCurveE
qEe:__ZZ29InitializeTextRenderingModulevEN27cleanupAfterLoadRegistrator7ForwardEv
Yek:_CachedInvokableCall_1__ctor_m3594541075_gshared
IB:__ZN27AnimationLayerMixerPlayable24ProcessAnimationLayerMixEP33AnimationPlayableEvaluationOutputP35AnimationPlayableEvaluationConstantP32AnimationPlayableEvaluationInputS1_if
WPf:_CCFixed_FromDateTime_m3894190577
C5k:__ZN6il2cpp6icalls8mscorlib4Mono8Security12Cryptography18KeyPairPersistence19_IsMachineProtectedEP12Il2CppString
kfb:__Z29PluginsIssueRenderingExtEvent26UnityRenderingExtEventTypePv
CSh:__Z116RuntimeInvoker_RuntimeObject_RuntimeObject_Int32_t2950945753_RuntimeObject_RuntimeObject_RuntimeObject_RuntimeObjectPFvvEPK10MethodInfoPvPS4_
TYh:__Z52RuntimeInvoker_UInt16_t2177724958_Single_t1397266774PFvvEPK10MethodInfoPvPS4_
loh:_Dns_GetHostEntry_m2165252375
Ffc:__Z14RandomRotationP9Texture2DPhiiii
TYf:_Array_InternalArray__ICollection_Add_TisUInt16_t2177724958_m3981262878_gshared
lje:__ZThn132_N5physx7profile8ZoneImplINS_28PxProfileNameProviderForwardEED1Ev
M4j:_HashSet_1_Contains_m3173358704_gshared
dCj:_ToggleEvent__ctor_m834619998
sPj:_InternalEnumerator_1_Dispose_m436383441_AdjustorThunk
Eah:_PKCS1_Encode_v15_m2077073129
YXl:__ZL85GUIStyle_t3956901511_CustomAttributesCacheGenerator_GUIStyle_set_wordWrap_m3423085392P21CustomAttributesCache
SKh:_Dictionary_2_get_Values_m2682483593_gshared
A8l:__ZL72Ext_t2749166018_CustomAttributesCacheGenerator_Ext_decompress_m248569453P21CustomAttributesCache
sNg:_Collection_1_set_Item_m4084225937_gshared
Rwh:_X509ChainElementCollection_System_Collections_IEnumerable_GetEnumerator_m3829089536
hGd:__ZN5physx7NpScene27setCCDContactModifyCallbackEPNS_26PxCCDContactModifyCallbackE
Egj:_AnimatorControllerPlayable_SetLayerWeight_m4088723267
O4k:__ZN6il2cpp2os12Cryptography23GetCryptographyProviderEv
Rae:__ZNK5physx17ConvexHullBuilder17ComputeGeomCenterERNS_6PxVec3E
eVd:__ZN3MBPD0Ev
bOa:__ZN4gles14UseGLSLProgramER15DeviceStateGLESjbij
z7h:__Z59RuntimeInvoker_Boolean_t97287965_Int32_t2950945753_IntPtr_tPFvvEPK10MethodInfoPvPS4_
ACm:_glDeleteProgram__wrapper
Csc:__Z50Register_UnityEngine_Camera_INTERNAL_get_pixelRectv
Dyl:__ZL101RemotingServices_t1401195504_CustomAttributesCacheGenerator_RemotingServices_GetRealProxy_m2081098851P21CustomAttributesCache
zya:__ZN6prcoreL18BlitFloatToIntegerERK14ImageReferenceRS0_
DKf:_DBNull_System_IConvertible_ToUInt32_m3784627971
ueh:_ClientSessionCache_Add_m964342678
nJd:__ZNK5physx10PxsContext18getBounceThresholdEv
occ:__Z13GetIPhysics2Dv
p4:__ZN11UnityEngine15CloudWebService14RestDownloader17OnCompleteContentEv
BCk:__ZN15dense_hashtableINSt3__24pairIK10KeyWrapperINS1_IPK14Il2CppAssemblyP11Il2CppClassEEEjEES9_17ReflectionMapHashIS8_EN14dense_hash_mapIS9_jSD_NS9_14EqualsComparerINS0_8equal_toIS8_EEEENS0_9allocatorISB_EEE9SelectKeyESI_SK_E15insert_noresizeERKSB_
JLf:_DivideByZeroException__ctor_m3496959969
qEd:__ZN5physx6shdfnd5ArrayIPvNS0_15InlineAllocatorILj256ENS0_19ReflectionAllocatorINS_2Gu31SpherePersistentContactManifoldEEEEEE15growAndPushBackERKS2_
w5d:__ZN5physx2Cm18DelegateFanoutTaskINS_2Sc5SceneEXadL_ZNS3_17finalizationPhaseEPNS_10PxBaseTaskEEEE11runInternalEv
ML:__ZN6Avatar8TransferI14SafeBinaryReadEEvRT_
kja:__ZNSt3__26vectorI20ProcessCallbackGroupNS_9allocatorIS1_EEEC2ERKS4_
BD:__ZN17AnimationPlayable28UpdateInternalStateRecursiveILi1ELb0EEEvPK35AnimationPlayableEvaluationConstant
xsj:_Event_get_type_m1523589438
cb:invoke_vifff
puc:__Z41Register_UnityEngine_GameObject_set_layerv
vvd:__ZN5physx15NpParticleFluid15exportExtraDataERNS_22PxSerializationContextE
bBm:_glGetVertexAttribiv__wrapper
dhd:__ZN5physx6shdfnd15atomicDecrementEPVi
xf:_emscripten_request_fullscreen
q5d:__ZN5physx2Cm12DelegateTaskINS_2Sc5SceneEXadL_ZNS3_11postCCDPassEPNS_10PxBaseTaskEEEED0Ev
ena:__ZN20LocalFileSystemWebGL6DeleteER13FileEntryDatab
zf:_emscripten_glDisableVertexAttribArray
SSf:_Array_InternalArray__ICollection_Remove_TisSingle_t1397266774_m3361324455_gshared
jo:FUNCTION_TABLE_iiiifiiii
vYf:_Array_InternalArray__ICollection_Add_TisSlot_t3975888750_m1793695076_gshared
WXg:_EventHandler_1_Invoke_m341276322_gshared
hcl:_GUIStyleState_INTERNAL_set_textColor_m205515088
SHj:_InternalEnumerator_1__ctor_m3456047704_gshared
sqj:_Component_SendMessage_m2383548706
Ec:invoke_fifffi
fMg:_Collection_1_System_Collections_IList_Add_m2969482770_gshared
H0g:_BitConverterLE_GetBytes_m4130646282
YOa:__ZN4gles23ClearCurrentFramebufferEP7ApiGLESbbbRK10ColorRGBAffi
cC:__ZN7mecanim12statemachine20CreateStateWorkspaceEjjjRNS_6memory9AllocatorE
IFk:__ZNK10KeyWrapperINSt3__24pairIPK12PropertyInfoP11Il2CppClassEEE14EqualsComparerINS0_8equal_toIS7_EEEclERKS8_SE_
HEl:__ZL79Convert_t2465617642_CustomAttributesCacheGenerator_Convert_ToUInt64_m2652538228P21CustomAttributesCache
xae:__ZN5physx2Gu11HeightField13releaseMemoryEb
Kf:_emscripten_glDeleteObjectARB
A6e:_EventSystem_RaycastComparer_m3685368675
NQa:__Z14DecompressDXT3iiiPKjPj
Pza:__ZN6prcoreL27StretchGenericFloatBilinearI18TexFormatARGBFloatEEvPKNS_9InnerInfoE
Qyc:__Z53Register_UnityEngine_RenderTexture_Internal_GetHeightv
z1g:_DSAManaged_CreateSignature_m2233977444
u3l:__ZL87U3CDelayedDestroyDropdownListU3Ec__Iterator0_t3853912249_CustomAttributesCacheGeneratorP21CustomAttributesCache
r5g:_PKCS12_RemoveCertificate_m1421555398
i8g:_Kernel_MinusEq_m2152832554
Aza:__ZN6prcoreL17RemapGenericFloatI17TexFormatRGBAHalf18TexFormatARGBFloatEEvPKNS_9InnerInfoE
XBc:__ZNK8GUIStyle21DrawWithTextSelectionER8GUIStateRK5RectTIfER10GUIContentbbbbbiiRK10ColorRGBAfSA_
zoc:__ZN10systeminfo21SupportsAccelerometerEv
jCc:__Z14GetBuiltinSkini
ojm:_TextGenerator_get_characterCount_m2163798385
Eli:_MethodDictionary_get_Item_m1201458851
maf:_StandaloneInputModule_ProcessMouseEvent_m2923582521
DPh:__Z60RuntimeInvoker_SByte_t1669577662_RuntimeObject_RuntimeObjectPFvvEPK10MethodInfoPvPS4_
LMj:_InternalEnumerator_1_System_Collections_IEnumerator_get_Current_m1911422882_gshared
Nkj:_AudioClipPlayable_SetStartDelay_m2048795331
b1g:_CryptoConvert_ToInt32LE_m3340980429
Ml:_JS_SystemInfo_GetBrowserVersionString
Krj:_DisallowMultipleComponent__ctor_m1904568243
K8b:__ZN2UI13RectTransform23VirtualRedirectTransferER14SafeBinaryRead
Rvj:_ReflectionMethodsCache_get_Singleton_m787098794
SGd:__ZN5physx7NpScene17flushQueryUpdatesEv
EEh:_Enumerator_MoveNext_m3045873697_gshared
q1h:__Z31RuntimeInvoker_Rect_t2360479859PFvvEPK10MethodInfoPvPS4_
m5b:__ZNSt3__26vectorIN9ShaderLab20SerializedSubProgramENS_9allocatorIS2_EEE6assignIPS2_EENS_9enable_ifIXaasr21__is_forward_iteratorIT_EE5valuesr16is_constructibleIS2_NS_15iterator_traitsIS9_E9referenceEEE5valueEvE4typeES9_S9_
sKc:__Z18Transfer_BlittableI8JSONReadLb0E8BitFieldEvRK29SerializationCommandArgumentsR31RuntimeSerializationCommandInfo
m_e:_SecurityPermission_set_Flags_m1503445204
G4j:_HashSet_1_CopyTo_m2849056227_gshared
__b:__ZL17Transfer_GUIStyleI18StreamedBinaryReadILb1EELb0EEvRK29SerializationCommandArgumentsR31RuntimeSerializationCommandInfo
W7k:_UnityEvent_GetDelegate_m3910545044
G$g:_ModulusRing_Multiply_m343333088
jej:_AnimationOffsetPlayable_GetRotationInternal_m1122953425
iHd:__ZN5physx7NpScene10unlockReadEv
Bpk:_il2cpp_z_deflate
v3b:__ZN9ShaderLab14SerializedPass8TransferI14SafeBinaryReadEEvRT_
rDc:__Z71Register_UnityEngine_GUILayoutUtility_INTERNAL_CALL_Internal_MoveWindowv
M_:__ZN12AudioManager16SetListenerPauseEb
WTf:_SetPropertyUtility_SetStruct_TisSingle_t1397266774_m2805350785_gshared
zwi:_StringBuilder_get_Length_m3238060835
rNk:__ZN6il2cpp2vm9Exception25RaiseOutOfMemoryExceptionERKNS_5utils10StringViewIDsEE
oak:_KeyValuePair_2_set_Value_m2953914627_AdjustorThunk
S4h:__Z70RuntimeInvoker_Playable_t459825607_AnimationOffsetPlayable_t2887420414PFvvEPK10MethodInfoPvPS4_
fa:invoke_viiiiiiiiiii
jnm:___syscall_ret
DYj:_DeriveBytes_set_Salt_m1400945044
G8e:_PointerEventData_set_worldNormal_m1888481930
Ubf:_CanvasScaler_set_referencePixelsPerUnit_m1768965301
_Oi:_AnchorInfo__ctor_m46784903
Pch:_CipherSuiteCollection_get_Item_m4188309062
ljh:_SslHandshakeHash_HashFinal_m2573455475
$Wj:_SynchronizationAttribute_ReleaseLock_m1030353464
iBk:__ZNSt3__212basic_stringIcNS_11char_traitsIcEENS_9allocatorIcEEE6assignINS_11__wrap_iterIPKcEEEENS_9enable_ifIXaasr21__is_forward_iteratorIT_EE5valuesr38__libcpp_string_gets_noexcept_iteratorISC_EE5valueERS5_E4typeESC_SC_
kMe:__Z56Register_UnityEngine_Analytics_CustomEventData_AddDoublev
mEb:__ZN11ChannelInfo8TransferI19StreamedBinaryWriteILb0EEEEvRT_
C6l:__ZL53ToggleGroup_t123837990_CustomAttributesCacheGeneratorP21CustomAttributesCache
IVk:__ZN6il2cpp2os10SocketImpl8RecvFromEPKcPKhiNS0_11SocketFlagsEPiRNS0_12EndPointInfoE
Msd:__ZN5physx2Sc9ClothCore22setFrictionCoefficientEf
aYe:_SHA1Internal_AddLength_m2737455899
r6a:__ZN14qsort_internal13Partition3WayIP17RODataReplacementi19ROSorterReplacementEENSt3__24pairIT_S6_EES6_S6_T0_T1_
Kmd:__ZNK5physx9NpPhysics17getNbConvexMeshesEv
$Vl:__ZL105CanvasRenderer_t2598313366_CustomAttributesCacheGenerator_CanvasRenderer_INTERNAL_CALL_GetColor_m21875977P21CustomAttributesCache
FGd:__ZNK5physx7NpScene29getContactCorrelationDistanceEv
Gak:_KeyValuePair_2_get_Value_m755756747_gshared
Duc:__Z34Register_UnityEngine_Gradient_Initv
hof:_LayoutGroup_OnDidApplyAnimationProperties_m1333813659
g4i:_GenericTypeParameterBuilder_IsArrayImpl_m67259334
rWj:_Context_ToString_m1073616138
U0i:_DefaultMemberAttribute_get_MemberName_m3384235354
XGh:_Dictionary_2__ctor_m329711281_gshared
Ama:__ZN13ScreenManager23SetIsOrientationEnabledE18EnabledOrientationb
Shk:__ZL24UnresolvedVirtualCall_57P12Il2CppObjectiPK10MethodInfo
Pef:_InputField_EnforceTextHOverflow_m3400115777
_vg:_List_1_System_Collections_IEnumerable_GetEnumerator_m1225415523_gshared
G2h:__Z41RuntimeInvoker_TextureWrapMode_t584250749PFvvEPK10MethodInfoPvPS4_
OB:__ZN7mecanim5human25HumanPoseAddOverrideLayerERNS0_9HumanPoseERKS1_fRKNS_6bitsetILj70EEE
eEd:__ZN5physx16PxsIslandManager16clearEdgeRigidCMERKNS_20PxsIslandManagerHookIjLj4294967295EEE
Hcc:__ZN13ProduceHelperI9TransformLb0EE7ProduceE18MemLabelIdentifier18ObjectCreationMode
iFc:__Z45Register_UnityEngine_GUIStyle_GetFontInternalv
Zkf:_InputField_get_caretColor_m2973283772
f8j:_ListPool_1_Release_m591299672_gshared
Nam:__ZL76LoginManager_t1249555276_CustomAttributesCacheGenerator_U3CU3Ef__amU24cache2P21CustomAttributesCache
g0c:__ZN5physx6shdfnd8SyncImpl4waitEj
ijj:_AnimatorTransitionInfo_IsUserName_m2064408313_AdjustorThunk
eEl:__ZL79Convert_t2465617642_CustomAttributesCacheGenerator_Convert_ToUInt16_m3116648921P21CustomAttributesCache
upj:_Component_get_gameObject_m2648350745
MNj:_InternalEnumerator_1_MoveNext_m1096095130_AdjustorThunk
DMg:_Collection_1_RemoveAt_m226266097_gshared
E6j:_UnityEvent_1_AddListener_m1590149461_gshared
AXl:__ZL63GUISkin_t1244372282_CustomAttributesCacheGenerator_m_ScrollViewP21CustomAttributesCache
DNf:_Double_System_IConvertible_ToInt16_m3591921965_AdjustorThunk
mXg:_Comparison_1_Invoke_m2925518770_gshared
iib:__ZN10GameObject23VirtualRedirectTransferER18StreamedBinaryReadILb0EE
W4j:_SymmetricTransform__ctor_m2693628991
efg:_ObjectDisposedException__ctor_m1034312941
l3h:__Z67RuntimeInvoker_Void_t1185182177_Scene_t2348375561_Scene_t2348375561PFvvEPK10MethodInfoPvPS4_
_g:_glFrontFace
Itk:__ZNK15dense_hashtableINSt3__24pairIK10KeyWrapperIPK11Il2CppClassEPKcEES6_N6il2cpp5utils11PointerHashIS3_EEN14dense_hash_mapIS6_S9_SE_NS6_14EqualsComparerINS0_8equal_toIS5_EEEENS0_9allocatorISA_EEE9SelectKeyESJ_SL_E13find_positionERS7_
gig:_FileSystemInfo_InternalRefresh_m1700260373
Gmj:_Collider__ctor_m1065140477
Nff:_Dropdown_OnSubmit_m1624226516
TFl:__ZL101RuntimeMethodHandle_t1133924984_CustomAttributesCacheGenerator_RuntimeMethodHandle_Equals_m3301340296P21CustomAttributesCache
L2j:_EqualityComparer_1_get_Default_m1390205541_gshared
sLe:__ZN18BaseUnityAnalytics7ReleaseEv
yO:__ZN26AnimatorControllerPlayable14SetLayerWeightEif
Fbc:__ZN13ProduceHelperI19LowerResBlitTextureLb0EE7ProduceE18MemLabelIdentifier18ObjectCreationMode
Buj:_MaskUtilities_IsDescendantOrSelf_m2247511982
QYh:__Z51RuntimeInvoker_UInt16_t2177724958_SByte_t1669577662PFvvEPK10MethodInfoPvPS4_
xId:__ZN5physx13NpVolumeCache17getNbCachedShapesEv
xbb:__ZNSt3__26vectorI16ShadowCasterData13stl_allocatorIS1_L18MemLabelIdentifier2ELi16EEE21__push_back_slow_pathIKS1_EEvRT_
DOh:__Z46RuntimeInvoker_Double_t594665363_RuntimeObjectPFvvEPK10MethodInfoPvPS4_
cvg:_List_1_System_Collections_IList_Contains_m3674793472_gshared
ZEe:__Z51Register_UnityEngine_TextGenerator_GetLinesInternalv
aEh:_Enumerator_get_Current_m2250080680_AdjustorThunk
d0e:_SecurityElement__cctor_m3326869319
H5j:_AesManaged_set_Key_m767972181
gbg:_Int16_System_IConvertible_ToBoolean_m1656400658_AdjustorThunk
cuh:_SocketAsyncResult_CompleteAllOnDispose_m1317216893
ztf:_Byte_System_IConvertible_ToInt64_m285584218
Iqi:_ObjectManager__ctor_m1844334865
Rya:__ZN6prcoreL17RemapGenericFloatI17TexFormatRGBFloat18TexFormatRGBAFloatEEvPKNS_9InnerInfoE
pzf:_DictionaryEntry_t3123975638_marshal_pinvoke_cleanup
_Jd:__ZN5physx2Sc5Scene15getRenderBufferEv
lYf:_Array_InternalArray__ICollection_Add_TisDictionaryEntry_t3123975638_m665385049_gshared
qmg:_MissingMemberException__ctor_m2707802176
$Za:__ZN12HandlerChain10ToAbsoluteEPKc
yMf:_DelegateSerializationHolder_GetDelegateData_m2109044103
WIh:__ZN21InterfaceFuncInvoker2Ib8IntPtr_tS0_E6InvokeEjP11Il2CppClassP12Il2CppObjectS0_S0_
ORk:__ZN15dense_hashtableI10KeyWrapperIP18Il2CppGenericClassES3_N6il2cpp8metadata22Il2CppGenericClassHashEN14dense_hash_setIS3_S6_NS3_14EqualsComparerINS5_25Il2CppGenericClassCompareEEENSt3__29allocatorIS3_EEE8IdentityESA_SD_E8min_sizeEjj
KOb:__ZN13MonoBehaviour23VirtualRedirectTransferER19StreamedBinaryWriteILb0EE
RS:__ZN9AudioClip11CreateSoundEv
QDh:_Enumerator_get_Current_m1879183223_AdjustorThunk
fjl:_PlayerConnection__ctor_m2357477230
tEk:__ZNK15dense_hashtableINSt3__24pairIK10KeyWrapperINS1_IPK10MethodInfoP11Il2CppClassEEEjEES9_17ReflectionMapHashIS8_EN14dense_hash_mapIS9_jSD_NS9_14EqualsComparerINS0_8equal_toIS8_EEEENS0_9allocatorISB_EEE9SelectKeyESI_SK_E13find_positionERSA_
gMa:__ZN13GfxDeviceGLES20CreateComputeProgramEPKhj
uqk:__ZN15dense_hashtableINSt3__24pairIK10KeyWrapperIPKcEP11Il2CppClassEES5_N6il2cpp5utils11StringUtils12StringHasherIS4_EEN14dense_hash_mapIS5_S8_SE_NS5_14EqualsComparerINSB_13VmStringUtils21CaseSensitiveComparerEEENS0_9allocatorIS9_EEE9SelectKeyESJ_SL_E8min_sizeEjj
yQe:__ZN11UnityEngine7Connect16PersistentValues13RestoreValuesER8JSONRead
phe:__ZN14SphereCollider22FetchPoseFromTransformEv
Vag:_Guid_BaseToString_m3600006650
H$a:__ZN20ArchiveStorageReader31TryToReadDirectoryFromBlockDataEyPKvj
W5e:_PointerEventData_set_pointerEnter_m3256217464
J0d:__ZNK5physx2Gu11HeightField17getHeightInternalEff
EXi:_U3CGetEnumeratorU3Ed__0_System_Collections_Generic_IEnumeratorU3CSystem_ByteU3E_get_Current_m1503538013
MPk:__ZN6il2cpp2vmL11GetIdentityEP14Il2CppIUnknown
fuk:__ZN6il2cpp2vm13MetadataCache26GetWindowsRuntimeClassNameEPK11Il2CppClass
x1k:_GC_push_gc_structures
ygh:_TlsServerCertificate_ProcessAsTls1_m819212276
ZFd:__ZNK5physx7NpScene22getClientBehaviorFlagsEh
Y3f:_Dictionary_2_Do_ICollectionCopyTo_TisRuntimeObject_m3942192587_gshared
pnd:__ZN5physx9NpFactory14createMaterialEfff
qAf:_Hashtable_GetObjectData_m2584507417
xOc:__ZNK5physx3Cct13BoxController8getStatsERNS_17PxControllerStatsE
rHk:__ZN15dense_hashtableINSt3__24pairIK10KeyWrapperIPK14Il2CppAssemblyEPK22Il2CppMonoAssemblyNameEES6_N6il2cpp5utils11PointerHashIS4_EEN14dense_hash_mapIS6_SA_SF_NS6_14EqualsComparerINS0_8equal_toIS5_EEEENS0_9allocatorISB_EEE9SelectKeyESK_SM_E4swapERSP_
Gcl:_GUISkin_set_verticalSlider_m2232958558
c1:__ZN5physx5cloth11PhaseConfigC2Et
BVa:__Z22GetShaderCachePathGLESv
lne:__ZN13PhysicsModule21OverlapBoxUserCollectERK8Vector3fS2_RK11Quaternionfi23QueryTriggerInteractionRN8IPhysics12IUserCollectE
zOc:__ZN5physx3Cct13BoxControllerD2Ev
b8g:_Kernel_DwordDivMod_m1540317819
JEd:__ZThn8_N5physx2Sc19ShapeInstancePairLLD0Ev
JXd:__ZN5physx19PxcContactSphereBoxERKNS_2Gu13GeometryUnionES3_RKNS_11PxTransformES6_RKfRNS_10PxcNpCacheERNS0_13ContactBufferE
HDg:_Enumerator_System_Collections_IEnumerator_get_Current_m1399273671_gshared
lGd:__ZNK5physx7NpScene21getBroadPhaseCallbackEh
L5c:__ZN5physx6shdfnd5ArrayIPNS_12PxConstraintENS0_19ReflectionAllocatorIS3_EEE15growAndPushBackERKS3_
Sdg:_Int64_Equals_m858582563_AdjustorThunk
eHj:_InternalEnumerator_1__ctor_m2819846374_gshared
FEb:__ZNSt3__213__stable_sortIRNS_4lessI4PPtrI11SpriteAtlasEEENS_11__wrap_iterIPS4_EEEEvT0_SA_T_NS_15iterator_traitsISA_E15difference_typeEPNSD_10value_typeEi
neg:_Int64_ToString_m2085073918_AdjustorThunk
oVa:__ZNSt3__26vectorIPN19ConstantBuffersGLES11ConstBufferENS_9allocatorIS3_EEE21__push_back_slow_pathIKS3_EEvRT_
Scd:__ZNK5physx2Sc15ArticulationSim11checkResizeEv
Koe:__Z37MeshCollider_Get_Custom_PropSkinWidthP12Il2CppObject
OTi:_Ext_TryGetUTF8EncodedBytes_m1040906710
sXf:_Array_InternalArray__IndexOf_TisTypeTag_t3541821701_m2988972362_gshared
g9:__ZN8keywords6CreateEPKc
PSc:__ZN5physx2Gu11gjkRelativeINS0_8CapsuleVENS0_11ConvexHullVEEEjRKT_RKT0_RKNS_6shdfnd3aos15PsMatTransformVERNSB_5Vec3VESG_SG_RNSB_6FloatVE
Rlk:__ZL7log2_32j
S:Math_imul
b3i:_TypeBuilder_GetCustomAttributes_m981725999
Qai:__Z49RuntimeInvoker_Boolean_t97287965_Byte_t1134296376PFvvEPK10MethodInfoPvPS4_
Cdl:_GUIStyle_set_active_m1243127135
JJb:__ZN14SpriteRenderer15SetupPropertiesEv
YUg:_ReadOnlyCollection_1_CopyTo_m605724295_gshared
eDb:__ZN11PlayerPrefs6GetIntERKN4core12basic_stringIcNS0_20StringStorageDefaultIcEEEEi
Wch:_CipherSuiteCollection_System_Collections_IList_IndexOf_m1361500977
KBj:_Text_set_fontStyle_m648756124
HEe:__Z45TextGenerator_CUSTOM_INTERNAL_get_rectExtentsP12Il2CppObjectP5RectTIfE
V1h:__Z50RuntimeInvoker_Touch_t1921856868_Int32_t2950945753PFvvEPK10MethodInfoPvPS4_
gIf:_DateTime__ctor_m2135476686_AdjustorThunk
Znj:_CanvasRenderer_SetColor_m3481008010
Qmi:_SoapFieldAttribute_IsInteropXmlElement_m2819415462
iQg:_ReadOnlyCollection_1_System_Collections_Generic_IListU3CTU3E_set_Item_m1300028287_gshared
Khe:__ZN12PhysXRaycast19ApplyParticleForcesER13dynamic_arrayI21BatchedColliderResultLj4EE
bdj:_AnimationClipPlayable_GetRemoveStartOffsetInternal_m3282425066
K0j:_EqualityComparer_1__ctor_m3717935020_gshared
EXg:_Comparison_1_EndInvoke_m2734814639_gshared
Y9:__ZN18ScriptingArguments9AddObjectE18ScriptingObjectPtr
KIe:__Z39CanvasGroup_Get_Custom_PropInteractableP12Il2CppObject
B1:__ZN11UnityEngine15CloudWebService16SessionContainerD2Ev
mPa:__ZN17GenericDynamicVBOC2ER9GfxDevice13GfxBufferModejj
eBc:__ZZN10GUIManager14InitGUIManagerEvEN41PreUpdateIMGUISendQueuedEventsRegistrator7ForwardEv
zsh:_ServicePointManager_get_SecurityProtocol_m966397919
Qmk:_TrackableProperty_set_fields_m1461281003
oCd:__ZNK5physx2Sc5Scene7isValidEv
o0j:_EqualityComparer_1_System_Collections_IEqualityComparer_Equals_m2639327655_gshared
jUl:__ZL140AnimatorControllerPlayable_t1015767841_CustomAttributesCacheGenerator_AnimatorControllerPlayable_PlayInternal_m2844371131____normalizedTime3P21CustomAttributesCache
fQf:_CCGregorianCalendar_day_from_fixed_m1674702403
U2:__ZN11UnityEngine15CloudWebService17SessionEventQueue10PurgeItemsEj
oId:__ZN5physx2Sq17SceneQueryManager29setDynamicTreeRebuildRateHintEj
Wgb:__ZN6Camera16StandaloneRenderENS_10RenderFlagEP6ShaderRKN4core12basic_stringIcNS3_20StringStorageDefaultIcEEEE
EHb:__ZN19SkinnedMeshRenderer13AwakeFromLoadE17AwakeFromLoadMode
crh:_X509Chain_PrepareForNextCertificate_m3691934993
Lyb:__ZNK12CubemapArray13GetIsReadableEv
u_b:__Z18Transfer_BlittableI18StreamedBinaryReadILb1EELb1EtEvRK29SerializationCommandArgumentsR31RuntimeSerializationCommandInfo
jzl:__ZL57X509Certificate_t713131622_CustomAttributesCacheGeneratorP21CustomAttributesCache
BGb:__ZN12BoneWeights48TransferI19StreamedBinaryWriteILb0EEEEvRT_
pKa:__ZN9GfxDevice20DeallocRenderSurfaceEP17RenderSurfaceBase
Hbd:__ZN5physx6shdfnd5ArrayIPvNS0_19ReflectionAllocatorINS_18NpArticulationLinkEEEE4copyINS0_15InlineAllocatorILj256ES5_EEEEvRKNS1_IS2_T_EE
TRa:__ZN20GpuProgramParameters36UpdatePrepareValuesMaximumBufferSizeEv
WOc:__ZNK5physx3Cct10Controller12getKineShapeEv
vZg:_SimpleCollator_GetContraction_m2205549079
d3j:_EqualityComparer_1_get_Default_m168544645_gshared
CRg:_ReadOnlyCollection_1_System_Collections_IList_get_IsReadOnly_m3888539454_gshared
Bvc:__Z53Register_UnityEngine_Quaternion_INTERNAL_CALL_Inversev
$3c:__ZN5physx6shdfnd4sortIPvNS0_4LessIS2_EENS0_19ReflectionAllocatorINS_2Sc18TriggerInteractionEEEEEvPT_jRKT0_RKT1_j
GZf:_Array_InternalArray__ICollection_CopyTo_TisDecimal_t2948259380_m2749946216_gshared
cih:_ReceiveRecordAsyncResult_get_ResultingBuffer_m1839161335
$rb:__ZN12BaseRenderer23RendererBecameInvisibleEv
zAd:__ZNK5physx2Sc8BodyCore14getMaxAngVelSqEv
iXj:_EnvoyInfo__ctor_m276600651
Fqe:__ZN20TextRenderingPrivate8FontImpl13CharacterInfo8TransferI18StreamedBinaryReadILb0EEEEvRT_
$Xb:__Z29Transfer_Blittable_ArrayFieldI24GenerateTypeTreeTransferfEvRT_R9ArrayInfoRK23StaticTransferFieldInfo
bBl:__ZL113SecurityException_t975544473_CustomAttributesCacheGenerator_SecurityException_t975544473____Demanded_PropertyInfoP21CustomAttributesCache
Jjb:__ZN19CustomRenderTexture9AddParentE4PPtrIS_E
XBb:__ZN8Gradient8TransferI14SafeBinaryReadEEvRT_
u1e:_Single_System_IConvertible_ToUInt64_m3299129161_AdjustorThunk
Nva:__ZNSt3__26vectorIN4core12basic_stringIcNS1_20StringStorageDefaultIcEEEE13stl_allocatorIS5_L18MemLabelIdentifier1ELi16EEE7reserveEj
WFh:_ValueCollection_System_Collections_Generic_ICollectionU3CTValueU3E_Contains_m3110959791_gshared
Pph:_IPv6Address_AsIPv4Int_m844941024
JFa:__ZN18IDCollectorFunctorD0Ev
IYd:__ZN5physx2Gu32PCMConvexVsMeshContactGeneration15processTriangleEPKNS_6PxVec3EjhPKj
aCf:_SortedList_GetEnumerator_m772783392
owi:_StringBuilder__ctor_m3504405255
ATj:_Marshal__cctor_m4007734770
r0k:_GC_new_free_list_inner
Z3g:_SymmetricTransform_Random_m2004892672
FEk:__ZN15dense_hashtableINSt3__24pairIK10KeyWrapperINS1_IPK10MethodInfoP11Il2CppClassEEEjEES9_17ReflectionMapHashIS8_EN14dense_hash_mapIS9_jSD_NS9_14EqualsComparerINS0_8equal_toIS8_EEEENS0_9allocatorISB_EEE9SelectKeyESI_SK_E5clearEv
o$h:__Z79RuntimeInvoker_Void_t1185182177_RuntimeObject_Byte_t1134296376_Byte_t1134296376PFvvEPK10MethodInfoPvPS4_
Nah:_EncryptedPrivateKeyInfo_get_IterationCount_m2912222740
t0j:_EqualityComparer_1_System_Collections_IEqualityComparer_Equals_m3876978661_gshared
orl:__ZL72RuntimeCompatibilityAttribute_t1169614002_CustomAttributesCacheGeneratorP21CustomAttributesCache
BTj:_Marshal_copy_to_unmanaged_m3612458659
dik:__ZL24UnresolvedVirtualCall_70P12Il2CppObjectPK10MethodInfo
Otl:__ZL63PathTooLongException_t2919094560_CustomAttributesCacheGeneratorP21CustomAttributesCache
k0d:__ZN5physx6shdfnd5ArrayINS_2Cm8Matrix34ENS0_19ReflectionAllocatorIS3_EEE15growAndPushBackERKS3_
ebh:_RSAManaged_DecryptValue_m1804388365
PYd:__ZN5physx2Gu32PCMConvexVsMeshContactGeneration31generatePolyDataContactManifoldERNS0_9TriangleVEjjhPNS0_21MeshPersistentContactERjRKNS_6shdfnd3aos6FloatVERNS8_5Vec3VE
FEj:_InternalEnumerator_1_System_Collections_IEnumerator_get_Current_m2980550840_AdjustorThunk
sce:__ZN5physx10SubSortSAH5splitEPjj
RI:__ZN25RuntimeAnimatorController8TransferI14SafeBinaryReadEEvRT_
gLc:__ZN8JSONRead8TransferI10RectOffsetEEvRT_PKc17TransferMetaFlagsb
zQk:__ZNK15dense_hashtableINSt3__24pairIK10KeyWrapperINS1_IPKcS4_EEEiEES6_24NamespaceAndNamePairHashN14dense_hash_mapIS6_iS9_NS6_14EqualsComparerI26NamespaceAndNamePairEqualsEENS0_9allocatorIS8_EEE9SelectKeyESD_SF_E12test_deletedERK24dense_hashtable_iteratorIS8_S6_S9_SH_SD_SF_E
C2:__ZN9JSONWrite8TransferIN11UnityEngine15CloudWebService14DataErrorEvent15FileErrorDetailEEEvRT_PKc17TransferMetaFlags
CJg:_Collection_1_ClearItems_m2728738230_gshared
$cg:_Int32_Parse_m2087562008
uFa:__Z21ClearFenceWithoutSyncR8JobFence
pUc:__ZN5physx2Gu3EPA8addFacetEjjjRKNS_6shdfnd3aos6FloatVES6_
S9i:_MonoProperty_GetAccessors_m412928203
M7j:_TweenRunner_1_Start_m3757154622_gshared
HV:__ZN12SoundManager20RegisterModifiedClipEP10SampleClip
Mni:_RemotingServices_GetClientChannelSinkChain_m1499550585
pPf:_Environment_ReadXdgUserDir_m2654856189
vHb:__ZN12MeshRenderer15AddAsRenderNodeER15RenderNodeQueueRK20DeprecatedSourceData
Jxj:_ScrollRect_get_decelerationRate_m74583805
AYe:_SHA384Managed_processBlock_m1272529332
ezi:_Interlocked_CompareExchange_m3023855514
xck:_Enumerator__ctor_m40451936_gshared
zvf:_Char_ToString_m278452217_AdjustorThunk
Z$c:__ZN5physx3Cct9CCTParamsC2Ev
Ngm:_StateMachineBehaviour_OnStateUpdate_m2646522620
hrk:__ZN15dense_hashtableI10KeyWrapperIPK17Il2CppGenericInstES4_N6il2cpp8metadata21Il2CppGenericInstHashEN14dense_hash_setIS4_S7_NS4_14EqualsComparerINS6_24Il2CppGenericInstCompareEEENSt3__29allocatorIS4_EEE8IdentityESB_SE_E13set_empty_keyERKS4_
VPh:__Z63RuntimeInvoker_Char_t3634460470_Int16_t2552820387_RuntimeObjectPFvvEPK10MethodInfoPvPS4_
yFf:_Convert_ToDouble_m2924063577
lqd:__ZN5physx7NpCloth21setStiffnessFrequencyEf
Yma:__ZNK20LocalFileSystemPosix8IsHiddenERK13FileEntryData
kRd:__ZN5physx17PxcSweepBoxConvexERKNS_11PxsCCDShapeES2_PKNS_12PxsRigidBodyES5_RKNS_11PxTransformES8_S8_S8_fRNS_6PxVec3ESA_RNS_10PxcNpCacheERNS_18PxcNpThreadContextEf
E8d:__ZThn8_N5physx2Gu11HeightField14onRefCountZeroEv
t3c:__ZN5physx2Sc5Actor9setActiveEbj
WOj:_InternalEnumerator_1_System_Collections_IEnumerator_Reset_m1601477281_AdjustorThunk
ESc:__ZN12_GLOBAL__N_127SphereMeshContactGeneration15processTriangleEjRKN5physx6PxVec3ES4_S4_PKj
JFh:_ValueCollection_System_Collections_Generic_ICollectionU3CTValueU3E_Remove_m3673494156_gshared
jQl:__ZL107Collision_t4262080450_CustomAttributesCacheGenerator_Collision_t4262080450____frictionForceSum_PropertyInfoP21CustomAttributesCache
jzb:__ZN7Cubemap23VirtualRedirectTransferER18StreamedBinaryReadILb0EE
pim:_TextEditor_MoveCursorToPosition_m65079273
emm:_Vector4_set_Item_m2494924945_AdjustorThunk
Odj:_AnimationMixerPlayable_Equals_m1086302699
yvc:__ZNSt3__27__sort4IRNS_6__lessI11KeyframeTplIfES3_EEPS3_EEjT0_S7_S7_S7_T_
HCe:_Read_CVT
P3c:__ZN5physx2Sc10NPhaseCore28reserveContactReportPairDataEjjRj
rqj:_Component_SendMessage_m2000862420
VSc:__ZN5physx2Gu22barycentricCoordinatesERKNS_6shdfnd3aos5Vec3VES5_S5_RNS2_6FloatVE
BYa:__ZN12FileAccessor4SeekEx10FileOrigin
VWb:__ZL26Transfer_SimpleNativeClassI24GenerateTypeTreeTransfer17AnimationCurveTplIfELb0EEvRK29SerializationCommandArgumentsR31RuntimeSerializationCommandInfo
SEf:_Convert_ToDecimal_m1783778724
luf:_Byte_ToString_m4063101981_AdjustorThunk
dBb:__ZN24GenerateTypeTreeTransfer8TransferI13dynamic_arrayI33EnlightenTerrainChunksInformationLj4EEEEvRT_PKc17TransferMetaFlags
Q5f:_DateTimeFormatInfo__ctor_m3106345035
Q$j:_EqualityComparer_1_System_Collections_IEqualityComparer_GetHashCode_m4137147946_gshared
Mae:__ZL18TestUnifiedNormalsjPKN5physx6PxVec3EjPNS_2Gu9TriangleTIjEEb
nha:__ZN16LightmapSettings20DidChangeActiveSceneEP10UnitySceneS1_
Kam:__ZL59g_AssemblyU2DCSharp_Assembly_CustomAttributesCacheGeneratorP21CustomAttributesCache
tyk:__ZN6il2cpp5utils9PathUtils8BasenameIcEENSt3__212basic_stringIT_NS3_11char_traitsIS5_EENS3_9allocatorIS5_EEEERKSA_
YW:__ZN10AudioMixer11SetupGroupsEv
VCc:__Z35Register_UnityEngine_Event_get_typev
Wcj:_AnimationClipPlayable_INTERNAL_CALL_GetApplyFootIKInternal_m471142636
DNk:__ZN6il2cpp2vm9Exception23GetInvalidCastExceptionERKNS_5utils10StringViewIDsEE
q5l:__ZL64Scrollbar_t1494447233_CustomAttributesCacheGenerator_m_DirectionP21CustomAttributesCache
n7d:__ZNK5physx13GuMeshFactory17getNbConvexMeshesEv
Oxl:__ZL48Header_t549724581_CustomAttributesCacheGeneratorP21CustomAttributesCache
r6h:__Z36RuntimeInvoker_EventType_t3528516131PFvvEPK10MethodInfoPvPS4_
eba:__Z63ThreadAndSerializationSafeCheckGetMonoBehaviourBeingTransferredv
aNf:_StackTrace__ctor_m206492268
Vug:_List_1_set_Item_m4224739467_gshared
gSh:__Z74RuntimeInvoker_Int32_t2950945753_RuntimeObject_RuntimeObject_RuntimeObjectPFvvEPK10MethodInfoPvPS4_
B1i:_ConstructorBuilder_get_Name_m2426555260
fvc:__Z37Register_UnityEngine_Input_GetAxisRawv
dhl:_Material_GetTexture_m2584124112
IGl:__ZL80ModulusRing_t596511505_CustomAttributesCacheGenerator_ModulusRing_Pow_m729002192P21CustomAttributesCache
Udm:_RectTransform_set_offsetMax_m2352202302
bOi:_Parser_ParseCharacterClass_m4285351396
$ck:_Enumerator_System_Collections_IEnumerator_get_Current_m1643543708_AdjustorThunk
GGf:_Convert_ToSByte_m2653418303
UAf:_SyncHashtable__ctor_m2449935938
VKk:__ZN24dense_hashtable_iteratorINSt3__24pairIK10KeyWrapperINS1_IP11Il2CppClassjEEES4_EES6_N6il2cpp8metadata14ArrayClassHashEN14dense_hash_mapIS6_S4_SB_NS6_14EqualsComparerINSA_17ArrayClassCompareEEENS0_9allocatorIS8_EEE9SelectKeyESF_SH_E30advance_past_empty_and_deletedEv
Cti:_AsymmetricSignatureFormatter__ctor_m3278494933
NXe:_RSAPKCS1SignatureFormatter_SetKey_m2935054088
UEb:__ZN14Texture2DArray23VirtualRedirectTransferER18StreamedBinaryReadILb0EE
Zxi:_UTF7Encoding_GetByteCount_m209415911
B8b:__ZN2UI13RectTransform13AwakeFromLoadE17AwakeFromLoadMode
JQi:_RegularExpression_Compile_m2385682508
nQf:_CompareInfo__cctor_m1837489679
W1d:__ZN5physx23PxsSolverSetupSolveTaskD2Ev
Vab:__ZN14qsort_internal30FindAndMovePivotToLastPositionIP20ShadowCasterSortDatai26ShadowCasterSortDataSorterEEvT_S4_T0_T1_
Nrk:__ZNK15dense_hashtableI10KeyWrapperIPK19Il2CppGenericMethodES4_N6il2cpp8metadata23Il2CppGenericMethodHashEN14dense_hash_setIS4_S7_NS4_14EqualsComparerINS6_26Il2CppGenericMethodCompareEEENSt3__29allocatorIS4_EEE8IdentityESB_SE_E3endEv
rRb:__Z18Transfer_BlittableI14SafeBinaryReadLb1EiEvRK29SerializationCommandArgumentsR31RuntimeSerializationCommandInfo
MGh:_ValueCollection_System_Collections_Generic_IEnumerableU3CTValueU3E_GetEnumerator_m3200568681_gshared
UIi:_X509ExtensionEnumerator_get_Current_m256207749
Mek:_Predicate_1__ctor_m3829092036_gshared
gGa:__ZN17PersistentManager13GetAllFileIDsERKN4core12basic_stringIcNS0_20StringStorageDefaultIcEEEER13dynamic_arrayIxLj8EE
Fqf:_Array_Sort_m182264525
Vnf:_LayoutGroup_set_padding_m282562135
Kec:__Z13TransformAABBRK4AABBRK8Vector3fRK11QuaternionfRS_
pMl:__ZL76Input_t1431474628_CustomAttributesCacheGenerator_Input_GetAxisRaw_m423811834P21CustomAttributesCache
TFg:_Collection_1_System_Collections_IList_get_IsReadOnly_m773226719_gshared
e0i:_Default_IsArrayAssignable_m953489228
Y9k:_GUIStyle_INTERNAL_CALL_Internal_Draw2_m1777082770
Ozk:_il2cpp_field_get_offset
NEi:_UInt16_ToString_m355311020_AdjustorThunk
HVe:_RC2__ctor_m1146135664
Qum:dynCall_vifiiiiiiiiiiiiiiiiiiiiiii
ahe:__ZN14SphereColliderD0Ev
DWc:__ZN5physx2Gu18gjkRelativeRayCastINS0_4BoxVES2_NS0_10ShrunkBoxVES3_EEbRT_RT0_RKNS_6shdfnd3aos15PsMatTransformVERKNS9_6FloatVERKNS9_5Vec3VESI_RSD_RSG_SK_fb
cXj:_SynchronizedClientContextSink__ctor_m4129963630
il:_glGetStringi
L4e:_DecoderExceptionFallback_CreateFallbackBuffer_m1133375601
VRk:__ZNK15dense_hashtableI10KeyWrapperIP18Il2CppGenericClassES3_N6il2cpp8metadata22Il2CppGenericClassHashEN14dense_hash_setIS3_S6_NS3_14EqualsComparerINS5_25Il2CppGenericClassCompareEEENSt3__29allocatorIS3_EEE8IdentityESA_SD_E10test_emptyERK30dense_hashtable_const_iteratorIS3_S3_S6_SF_SA_SD_E
wN:__ZZN8Animator15InitializeClassEvEN43FunctorImpl_420kDidModifyAnimatorController4CallEPviR11MessageData
Zzh:_Enumerator_get_CurrentKey_m889650866_gshared
Uud:__ZN5physx22NpParticleBaseTemplateINS_15PxParticleFluidENS_15NpParticleFluidEE14setRestitutionEf
nFb:__ZN18StreamedBinaryReadILb0EE21TransferSTLStyleArrayI13dynamic_arrayI8Vector4fLj4EEEEvRT_17TransferMetaFlags
Hxh:_Comparer_1_get_Default_m1513846993_gshared
V7d:__ZThn8_N5physx2Gu10ConvexMeshD0Ev
TBg:_List_1_System_Collections_IList_Remove_m997133631_gshared
s3l:__ZL67OptionDataList_t1438173104_CustomAttributesCacheGenerator_m_OptionsP21CustomAttributesCache
sOd:__ZNK5physx2Sq12BucketPruner7raycastERKNS_6PxVec3ES4_RfRNS0_14PrunerCallbackE
o3:__ZN11UnityEngine15CloudWebService20WebRequestRestClient18GetResponseHeadersEv
rkc:__ZN16PropertyAccessorC2Ev
gDb:__ZNSt3__23mapIN4core12basic_stringIcNS1_20StringStorageDefaultIcEEEE9PrefValueNS_4lessIS5_EENS_9allocatorINS_4pairIKS5_S6_EEEEEixERSB_
Q_b:__Z35Transfer_Blittable_FixedBufferFieldI18StreamedBinaryReadILb1EEaEvRK29SerializationCommandArgumentsR31RuntimeSerializationCommandInfo
Sjc:__ZN15DirectorManager22ConstructPlayableGraphEv
Mqh:_U3CBeginAuthenticateAsClientU3Ec__AnonStorey7_U3CU3Em__8_m3748334000
coj:_CanvasRenderer_INTERNAL_CALL_EnableRectClipping_m1902636664
eNc:__Z41Register_UnityEngine_JsonUtility_FromJsonv
jsj:_Event_Init_m3976072405
lma:__ZN13ScreenManager16SetScreenTimeoutEi
EVb:__Z18Transfer_BlittableI17RemapPPtrTransferLb0EdEvRK29SerializationCommandArgumentsR31RuntimeSerializationCommandInfo
YGg:_Collection_1_ConvertItem_m1743542180_gshared
Yvk:_scan_tree
OEe:__Z38Register_UnityEngine_Font_HasCharacterv
vnh:_DeflateStream_get_CanWrite_m4292365324
Kii:__Z68RuntimeInvoker_Boolean_t97287965_Int16_t2552820387_Int16_t2552820387PFvvEPK10MethodInfoPvPS4_
cfb:__Z35IntersectSpherePlaneBoundsOptimizedRKN4math7_float4EPS1_i
ZWe:_RNGCryptoServiceProvider__cctor_m3587754670
L1c:__ZN5physx2Sc8ShapeSim20createLowLevelVolumeEjRKNS_9PxBounds3EjNS_9AABBMgrIdE
SJj:_InternalEnumerator_1_MoveNext_m1728532725_AdjustorThunk
K_j:_X509Crl_get_IssuerName_m1792797338
Vtg:_List_1_get_Count_m241572196_gshared
fR:__Z100Register_UnityEngine_Animations_AnimatorControllerPlayable_INTERNAL_CALL_GetAnimatorClipInfoInternalv
hVk:__ZN6il2cpp2os5posix15PosixWaitObject13InterruptWaitEv
qqd:__ZNK5physx7NpCloth22getAngularInertiaScaleEv
bx:__ZN7mecanim6memory16ChainedAllocator10DeallocateEPv
qYc:__ZN26IntersectAnyVsMeshCallbackILi1ELb1EE10processHitERKN5physx12PxRaycastHitERKNS1_6PxVec3ES7_S7_RfPKj
Yhl:_Mesh_SetTrianglesImpl_m1411542981
rxj:_U3CClickRepeatU3Ec__Iterator0_System_Collections_Generic_IEnumeratorU3CobjectU3E_get_Current_m1221525672
Pga:__Z22CleanupLODGroupManagerPv
IJd:__ZN5physx6shdfnd5ArrayINS_2Sc5Scene14SimpleBodyPairENS0_19ReflectionAllocatorIS4_EEE8recreateEj
Sl:_glUniform3fv
aNb:__ZNSt3__218__insertion_sort_3IRN15ResourceManager10Dependency6SorterEPS2_EEvT0_S6_T_
SDe:_UNITY_FT_Init_Class_tt_service_gx_multi_masters
Lrh:_X509ChainElement_Set_m655180762
AIl:__ZL69Uri_t100236324_CustomAttributesCacheGenerator_U3CU3Ef__switchU24map12P21CustomAttributesCache
A9a:__ZNK16LightmapSettings31GetRealtimeLightmapDecodeValuesEv
wX:__ZN5audio5mixer12SetSuspendedERNS0_16AudioMixerMemoryEb
wBa:__ZN17PersistentManager21UnloadNonDirtyStreamsEv
nxi:_UnicodeDecoder__ctor_m3606046165
d9j:_Object_Instantiate_TisRuntimeObject_m1135049463_gshared
oXh:__Z96RuntimeInvoker_Int32_t2950945753_RuntimeObject_Int32_t2950945753_RuntimeObject_Int32_t2950945753PFvvEPK10MethodInfoPvPS4_
mtj:_InvokableCallList_PrepareInvoke_m839457961
EAi:_Scheduler__ctor_m3313141270
mjm:_TextGenerator_get_lines_m2154533872
j3a:__ZN12ImageFilters4BlitER17ShaderPassContextP7TextureP13RenderTextureiPK18SharedMaterialDataPKcP6ShaderiNS_9BlitFlagsE11CubemapFaceRK8Vector2fSH_
i3e:_String_LastIndexOf_m3451222878
O6l:__ZL69CanvasScaler_t2767979955_CustomAttributesCacheGenerator_m_ScaleFactorP21CustomAttributesCache
mVj:_ConfigHandler_CheckPath_m3079311646
c3:__ZN11UnityEngine15CloudWebService10RestClientINS0_23WebRequestRestHeaderMapEED2Ev
W4d:__ZN5physx2Sc5Scene13ccdBroadPhaseEPNS_10PxBaseTaskE
nm:_emscripten_glDepthMask
KYd:__ZN5physx2Gu24PCMMeshContactGeneration15processContactsEhb
Joi:_RemotingServices_CreateClientProxy_m3886727610
qQa:__ZN4crnd25static_huffman_data_model22prepare_decoder_tablesEv
Llj:_PCMSetPositionCallback_Invoke_m3905727039
gAb:__ZN9Texture2D23VirtualRedirectTransferER17RemapPPtrTransfer
wfc:__ZN16ReflectionProbesD2Ev
Njj:_AssetBundleRequest_t699759206_marshal_pinvoke
XMh:_DefaultComparer__ctor_m1292755885_gshared
Dhh:_RecordProtocol_GetMessage_m2086135164
Vla:__ZL22CleanupUnityWebStreamsPv
I0b:__Z18Transfer_BlittableI18StreamedBinaryReadILb0EELb0E10ColorRGBAfEvRK29SerializationCommandArgumentsR31RuntimeSerializationCommandInfo
Esj:_Event_get_character_m2243045319
sha:__Znaj
_Cm:_emscripten_glEnableClientState__wrapper
A$l:__ZL60PlayableBehaviour_t4203540982_CustomAttributesCacheGeneratorP21CustomAttributesCache
FWk:__ZN6il2cpp2os10ThreadImpl2IdEv
k8:__ZN17MessageIdentifierC2EPKcNS_7OptionsEPKN5Unity4TypeES1_
XPh:__Z45RuntimeInvoker_Void_t1185182177_RuntimeObjectPFvvEPK10MethodInfoPvPS4_
_Yl:__ZL99GUIUtility_t1868551600_CustomAttributesCacheGenerator_GUIUtility_Internal_SetHotControl_m1135012067P21CustomAttributesCache
zQ:__Z76AnimatorControllerPlayable_CUSTOM_INTERNAL_CALL_CrossFadeInFixedTimeInternalR9HPlayableifif
akm:_TrackedReference_t1199777556_marshal_pinvoke
j1e:_Single_System_IConvertible_ToSByte_m1208276900
K0f:_Array_InternalArray__set_Item_TisVector4_t3319028937_m757305038_gshared
Vrb:__ZN11GameManager15ThreadedCleanupEv
zVh:__Z105RuntimeInvoker_Void_t1185182177_RuntimeObject_RuntimeObject_RuntimeObject_RuntimeObject_Int32_t2950945753PFvvEPK10MethodInfoPvPS4_
ZSd:__ZN5physxL26solveFriction4_StaticBlockEPKNS_23PxcSolverConstraintDescERNS_16PxcSolverContextE
n$f:_Array_InternalArray__Insert_TisContactPoint_t3758755253_m151422964_gshared
WWh:__Z49RuntimeInvoker_StreamingContextStates_t3580100459PFvvEPK10MethodInfoPvPS4_
LRh:__Z38RuntimeInvoker_UIntPtr_t_RuntimeObjectPFvvEPK10MethodInfoPvPS4_
qqb:__ZN14SafeBinaryRead8TransferI14ConstantStringEEvRT_PKc17TransferMetaFlags
DXd:__ZN5physx30PxcGetMaterialShapeHeightFieldEPKNS_12PxsShapeCoreES2_RNS_18PxcNpThreadContextEPNS_15PxsMaterialInfoE
Ssa:__ZNK6Camera16GetStereoEnabledEv
R1l:__ZL106PointerEventData_t3807901092_CustomAttributesCacheGenerator_PointerEventData_get_worldPosition_m1195452383P21CustomAttributesCache
v_h:__Z72RuntimeInvoker_Int32_t2950945753_TimeSpan_t881159249_TimeSpan_t881159249PFvvEPK10MethodInfoPvPS4_
gih:_SendRecordAsyncResult_SetComplete_m153213906
ku:__ZN13AnimationClip9PPtrCurveaSERKS0_
vWi:_CookieException__ctor_m1859153552
ggc:__ZN12LightManager15InitializeClassEv
HHb:__ZN19SkinnedMeshRenderer23VirtualRedirectTransferER19StreamedBinaryWriteILb0EE
Sta:__ZN9ShaderLab11shaderprops16GetComputeBufferEPK19ShaderPropertySheetS3_NS_16FastPropertyNameE
jaa:__ZN18ScriptingArgumentsC2Ev
EIh:_Dictionary_2_System_Collections_IDictionary_get_Item_m1524611028_gshared
Pam:__ZL96LoginManager_t1249555276_CustomAttributesCacheGenerator_LoginManager_U3CStartU3Em__1_m4021282968P21CustomAttributesCache
kgk:_UnityAction_1_Invoke_m286788042_gshared
bym:_emscripten_glBlendFuncSeparate__wrapper
nVi:_MessageEventArgs_get_Data_m1965083200
bXl:__ZL68GUISettings_t1774757634_CustomAttributesCacheGenerator_m_CursorColorP21CustomAttributesCache
ngg:_FileSystemInfo__ctor_m3769019897
I8j:_Array_InternalArray__get_Item_TisContentType_t1787303396_m421427711_gshared
LNa:__Z17HasSampledTexture14GraphicsFormat13formatSupport
Q4a:__ZNK25CameraStackRenderingState27GetStereoImageEffectTextureEb
VUe:_HMACSHA384__ctor_m1677515580
VWe:_RIPEMD160Managed_J_m1336489154
cr:__ZN8Vector3f8TransferI14SafeBinaryReadEEvRT_
Tnc:__ZN13BuildSettings13GetSceneIndexERKN4core12basic_stringIcNS0_20StringStorageDefaultIcEEEE
Ep:FUNCTION_TABLE_ii
Prb:__ZN10TagManager8TransferI18StreamedBinaryReadILb0EEEEvRT_
hKg:_Collection_1_System_Collections_IList_get_IsReadOnly_m2202364665_gshared
VHc:__Z18Transfer_BlittableI9JSONWriteLb0E8BitFieldEvRK29SerializationCommandArgumentsR31RuntimeSerializationCommandInfo
qig:_MemoryStream_set_Capacity_m1773624579
FJk:__ZNK15dense_hashtableINSt3__24pairIK10KeyWrapperINS1_IP11Il2CppClassjEEES4_EES6_N6il2cpp8metadata14ArrayClassHashEN14dense_hash_mapIS6_S4_SB_NS6_14EqualsComparerINSA_17ArrayClassCompareEEENS0_9allocatorIS8_EEE9SelectKeyESF_SH_E10test_emptyEj
SCf:_GC_SuppressFinalize_m1177400158
Qb:invoke_diiii
yll:_PlayableGraph_CreateScriptOutputInternal_m2136454423
uwm:b47
vXc:__ZL17sweepVolumeVsMeshPKN5physx3Cct9SweepTestEPKNS0_11TouchedMeshERNS0_12SweptContactERKNS_6PxVec3ERKNS_10PxGeometryERKNS_11PxTransformEjPKNS_10PxTriangleEj
Z0h:__Z95RuntimeInvoker_Void_t1185182177_RuntimeObject_RuntimeObject_SByte_t1669577662_SByte_t1669577662PFvvEPK10MethodInfoPvPS4_
Gjd:__ZNK5physx12NpBatchQuery19getFilterShaderDataEv
Y$d:__ZN5physx2Gu31checkOverlapOBB_heightFieldGeomERKNS_10PxGeometryERKNS_11PxTransformERKNS0_3BoxE
Gmb:__Z24CreateDirectoryRecursiveRKN4core12basic_stringIcNS_20StringStorageDefaultIcEEEE
owm:b41
h6b:__ZN9ShaderLab20SerializedSubProgram8TransferI18StreamedBinaryReadILb0EEEEvRT_
$ih:_SslClientStream_get_HaveRemoteValidation2Callback_m2858953511
mwm:b40
$Ac:__Z22MonoGUIContentToNative18ScriptingObjectPtrR10GUIContent
lQc:__ZN5physx2Gu23findRotationMatrixFromZERKNS_6PxVec3E
Bdb:__Z9EndJobSetR8JobFence11JobPriority
Nx:__ZN26AnimatorControllerPlayable13GenerateGraphEv
qFe:__ZN2UI13CanvasManager9AddCanvasEPNS_6CanvasE
DEa:__ZN9Texture3D8TransferI19StreamedBinaryWriteILb0EEEEvRT_
V5a:__ZNK6Camera22CalculateRenderingPathEv
nJc:__ZN9JSONWrite8TransferI5RectTIfEEEvRT_PKc17TransferMetaFlags
Gzf:_Hashtable_TestPrime_m3839319309
vId:__ZN5physx13NpVolumeCache10invalidateEv
hTa:__Z13ConvertMipmap14GraphicsFormatPKvS_Pviiii
YAb:__ZN28EnlightenRendererInformation8TransferI14SafeBinaryReadEEvRT_
f5g:_PKCS12_get_IterationCount_m626423090
St:__ZN15SerializeTraitsIKN4math7_float4EE8TransferI14SafeBinaryReadEEvRS2_RT_
JVb:__ZL12InvokeMethodI17RemapPPtrTransferEvRK29SerializationCommandArgumentsR31RuntimeSerializationCommandInfo
Loh:_RemoteCertificateValidationCallback_Invoke_m3086073466
k4e:_StringComparer_Compare_m991165676
jwe:_tt_sbit_decoder_load_image
KGj:_InternalEnumerator_1_MoveNext_m3299696349_AdjustorThunk
wra:__Z14IsHalfRTFormat19RenderTextureFormat
XAg:_List_1_System_Collections_ICollection_get_IsSynchronized_m1552759297_gshared
lKk:__ZN15dense_hashtableINSt3__24pairIK10KeyWrapperIP11Il2CppClassES4_EES5_N6il2cpp8metadata16SZArrayClassHashEN14dense_hash_mapIS5_S4_SA_NS5_14EqualsComparerINS9_19SZArrayClassCompareEEENS0_9allocatorIS7_EEE9SelectKeyESE_SG_EC2EjRKSA_RKSE_RKSI_
Hud:__ZN5physx22NpParticleBaseTemplateINS_15PxParticleFluidENS_15NpParticleFluidEE12setPositionsEjRKNS_16PxStrideIteratorIKjEERKNS4_IKNS_6PxVec3EEE
y7j:_U3CStartU3Ec__Iterator0_Dispose_m261027331_gshared
mBg:_List_1_Find_m3485944732_gshared
rBc:__ZNSt3__24listIN10GUIManager12SortedScriptE11memory_poolIS2_EE6__sortI13OldSortScriptEENS_15__list_iteratorIS2_PvEESA_SA_jRT_
k2j:_EqualityComparer_1_System_Collections_IEqualityComparer_GetHashCode_m2588073987_gshared
k2c:__ZN5physx6shdfnd5ArrayIPvNS0_19ReflectionAllocatorINS_2Sc10NPhaseCore16ClothListElementEEEE15growAndPushBackERKS2_
Nri:_StreamingContext_get_State_m3338773567_AdjustorThunk
Uai:__Z72RuntimeInvoker_Boolean_t97287965_RuntimeObject_ByteU5BU5DU26_t4057885439PFvvEPK10MethodInfoPvPS4_
Xxh:_Enumerator_VerifyState_m1545185457_gshared
rdm:_RectTransform_INTERNAL_get_anchorMax_m2950850437
Rah:_PrivateKeyInfo_get_PrivateKey_m3647771102
COe:__ZN18UnityConnectClient12CloseServiceEv
Qv:__ZN13AnimationClip8TransferI17RemapPPtrTransferEEvRT_
mVb:__Z18Transfer_BlittableI17RemapPPtrTransferLb1E8BitFieldEvRK29SerializationCommandArgumentsR31RuntimeSerializationCommandInfo
eMk:__ZN6il2cpp6icalls8mscorlib6System9ThreadingL11ThreadStartEPv
tja:__ZN15DirectorManager12OnSampleTimeEv
wXf:_Array_InternalArray__IndexOf_TisMark_t3471605523_m2905388260_gshared
K5i:_TypeBuilder_check_not_created_m3652863637
_9e:_StandaloneInputModule_UpdateModule_m450861257
UVg:_ReadOnlyCollection_1_System_Collections_IList_Insert_m2928873627_gshared
aJf:_DateTime_get_UtcNow_m1393945741
C1j:_EqualityComparer_1__cctor_m314889309_gshared
psa:__ZN12CachedReader10Align4ReadEv
GNh:_DefaultComparer_GetHashCode_m556015105_gshared
uZj:_X501__cctor_m2428304915
QQh:__Z50RuntimeInvoker_Void_t1185182177_Single_t1397266774PFvvEPK10MethodInfoPvPS4_
H0l:__ZL77ExecuteEvents_t3484638744_CustomAttributesCacheGenerator_U3CU3Ef__mgU24cache1P21CustomAttributesCache
W$h:__Z70RuntimeInvoker_Boolean_t97287965_RuntimeObject_IPAddressU26_t589322682PFvvEPK10MethodInfoPvPS4_
f6h:__Z105RuntimeInvoker_Void_t1185182177_Vector2U26_t2376273893_RuntimeObject_RuntimeObject_Vector2U26_t2376273893PFvvEPK10MethodInfoPvPS4_
Upb:__ZNK9Behaviour22GetTypeVirtualInternalEv
$kd:__ZN5physx2Sc14ConstraintCore13setBreakForceEff
eQf:_CCGregorianCalendar_month_from_fixed_m4268992710
ZVf:_Array_compare_TisUICharInfo_t75501106_m1310495481_gshared
ecc:__ZNK28MonoBehaviourPropertyBinding12SetPPtrValueERKN11UnityEngine9Animation10BoundCurveEi
fgb:__Z21GetScriptingArraySize17ScriptingArrayPtr
Zpe:__ZN20TextRenderingPrivate8FontImpl8TransferI14SafeBinaryReadEEvRT_
YYh:__Z51RuntimeInvoker_UInt32_t2560061978_Double_t594665363PFvvEPK10MethodInfoPvPS4_
sgg:_EndOfStreamException__ctor_m2720774049
twa:__Z35UnityPropertySheet_MakeSortedColorsRKNSt3__23mapIN9ShaderLab16FastPropertyNameE10ColorRGBAfNS_4lessIS2_EENS_9allocatorINS_4pairIKS2_S3_EEEEEER10vector_mapIS2_S3_S5_NS6_INS7_IS2_S3_EEEEE
Z$l:__ZL81MessageTypeSubscribers_t1684935770_CustomAttributesCacheGenerator_m_messageTypeIdP21CustomAttributesCache
gIk:__ZN14dense_hash_mapI10KeyWrapperIPK10Il2CppTypeEjN6il2cpp8metadata14Il2CppTypeHashENS4_14EqualsComparerINS6_26Il2CppTypeEqualityComparerEEENSt3__29allocatorINSB_4pairIKS4_jEEEEE13set_empty_keyERSE_
hUg:_ReadOnlyCollection_1_System_Collections_IList_Clear_m4022532825_gshared
yvi:_Encoding_get_ASCII_m3595602635
Ome:__ZZN14PhysicsManager15InitializeClassEvEN63EarlyUpdatePhysicsResetInterpolatedTransformPositionRegistrator7ForwardEv
lLa:__ZN9GfxDevice17ImmediateTexCoordEifff
SQl:__ZL81Physics_t2310948930_CustomAttributesCacheGenerator_Physics_RaycastAll_m4049773700P21CustomAttributesCache
Pxe:_ft_black_new
bsj:_DrivenRectTransformTracker_Add_m4180584832
z2i:_DerivedType_GetCustomAttributes_m3536779709
cCl:__ZL93Interlocked_t2273387594_CustomAttributesCacheGenerator_Interlocked_CompareExchange_m388540288P21CustomAttributesCache
m6i:_MethodBase_get_IsAbstract_m428833029
Wqf:_AssemblyLoadEventHandler__ctor_m896828968
clm:_WorkRequest_Invoke_m2390295615_AdjustorThunk
kWb:__Z35Transfer_Blittable_FixedBufferFieldI24GenerateTypeTreeTransferhEvRK29SerializationCommandArgumentsR31RuntimeSerializationCommandInfo
Ytk:__ZN6il2cpp2vm13MetadataCache25GetMethodGenericContainerEPK10MethodInfo
Yvm:_emscripten_glUniform4f__wrapper
Mug:_List_1_Reverse_m4144036584_gshared
b9i:_MonoMethod_GetBaseDefinition_m2844667474
Kpg:_Enumerator_MoveNext_m2595190390_AdjustorThunk
Z2d:__ZN5physx6shdfnd5ArrayINS_25PxcThresholdStreamElementENS0_19ReflectionAllocatorIS2_EEE8recreateEj
u0:__Z78Register_UnityEngine_Audio_AudioPlayableOutput_INTERNAL_CALL_InternalSetTargetv
DXf:_Array_InternalArray__IndexOf_TisColor32_t2600501292_m3783551884_gshared
s8a:__ZNK6Camera16GetProjectionFarEv
ds:__Z24InverseTransformRotationRK23TransformAccessReadOnlyRKN4math7_float4E
w_j:_X509Chain_Build_m2469702749
f$e:_Evidence_get_IsSynchronized_m3446368195
Ozj:_Selectable_OnPointerEnter_m3378734298
mRe:__Z31GetPerformanceReportingSettingsv
Yxb:__ZNK14PlayableOutput11DerivesFromE17ScriptingClassPtr
IEa:__ZN7Texture34CreateFileTextureUploadInstructionE18TextureUploadFlagsj
$Ka:__ZN9GfxDevice21ResetDynamicResourcesEv
_2a:__ZN13ComputeShader14SetBufferParamEjRKN9ShaderLab16FastPropertyNameE15ComputeBufferID
Vub:__ZThn280_N31CanvasBatchIntermediateRenderer20OnAssetBoundsChangedEv
rrd:__ZN5physx7NpCloth21setCollisionMassScaleEf
l0d:__ZN5physx6shdfnd5ArrayINS_7PxPlaneENS0_19ReflectionAllocatorIS2_EEE8recreateEj
CMl:__ZL88Input_t1431474628_CustomAttributesCacheGenerator_Input_get_compositionString_m2388820371P21CustomAttributesCache
pne:__ZN13PhysicsModule17GetRigidBodyStateERK9RigidbodyPN8IPhysics14RigidBodyStateE
I5i:_TypeBuilder_DefineConstructor_m2989882735
jXl:__ZL59GUISkin_t1244372282_CustomAttributesCacheGenerator_m_toggleP21CustomAttributesCache
Kbc:__ZN19LowerResBlitTexture13ApplySettingsEv
Avg:_List_1_GetIndex_m1083466_gshared
$H:__ZN8Animator8TransferI14SafeBinaryReadEEvRT_
XJk:__ZN15dense_hashtableINSt3__24pairIK10KeyWrapperIP11Il2CppClassES4_EES5_N6il2cpp8metadata16SZArrayClassHashEN14dense_hash_mapIS5_S4_SA_NS5_14EqualsComparerINS9_19SZArrayClassCompareEEENS0_9allocatorIS7_EEE9SelectKeyESE_SG_E4swapERSJ_
grb:__ZN17GlobalGameManager23VirtualRedirectTransferER18StreamedBinaryReadILb0EE
zea:__Z23AsyncReadForceCloseFileRKN4core12basic_stringIcNS_20StringStorageDefaultIcEEEE
zy:__ZN17AnimationPlayable34CollectAnimatorControllerPlayablesER13dynamic_arrayIP26AnimatorControllerPlayableLj4EE
v$:__ZN16BaseVideoTexture19UpdateVideoTexturesEv
VMi:_PatternCompiler_EmitRange_m2566284920
Kub:__Z28BuildSingleStreamChannelInfo17ShaderChannelMaskRK20VertexChannelsLayoutS_S2_P11ChannelInfo
Lzi:_Thread_GetCachedCurrentCulture_m3435630977
fDa:__ZNK16LightmapSettings23HasLightProbeTetrahedraEv
Ple:__ZN13ProduceHelperI15CapsuleColliderLb0EE7ProduceE18MemLabelIdentifier18ObjectCreationMode
qkj:_AudioClipPlayable_GetHandle_m1347223691_AdjustorThunk
oDb:__ZN6Sprite23VirtualRedirectTransferER19StreamedBinaryWriteILb0EE
ePf:_Enum_GetHashCode_m2848082716
RJk:__ZN14dense_hash_mapI10KeyWrapperIP11Il2CppClassES2_N6il2cpp8metadata16SZArrayClassHashENS3_14EqualsComparerINS5_19SZArrayClassCompareEEENSt3__29allocatorINSA_4pairIKS3_S2_EEEEE13set_empty_keyERSD_
Q6e:_EventTrigger_Execute_m2453060771
aXg:_Comparison_1_Invoke_m517083441_gshared
jfj:_AnimatorControllerPlayable_SetFloat_m1984993338_AdjustorThunk
HXh:__Z253RuntimeInvoker_Int32_t2950945753_RuntimeObject_Int32_t2950945753_Int32_t2950945753_RuntimeObject_Int32_t2950945753_UInt32U26_t3735378166_UInt32U26_t3735378166_RuntimeObject_DecoderFallbackBufferU26_t3866396827_ByteU5BU5DU26_t4057885439_SByte_t1669577662PFvvEPK10MethodInfoPvPS4_
qmh:_NameValueCollection_Get_m1006871566
wDk:__ZNK15dense_hashtableINSt3__24pairIK10KeyWrapperINS1_IPK9FieldInfoP11Il2CppClassEEEjEES9_17ReflectionMapHashIS8_EN14dense_hash_mapIS9_jSD_NS9_14EqualsComparerINS0_8equal_toIS8_EEEENS0_9allocatorISB_EEE9SelectKeyESI_SK_E5beginEv
iua:__ZNK9ShaderLab7Program19HasMatchingVariantsERK13dynamic_arrayI16ShaderKeywordSetLj4EE
ZF:__ZN15SerializeTraitsIN4math4trsXEE8TransferI8BlobSizeEEvRS1_RT_
rOa:__ZN14DataBufferGLES11CopySubDataEPKS_jjj
Qe:_emscripten_glVertexPointer
GXa:__ZNSt3__26__treeI20DeviceDepthStateGLES11memcmp_lessIS1_S1_ENS_9allocatorIS1_EEE7destroyEPNS_11__tree_nodeIS1_PvEE
hHe:__ZN2UI13PrepareOutputERNS_7BatchesEjjNS_30AdditionalCanvasShaderChannelsE
Gyk:__ZN6il2cpp2vm7Runtime47RaiseExecutionEngineExceptionIfMethodIsNotFoundEPK10MethodInfo
KMi:_PatternCompiler_GetMachineFactory_m3758869886
Bbb:__Z17GetFrustumPortionPK8Vector3fffPS_
_4c:__ZNK5physx2Gu22SupportMapRelativeImplINS0_4BoxVEE18doWarmStartSupportEiRNS_6shdfnd3aos5Vec3VE
iPk:__ZN15dense_hashtableINSt3__24pairIK10KeyWrapperIP14Il2CppIUnknownEjEES5_N6il2cpp5utils11PointerHashIS3_EEN14dense_hash_mapIS5_jSB_NS5_14EqualsComparerINS0_8equal_toIS4_EEEENS0_9allocatorIS7_EEE9SelectKeyESG_SI_E14squash_deletedEv
f7e:_EventTrigger_OnCancel_m585099428
UAl:__ZL107CodeAccessPermission_t2681295399_CustomAttributesCacheGenerator_CodeAccessPermission_GetHashCode_m880096813P21CustomAttributesCache
a0i:_Default_check_arguments_m3882727959
Cki:_MethodDictionary_set_MethodKeys_m1451825752
qsi:_RuntimeTypeHandle_Equals_m2857439487_AdjustorThunk
arh:_PublicKey_get_Key_m3077215602
Rak:_KeyValuePair_2_get_Value_m3464904234_AdjustorThunk
oRg:_ReadOnlyCollection_1_System_Collections_Generic_IListU3CTU3E_set_Item_m88350439_gshared
yJl:__ZL109AsyncOperation_t1445031843_CustomAttributesCacheGenerator_AsyncOperation_set_allowSceneActivation_m1319035743P21CustomAttributesCache
wYg:_Func_3_Invoke_m1194147890_gshared
oPi:_Reference_Compile_m4195878675
CTg:_ReadOnlyCollection_1_System_Collections_ICollection_CopyTo_m2672196987_gshared
$1e:_String_System_IConvertible_ToChar_m863771412
oR:__Z90Register_UnityEngine_Animations_AnimatorControllerPlayable_INTERNAL_CALL_CrossFadeInternalv
smm:_Vector4_ToString_m592115335_AdjustorThunk
I_c:__ZN5physx3Cct10Controller13onOriginShiftERKNS_6PxVec3E
Lvf:_ArrayList__ctor_m3828927650
JUa:__ZN10Matrix3x3f15InvertTransposeEv
Kaj:_PropertyInfo_SetValue_m2777755129
n0e:_SecurityException_get_Demanded_m2500043391
NJi:_CaptureCollection_GetEnumerator_m732412500
gkj:_DefaultExecutionOrder_get_order_m2144583152
nOb:__ZN24GenerateTypeTreeTransfer8TransferINSt3__26vectorIN4core12basic_stringIcNS3_20StringStorageDefaultIcEEEE13stl_allocatorIS7_L18MemLabelIdentifier12ELi16EEEEEEvRT_PKc17TransferMetaFlags
HRd:__ZN5physx2Gu19_gjkRelativeRayCastINS0_9TriangleVENS0_11ConvexHullVEEEbRT_RT0_RKNS_6shdfnd3aos15PsMatTransformVERKNS9_6FloatVERKNS9_5Vec3VESI_RSD_RSG_SK_f
rUb:__Z29Transfer_Blittable_ArrayFieldI14SafeBinaryRead8Vector3fEvRT_R9ArrayInfoRK23StaticTransferFieldInfo
Wrh:_X509Chain_GetAuthorityKeyIdentifier_m2237883181
Tyl:__ZL62IFormatterConverter_t2171992254_CustomAttributesCacheGeneratorP21CustomAttributesCache
XDl:__ZL78Convert_t2465617642_CustomAttributesCacheGenerator_Convert_ToSByte_m4075629912P21CustomAttributesCache
ini:_SoapTypeAttribute_get_XmlTypeNamespace_m4211398148
Rqe:__ZN20TextRenderingPrivate8FontImpl18ResetCachedTextureEv
h3k:_GC_stop_world_external
UWd:__ZNK5physx19ActorAABBUpdateTask7getNameEv
ZIi:_X509KeyUsageExtension_Decode_m3150759625
$0k:_GC_print_finalization_stats
$sa:__ZN11NamedObject15ThreadedCleanupEv
BSk:__ZNSt3__26__treeINS_12__value_typeIjN6il2cpp2os17SocketHandleEntryEEENS_19__map_value_compareIjS5_NS_4lessIjEELb1EEENS_9allocatorIS5_EEE16__insert_node_atEPNS_16__tree_node_baseIPvEERSG_SG_
fsc:__Z53Register_UnityEngine_Behaviour_get_isActiveAndEnabledv
Nqf:_SimpleEnumerator_get_Current_m72361444
Ir:__ZNSt3__26vectorIN4core12basic_stringIcNS1_20StringStorageDefaultIcEEEENS_9allocatorIS5_EEE8__appendEj
uWh:__Z119RuntimeInvoker_RuntimeObject_Byte_t1134296376_RuntimeObject_SByte_t1669577662_RuntimeObject_RuntimeObject_RuntimeObjectPFvvEPK10MethodInfoPvPS4_
yMb:__ZN26PlayerSettingsSplashScreen8TransferI17RemapPPtrTransferEEvRT_
z0g:_ASN1_set_Value_m2803403806
pxk:__ZN6il2cpp6icalls8mscorlib6SystemL17CollectTypeFieldsINS_5utils10functional10TrueFilterEEEvP11Il2CppClassPKS7_iRNSt3__26vectorIP9FieldInfoNSB_9allocatorISE_EEEERKT_
nRh:__Z52RuntimeInvoker_Int16_t2552820387_Decimal_t2948259380PFvvEPK10MethodInfoPvPS4_
A5c:__ZN5physx3Scb5Scene20addArticulationJointERNS0_17ArticulationJointE
rGd:__ZN5physx7NpScene14resetFilteringERNS_12PxRigidActorEPKPNS_7PxShapeEj
_9b:__Z13GetTagManagerv
zzf:_Hashtable__ctor_m1815022027
brj:_Native_CSSNodeMeasureInvoke_m991992539
Zfk:_InvokableCall_2_Invoke_m4103345430_gshared
uyi:_UTF8Encoding_GetChars_m1433288684
Zhm:_TextEditor_DeleteLineBack_m1320598486
M$l:__ZL82Logger_t274032455_CustomAttributesCacheGenerator_Logger_get_logEnabled_m1127371265P21CustomAttributesCache
Ilk:__ZL10roundUp128PyS_
l1:__ZN11UnityEngine15CloudWebService17CloudJobSchedulerD0Ev
xPh:__Z50RuntimeInvoker_Boolean_t97287965_SByte_t1669577662PFvvEPK10MethodInfoPvPS4_
Uee:__ZN15CapsuleCollider23VirtualRedirectTransferER14SafeBinaryRead
FBa:__ZN18LoadSceneOperation7PerformEv
TLd:__ZN5physx2Sc5Scene26setSimulationEventCallbackEPNS_25PxSimulationEventCallbackEh
oCi:_TimeZone_ToUniversalTime_m2789507578
MQh:__Z96RuntimeInvoker_Boolean_t97287965_RuntimeObject_RuntimeObject_Int32_t2950945753_Int32_t2950945753PFvvEPK10MethodInfoPvPS4_
GWf:_Array_IndexOf_TisUICharInfo_t75501106_m3198896198_gshared
QFe:__ZNK2UI11CanvasGroup22GetTypeVirtualInternalEv
Bfh:_Context_get_Current_m2853615040
OPc:__ZL30GeomMTDCallback_CapsuleCapsuleRN5physx6PxVec3ERfRKNS_10PxGeometryERKNS_11PxTransformES5_S8_
XGd:__ZN5physx7NpScene23forceDynamicTreeRebuildEbb
dYc:__ZL18intersectAnyVsMeshILi0EEbPKN5physx2Gu6SphereEPKNS1_7CapsuleEPKNS1_3BoxERKNS1_13RTreeMidphaseERKNS0_11PxTransformERKNS0_11PxMeshScaleEP14LimitedResults
L6f:_CultureInfo_construct_internal_locale_from_lcid_m2668301444
Xel:_GUIStyle_INTERNAL_set_contentOffset_m1976585748
sYi:_WebSocketFrame_createMaskingKey_m433765116
c0g:_PrimeGeneratorBase__ctor_m2973488305
Z9k:_GUIUtility_Internal_GetKeyboardControl_m389300845
JBc:__Z21CleanupGlobalGUIStatev
tDi:_Type_IsContextfulImpl_m3693603908
OPl:__ZL83Transform_t3600365921_CustomAttributesCacheGenerator_Transform_GetChild_m3541171965P21CustomAttributesCache
wpl:__ZL81RuntimeArray_CustomAttributesCacheGenerator_Array_GetValue_m120423883____indices0P21CustomAttributesCache
oRl:__ZL54BoxCollider_t1640800422_CustomAttributesCacheGeneratorP21CustomAttributesCache
Hw:__ZN19StreamedBinaryWriteILb0EE21TransferSTLStyleArrayI22OffsetPtrArrayTransferIN7mecanim9animation10ValueDeltaEEEEvRT_17TransferMetaFlags
qcd:__ZN5physx14NpArticulation6wakeUpEv
wOh:__Z56RuntimeInvoker_RuntimeObject_RuntimeObject_RuntimeObjectPFvvEPK10MethodInfoPvPS4_
fWa:__ZN22VertexDeclarationCache5ClearEv
Vti:_CspParameters__ctor_m3852972821
V6g:_AppDomainInitializer_EndInvoke_m2095010821
Gkb:__ZN17PersistentManager12SetPathRemapERKN4core12basic_stringIcNS0_20StringStorageDefaultIcEEEES6_
ZUi:_Logger__ctor_m116106093
VA:__Z27ProcessRootMotionEmptyMixerP35AnimationPlayableEvaluationConstantP32AnimationPlayableEvaluationInputP33AnimationPlayableEvaluationOutput
hdb:__ZN6Camera24PrepareCullingParametersERK23CameraCullingParameters13RenderingPathR11CullResults
unc:__Z12SetIUISystemP9IUISystem
RBa:__ZN19RuntimeSceneManager22EndIntegrateMainThreadEP10UnitySceneNS_11LoadingModeE
njl:__ZN21InterfaceFuncInvoker0IP34MessageTypeSubscribers_t1684935770E6InvokeEjP11Il2CppClassP12Il2CppObject
SRg:_ReadOnlyCollection_1_System_Collections_Generic_IListU3CTU3E_set_Item_m157706389_gshared
Bgl:_Keyframe_set_outTangent_m987237702_AdjustorThunk
LVb:__Z26Transfer_UnityEngineObjectI17RemapPPtrTransferLb0EEvRK29SerializationCommandArgumentsR31RuntimeSerializationCommandInfo
v9b:__ZN17WeakPtrSharedDataD0Ev
QKi:_QuickSearch_GetShiftDistance_m2542665852
p5f:_Array_InternalArray__get_Item_TisCustomAttributeTypedArgument_t2723150157_m2639399822_gshared
O_g:_BigInteger_GenerateRandom_m3141592944
UXb:__Z29Transfer_Blittable_ArrayFieldI24GenerateTypeTreeTransfer4AABBEvRT_R9ArrayInfoRK23StaticTransferFieldInfo
BSl:__ZL133AnimationClipPlayable_t3189118652_CustomAttributesCacheGenerator_AnimationClipPlayable_INTERNAL_CALL_CreateHandleInternal_m2740830665P21CustomAttributesCache
b2k:_GC_adj_bytes_allocd
nhf:_Graphic_CacheCanvas_m1120385152
NPj:_InternalEnumerator_1_MoveNext_m1262906009_gshared
Gem:_UpdatedEventHandler__ctor_m1354828285
igf:_U3CDelayedDestroyDropdownListU3Ec__Iterator0_Dispose_m100123149
U8d:__ZN5physx20InternalTriangleMesh16allocateVerticesEj
dlj:_AudioClipPlayable_ValidateStartDelayInternal_m955986484_AdjustorThunk
Qwh:_X509ChainElementCollection_System_Collections_ICollection_CopyTo_m1179155153
aVd:__ZN5physx6shdfnd5ArrayINS_17PxcBroadPhasePairENS0_19ReflectionAllocatorIS2_EEE8recreateEj
Mcc:__ZNK17AnimationCurveTplIfE20FindIndexForSamplingERKNS0_5CacheEfRiS4_
irg:_List_1_System_Collections_Generic_IEnumerableU3CTU3E_GetEnumerator_m944444416_gshared
Ja:invoke_fiiifii
Com:_modff
cHf:_Convert_ConvertToBase16_m2849966797
pWc:__ZThn4_N16RayRTreeCallbackILi1ELb0EED1Ev
Cje:__ZN5physx7profile11EventBufferINS_24PxDefaultContextProviderENS_6shdfnd6MutexTINS0_26WrapperReflectionAllocatorIhEEEENS0_14ScopedLockImplIS7_EENS_24PxProfileNullEventFilterEE9sendEventINS0_10StartEventEEEvRNS0_11EventHeaderERT_
Lsh:_Socket_get_Blocking_m140927673
mbb:__ZN20SphericalHarmonicsL219AddDirectionalLightERKN4math7_float3ERKNS0_7_float4E
C7d:__ZN5physx13BigConvexDataD2Ev
mja:__Z26ScheduleJobForEachInternalR8JobFencePFvPvjES1_iPFvS1_E11JobPriority
P0a:__ZZ23InitPlayerLoopCallbacksvEN41PostLateUpdateProfilerEndFrameRegistrator7ForwardEv
eoc:__ZN9Scripting18RaiseMonoExceptionEPKcz
$zb:__ZN9Texture2D8TransferI19StreamedBinaryWriteILb0EEEEvRT_
X_e:_StrongNamePublicKeyBlob_Equals_m3655422942
_$e:_SecurityContext__ctor_m1730177197
Ggc:__ZN9ShaderLab16FastPropertyName15InitBy28BitHashEj
Dok:__ZN6il2cpp2vm5Class7GetNameEP11Il2CppClass
lrg:_List_1_System_Collections_IList_Add_m2937161398_gshared
DJg:_Collection_1_Contains_m3960178049_gshared
bUh:__Z96RuntimeInvoker_Void_t1185182177_Int32_t2950945753_Single_t1397266774_RuntimeObject_RuntimeObjectPFvvEPK10MethodInfoPvPS4_
YPg:_ReadOnlyCollection_1_CopyTo_m3722791265_gshared
dXd:__ZN5physx20updateBodyShapeAABBsEPKjjS1_PKNS_17PxcAABBDataStaticEPNS_11IntegerAABBEj
pcc:__ZN13ProduceHelperIN2UI13RectTransformELb0EE7ProduceE18MemLabelIdentifier18ObjectCreationMode
Dyh:_Enumerator_System_Collections_IDictionaryEnumerator_get_Key_m195047678_AdjustorThunk
n8f:_DateTimeFormatInfo_get_RawAbbreviatedMonthNames_m2395953416
OFb:__ZN17PackedFloatVector12UnpackFloatsEPfiiii
cEk:__ZN30dense_hashtable_const_iteratorINSt3__24pairIK10KeyWrapperIPK10Il2CppTypeEjEES6_N6il2cpp8metadata14Il2CppTypeHashEN14dense_hash_mapIS6_jSB_NS6_14EqualsComparerINSA_26Il2CppTypeEqualityComparerEEENS0_9allocatorIS8_EEE9SelectKeyESF_SH_EppEv
y6i:_TypeBuilder_ToString_m3497908325
$D:__ZN17AnimationPlayable28UpdateInternalStateRecursiveILi3ELb0EEEvPK35AnimationPlayableEvaluationConstant
hMa:__ZN13GfxDeviceGLES21DestroyComputeProgramER12ObjectHandleI18ComputeProgram_TagPvE
eNi:_PatternCompiler_EmitIfDefined_m2075050865
iLf:_Decimal_System_IConvertible_ToInt64_m1446427516_AdjustorThunk
Tga:__ZN17UniqueIDGenerator16DestroyPureIndexEj
wog:_NotImplementedException__ctor_m3095902440
Zca:__ZL21AppendNestedClassName17ScriptingClassPtrRN4core17string_with_labelILi1EEE
X3b:__ZN14SafeBinaryRead21TransferSTLStyleArrayINSt3__26vectorIN9ShaderLab20SerializedSubProgram12UAVParameterENS1_9allocatorIS5_EEEEEEvRT_17TransferMetaFlags
U0j:_EqualityComparer_1__ctor_m3365041213_gshared
Xll:_PlayableHandle_SetPlayState_m1282700438_AdjustorThunk
J6:__ZNK13BaseAllocator10IsAssignedEv
u2:__ZN24TextDOMTransferWriteBaseI9JSONWriteE12PushMetaFlagEi
Yqd:__ZN5physx7NpCloth22removeCollisionCapsuleEj
gMl:__ZL98TouchScreenKeyboard_t731888065_CustomAttributesCacheGenerator_TouchScreenKeyboard_Open_m3740618662P21CustomAttributesCache
Tza:__ZN6prcoreL26RemapGenericIntegerToFloatI17TexFormatARGB888815TexFormatRFloatEEvPKNS_9InnerInfoE
z6:__ZN5Mutex6UnlockEv
tNi:_PatternCompiler_get_CurrentAddress_m295383652
yPi:__ZN23InterfaceActionInvoker4IiibP19LinkRef_t2971865410E6InvokeEjP11Il2CppClassP12Il2CppObjectiibS1_
xBk:__ZN6il2cpp2vm17TypeNameParseInfoD2Ev
t4j:_PrimeHelper_ToPrime_m3704362632_gshared
e3d:__ZN5physx18PxsSolverStartTask16articulationTaskEv
Jsj:_Event_get_commandName_m3342234398
IBb:__ZNK8Renderer8GetLayerEv
K6c:__ZN5physx6shdfnd4sortIPvNS0_4LessIS2_EENS0_19ReflectionAllocatorINS_2Cm5BlockIS2_Lj16EEEEEEEvPT_jRKT0_RKT1_j
HZc:__ZN5physx3Cct17CapsuleController18setNonWalkableModeENS_27PxControllerNonWalkableMode4EnumE
njg:_Stream_Close_m771352034
W6c:__ZN5physx2Sc11InteractionD2Ev
Ktb:__ZN12FlareManager11DeleteFlareEi
eD:__ZN7mecanim9animation22DestroyBlendTreeOutputEPNS0_15BlendTreeOutputERNS_6memory9AllocatorE
F7a:__ZNK6Camera20GetReplacementShaderEv
ykd:__ZN18MultiQueryCallbackIN5physx12PxRaycastHitEE6invokeERfPKNS0_2Sq13PrunerPayloadEj
