fd:_glClearStencil
aEi:_UInt16_System_IConvertible_ToChar_m2096055221_AdjustorThunk
pTf:_Array_TrueForAll_TisRuntimeObject_m1084992726_gshared
bVc:__ZN5physx2Gu19gjkLocalPenetrationINS0_8CapsuleVENS0_17ShrunkConvexHullVEEEjRKT_RKT0_RKNS_6shdfnd3aos6FloatVERNSB_5Vec3VESG_SG_RSC_PhSI_Rhb
ajm:_TextGenerator_GetPreferredWidth_m2934157277
m$b:__ZN18StreamedBinaryReadILb1EE21TransferSTLStyleArrayIN4core12basic_stringIcNS2_20StringStorageDefaultIcEEEEEEvRT_17TransferMetaFlags
vXk:__ZN6il2cpp2vm5Array13GetByteLengthEP11Il2CppArray
V$f:_Array_InternalArray__set_Item_TisDateTime_t3738529785_m1331437427_gshared
T4j:_KeyBuilder_get_Rng_m3373220441
l4l:__ZL102Image_t2670269651_CustomAttributesCacheGenerator_Image_t2670269651____eventAlphaThreshold_PropertyInfoP21CustomAttributesCache
cJ:__ZN10StateRange8TransferI14SafeBinaryReadEEvRT_
AQa:__Z21SourceMipLevelForBlitiiii
Rub:__ZN31CanvasBatchIntermediateRenderer15AddAsRenderNodeER15RenderNodeQueueRK20DeprecatedSourceData
s3f:_Dictionary_2_Do_ICollectionCopyTo_TisInt32_t2950945753_m2590022749_gshared
mBi:_TimeSpan_get_Hours_m550761902
Xlg:_Math_Min_m3253079129
OLd:__ZNK5physx2Sc5Scene24getContactModifyCallbackEv
jP:__ZN23AnimationOffsetPlayable11SetRotationE11Quaternionf
hx:__ZN11UnityEngine9Animation28GenericAnimationBindingCacheD2Ev
UOd:__ZN5physx2Sq10AABBPruner10addObjectsEPjPKNS_9PxBounds3EPKNS0_13PrunerPayloadEj
g$j:_X509Store_LoadCrl_m1881903843
t2f:_Array_Sort_TisUICharInfo_t75501106_TisUICharInfo_t75501106_m722747892_gshared
VSh:__Z67RuntimeInvoker_Byte_t1134296376_Int32_t2950945753_Int32_t2950945753PFvvEPK10MethodInfoPvPS4_
hc:invoke_viiiifiiiiif
ahb:__Z18RestoreRenderStateR20CameraRenderOldStateR17ShaderPassContext
z_b:__Z18Transfer_BlittableI18StreamedBinaryReadILb1EELb1E5RectTIfEEvRK29SerializationCommandArgumentsR31RuntimeSerializationCommandInfo
PWb:__Z18Transfer_BlittableI24GenerateTypeTreeTransferLb0E11ColorRGBA32EvRK29SerializationCommandArgumentsR31RuntimeSerializationCommandInfo
Gca:__Z25scripting_class_from_name17ScriptingImagePtrPKcS1_
WWf:_Array_InternalArray__IndexOf_TisKeyValuePair_2_t3699644050_m1021241249_gshared
wu:__ZNSt3__26vectorIN13AnimationClip10FloatCurveE13stl_allocatorIS2_L18MemLabelIdentifier25ELi16EEE6resizeEj
JPb:__Z29scripting_class_enum_basetype17ScriptingClassPtr
h2c:__ZN5physx6shdfnd8PoolBaseINS_2Sc10NPhaseCore16ClothListElementENS0_19ReflectionAllocatorIS4_EEE17releaseEmptySlabsEv
R5d:__ZN5physx2Sc14ConstraintCore10breakApartEv
qQh:__Z64RuntimeInvoker_RuntimeObject_Int32_t2950945753_Int16_t2552820387PFvvEPK10MethodInfoPvPS4_
Vbm:_Rect_set_y_m946788033
gbe:__ZN5physx2Gu15EdgeListBuilderC2Ev
KPj:_InternalEnumerator_1_get_Current_m1477715453_gshared
xM:__ZN18StreamedBinaryReadILb0EE21TransferSTLStyleArrayI22OffsetPtrArrayTransferIN4math8ColliderEEEEvRT_17TransferMetaFlags
Fce:__ZN5physx7Cooking20loadTriangleMeshDescERKNS_18PxTriangleMeshDescERNS_19TriangleMeshBuilderE
sJg:_Collection_1_System_Collections_IList_Remove_m1476284619_gshared
Lng:_MonoType_IsPrimitiveImpl_m2401722705
QXe:_SHA1CryptoServiceProvider__ctor_m4195188793
k5c:__ZN5physx9NpFactory21releaseConnectorArrayEPNS_16NpConnectorArrayE
Ygf:_Graphic_get_defaultGraphicMaterial_m3107284931
Pff:_Dropdown_Hide_m504034854
Vog:_NumberFormatter_NumberToString_m264078176
oSf:_Array_InternalArray__ICollection_Remove_TisLink_t3209266973_m897088622_gshared
uOa:__ZN7ApiGLES17CopyBufferSubDataEjjlll
b_f:_Array_InternalArray__ICollection_CopyTo_TisUInt64_t4134040092_m691431926_gshared
nph:_IPAddress_ToString_m1181734207
$xb:__ZNK20ScriptPlayableOutput7GetTypeEv
Iwi:_StringBuilder_Append_m1965104174
zSi:_Ext_IsHostOrder_m1193138175
P$j:_EqualityComparer_1__cctor_m3766928733_gshared
r8a:__ZN25CameraStackRenderingState20GetOrCreateBuiltinRTE24BuiltinRenderTextureTypeii17DepthBufferFormat19RenderTextureFormatj22RenderTextureReadWrite14VRTextureUsagei
Spf:_Array_GetValue_m116098292
Ycb:__ZN17PrePassRenderLoop14RenderBasePassEP13RenderTextureRK14LightingLayersR13dynamic_arrayI16RenderObjectDataLj4EERbR10MinMaxAABB
tBc:__ZN5IMGUI18RepaintModalWindowER8GUIState
Kai:__Z60RuntimeInvoker_RuntimeObject_Int16_t2552820387_RuntimeObjectPFvvEPK10MethodInfoPvPS4_
tQf:_CompareInfo_Finalize_m404687489
FDb:__Z23SetSpriteMeshIndexCountP14SharedMeshDataj
Eyi:_UTF8Decoder_GetChars_m1236346907
i$k:__GLOBAL__sub_I_Assembly_cpp_13069
mqa:__ZN7Texture13SetFilterModeEi
aZk:__ZN6il2cpp8metadata13GenericMethod9GetMethodEPK19Il2CppGenericMethod
Nr:__ZNSt3__26vectorIN4core12basic_stringIcNS1_20StringStorageDefaultIcEEEENS_9allocatorIS5_EEE7reserveEj
i0i:_Default_SelectProperty_m1220817815
koi:_RemotingConfiguration_IsRemotelyActivatedClientType_m4117048589
zSk:__ZNSt3__26__treeINS_12__value_typeIjN6il2cpp2os17SocketHandleEntryEEENS_19__map_value_compareIjS5_NS_4lessIjEELb1EEENS_9allocatorIS5_EEE25__emplace_unique_key_argsIjJNS_4pairIKjS4_EEEEENSE_INS_15__tree_iteratorIS5_PNS_11__tree_nodeIS5_PvEEiEEbEERKT_DpOT0_
iJa:__ZN13GfxDeviceGLES11SetViewportERK5RectTIiE
qkl:_Physics_Internal_Raycast_m1368166979
Zb:invoke_vifiiii
ye:_emscripten_glDepthRange
Bjh:_SslStreamBase_BeginNegotiateHandshake_m4180435790
Nuh:_TcpClient_Close_m3817529922
$Pc:__ZN5physx2Gu24contactConvexHeightfieldERKNS0_13GeometryUnionES3_RKNS_11PxTransformES6_RKfRNS0_5CacheERNS0_13ContactBufferE
N6c:__ZN5physx6shdfnd5ArrayIPvNS0_19ReflectionAllocatorINS_2Cm5BlockIS2_Lj8EEEEEE15growAndPushBackERKS2_
b4b:__Z14resize_trimmedINSt3__26vectorIN9ShaderLab20SerializedSubProgram12UAVParameterENS0_9allocatorIS4_EEEEEvRT_j
dnj:_Camera_get_main_m882983993
laf:_StandaloneInputModule_GetRawMoveVector_m2737091079
mUi:_HttpBase_readHeaders_m3126693301
Unc:__ZN13BuildSettings34ConvertScenePathToDisplayScenePathERKN4core12basic_stringIcNS0_20StringStorageDefaultIcEEEE
W5l:__ZL62Selectable_t3250028441_CustomAttributesCacheGenerator_m_ColorsP21CustomAttributesCache
bkh:_SslStreamBase_EndWrite_m4073224031
Eea:__ZNSt3__218__insertion_sort_3IRNS_6__lessI14ObjectLoadDataS2_EEPS2_EEvT0_S6_T_
_Pa:__ZN4crndL20crnd_default_reallocEPvjPjbS0_
u9k:_SkinChangedDelegate_Invoke_m2228841850
vqm:__ZNSt3__212basic_stringIcNS_11char_traitsIcEENS_9allocatorIcEEEC2ERKS5_
XWd:__ZN5physx24PxsComputeAABBLocalSpaceERKNS_18PxcAABBDataDynamicERNS_9PxBounds3E
vEb:__ZN18SpriteAtlasManager19AddRequestingSpriteE4PPtrI6SpriteE
Dmc:__ZN16PackedQuatVector9PackQuatsEP11Quaternionfi
Cyc:__Z33Texture_CUSTOM_Internal_GetHeightP12Il2CppObject
PFh:_ValueCollection_System_Collections_ICollection_get_SyncRoot_m3381653267_gshared
Klg:_UnmanagedMemoryStream_Write_m930787521
$fb:__ZN23ScriptableRenderContextC2Ev
xv:__ZN7mecanim9animation18ClipMuscleConstant8TransferI24GenerateTypeTreeTransferEEvRT_
zif:_GridLayoutGroup_get_spacing_m2409263614
iEh:_Enumerator_MoveNext_m3051926902_gshared
Nrg:_List_1_CheckIndex_m581273900_gshared
vDe:_UNITY_FT_Stream_GetChar
Y_b:__Z18Transfer_BlittableI18StreamedBinaryReadILb1EELb1EdEvRK29SerializationCommandArgumentsR31RuntimeSerializationCommandInfo
wPd:__ZN5physx6shdfnd8internal8HashBaseINS0_4PairIKNS_2Sq13PrunerPayloadEjEES5_NS0_4HashIS5_EENS1_11HashMapBaseIS5_jS9_NS0_9AllocatorEE6GetKeyESB_Lb1EE5eraseERS6_
SPb:__Z26BuildSerializationCacheFor17ScriptingClassPtrRb
JSa:__ZN7ApiGLES15BlitFramebufferEN2gl6HandleILNS0_10ObjectTypeE9EEENS0_15FramebufferReadES3_S3_iiiiiiiiNS0_15FramebufferTypeE
o7d:__ZN5physx13GuMeshFactory16createConvexMeshERNS_13PxInputStreamE
nie:__ZN5physx6shdfnd8internal8HashBaseINS0_4PairIKPKcjEES5_NS0_4HashIS5_EENS1_11HashMapBaseIS5_jS9_NS_7profile26WrapperReflectionAllocatorIjEEE6GetKeyESD_Lb1EE6createERS6_Rb
r$h:__Z112RuntimeInvoker_RuntimeObject_RuntimeObject_RuntimeObject_RuntimeObject_RuntimeObject_RuntimeObject_RuntimeObjectPFvvEPK10MethodInfoPvPS4_
ZOj:_InternalEnumerator_1_System_Collections_IEnumerator_get_Current_m3553395619_AdjustorThunk
Jpf:_Array_SetValue_m3998268557
egl:_Input_set_imeCompositionMode_m57811281
Hfh:_Context_EndSwitchingSecurityParameters_m4148956166
AZe:_ToBase64Transform_InternalTransformFinalBlock_m360524956
Uxk:__ZN6il2cpp6icalls8mscorlib6SystemL8IsStaticEPK12PropertyInfo
qN:__ZN13ProduceHelperI8AnimatorLb0EE7ProduceE18MemLabelIdentifier18ObjectCreationMode
koa:__Z9InitInputv
NXb:__Z29Transfer_Blittable_ArrayFieldI24GenerateTypeTreeTransfer11ColorRGBA32EvRT_R9ArrayInfoRK23StaticTransferFieldInfo
m7d:__ZNK5physx13GuMeshFactory15getConvexMeshesEPPNS_12PxConvexMeshEjj
mEk:__ZN6il2cpp2gc19AppendOnlyGCHashMapINSt3__24pairIPK10MethodInfoP11Il2CppClassEEP22Il2CppReflectionMethod17ReflectionMapHashIS9_ENS2_8equal_toIS9_EEE3AddERKS9_SB_
onb:__ZN16MemoryFileSystem6DeleteER13FileEntryDatab
RVh:__Z81RuntimeInvoker_Void_t1185182177_RuntimeObject_Int64_t3736567304_Int32_t2950945753PFvvEPK10MethodInfoPvPS4_
Zsg:_List_1_set_Item_m1979164443_gshared
LDa:__ZL21BlitScaleStbImageImplRK14ImageReferenceRS_NS_10ColorSpaceE
Pld:__ZN5physx10NpMaterial17setStaticFrictionEf
Esf:_Boolean_System_IConvertible_ToUInt16_m3465173538_AdjustorThunk
mGd:__ZNK5physx7NpScene19getFilterShaderDataEv
ulf:_InputField_get_keyboardType_m1248105267
iTb:__Z29Transfer_Blittable_ArrayFieldI14SafeBinaryReadyEvRT_R9ArrayInfoRK23StaticTransferFieldInfo
PX:__ZN20SoundChannelInstance15setChannelGroupEPN4FMOD12ChannelGroupE
zKi:_Match__ctor_m2425511580
Sgd:__ZN5physx2Sc19ShapeInstancePairLL26onPoseChangedWhileSleepingEv
dRd:__ZN5physx22PxcSweepCapsuleCapsuleERKNS_11PxsCCDShapeES2_PKNS_12PxsRigidBodyES5_RKNS_11PxTransformES8_S8_S8_fRNS_6PxVec3ESA_RNS_10PxcNpCacheERNS_18PxcNpThreadContextEf
Uc:invoke_vifffii
uNk:__ZN6il2cpp2vm9Exception27RaiseNullReferenceExceptionEv
c_c:__ZNK5physx3Cct17CapsuleController21getHalfHeightInternalEv
nZa:__ZNK25MultiBlocksMemoryFileData5CloneEv
U2k:_GC_add_ext_descriptor
G4f:_LayoutGroup_SetProperty_TisSingle_t1397266774_m793506911_gshared
Gti:_CryptoConfig_CreateFromName_m1538277313
s4c:__ZL30GeomOverlapCallback_CapsuleBoxRKN5physx10PxGeometryERKNS_11PxTransformES2_S5_PNS_2Gu12TriggerCacheE
Bsm:dynCall_iiiiiiiiiiii
Flf:_InputField_set_caretPositionInternal_m3823580651
uO:__ZN26AnimatorControllerPlayable26ParameterControlledByCurveEi
egj:_AnimatorControllerPlayable_IsParameterControlledByCurve_m2697541435
r8b:__ZL26KeywordSetToStringDontSortRKNSt3__26vectorIN4core12basic_stringIcNS1_20StringStorageDefaultIcEEEENS_9allocatorIS5_EEEERS5_
bMe:__Z54Register_UnityEngine_Analytics_CustomEventData_AddCharv
Oya:__ZN6prcoreL17RemapGenericFloatI16TexFormatRGFloat17TexFormatRGBAHalfEEvPKNS_9InnerInfoE
SS:__ZN12AudioManager22CreateFMODSoundFromWWWEP10IWWWStream15FMOD_SOUND_TYPE17FMOD_SOUND_FORMATjjbbP10SampleClip
Egc:__ZNK32RendererMaterialAnimationBinding15GenerateBindingERKN4core12basic_stringIcNS0_20StringStorageDefaultIcEEEEbRN11UnityEngine9Animation14GenericBindingE
Qaj:_TargetException__ctor_m4172127019
$cj:_AnimationClipPlayable_SetApplyFootIK_m3678315720_AdjustorThunk
Ewg:_List_1_CheckCollection_m274117203_gshared
w0l:__ZL70EventSystem_t1003666588_CustomAttributesCacheGenerator_m_FirstSelectedP21CustomAttributesCache
Wba:__ZN8Remapper23GetOrGenerateInstanceIDERK26SerializedObjectIdentifier
Nu:__ZN17AnimationCurveTplI8Vector3fEC2ERKS1_
j$a:__ZN17FileSystemHandler10AtomicMoveER13FileEntryDataS1_
ib:invoke_iiiiiifffiiifii
NSh:__Z85RuntimeInvoker_Void_t1185182177_Int32_t2950945753_Int32_t2950945753_Int32_t2950945753PFvvEPK10MethodInfoPvPS4_
WNf:_Double_CompareTo_m3151899116
gpg:_CustomInfo__ctor_m426096741
ogm:_Sprite_INTERNAL_get_border_m2829993226
L6e:_EventSystem_ToString_m3779610692
RDb:__ZN6Sprite8TransferI24GenerateTypeTreeTransferEEvRT_
Ezc:__Z48Register_UnityEngine_Transform_SetAsFirstSiblingv
pKj:_InternalEnumerator_1_System_Collections_IEnumerator_get_Current_m694606607_gshared
UDb:__ZN7SubMesh8TransferI24GenerateTypeTreeTransferEEvRT_
ddl:_GUISkin_FindStyle_m3581816133
$Oc:__ZN5physx3Cct10Controller6setPosERKNS_14PxExtendedVec3E
gMg:_Collection_1_System_Collections_IList_Contains_m296643274_gshared
gRc:__ZN5physx2GuL14testFaceNormalERKNS0_13PolygonalDataES3_PNS0_12SupportLocalES5_RKNS_6shdfnd3aos15PsMatTransformVESA_RKNS7_6FloatVERSB_RjRNS7_5Vec3VENS0_13FeatureStatusERSI_
Ffg:_DirectoryInfo__ctor_m126519516
gel:_GUIStyle_Draw_m4068961451
k7i:_MethodBase_GetMethodFromIntPtr_m3014201362
cdc:__ZN13ProduceHelperI14Texture2DArrayLb0EE7ProduceE18MemLabelIdentifier18ObjectCreationMode
jw:__ZN7mecanim5human9HumanGoal8TransferI18StreamedBinaryReadILb0EEEEvRT_
Rhl:_Mesh_PrintErrorBadSubmeshIndexTriangles_m4077719301
Ivc:__Z46Mesh_CUSTOM_PrintErrorCantAccessMeshForIndicesP12Il2CppObject
kte:__ZNK20TextRenderingPrivate7GUIText22GetTypeVirtualInternalEv
Pqc:__ZN9Transform23SetSiblingIndexInternalEib
y4c:__ZL32GeomOverlapCallback_ConvexConvexRKN5physx10PxGeometryERKNS_11PxTransformES2_S5_PNS_2Gu12TriggerCacheE
jCf:_Enumerator_MoveNext_m635366482
U5g:_X509Extension_Equals_m1222951829
$y:__ZN7mecanim5human12HumanPoseSubERNS0_9HumanPoseERKS1_S4_
Zfj:_AnimatorControllerPlayable_ResetTriggerString_m3988207409
aSk:__ZN6il2cpp8metadata15GenericMetadata15GetGenericClassEiPK17Il2CppGenericInst
YRb:__Z18Transfer_BlittableI14SafeBinaryReadLb0E10Matrix4x4fEvRK29SerializationCommandArgumentsR31RuntimeSerializationCommandInfo
_0a:__Z24GetFixedBehaviourManagerv
Qwk:__ZN6il2cpp2vm10ThreadPool4WaitEP17Il2CppAsyncResultPPv
OBj:_Text_UpdateGeometry_m3634850647
S_j:_X509Crl_VerifySignature_m1377612461
Jnm:_vfprintf
Bdm:_RectTransform_INTERNAL_set_sizeDelta_m2933696437
zCf:_Stack_Clear_m2010200235
_0h:__Z68RuntimeInvoker_Void_t1185182177_UInt16_t2177724958_SByte_t1669577662PFvvEPK10MethodInfoPvPS4_
y8e:_PointerEventData_set_pointerPressRaycast_m1363193059
n6a:__ZN20DynamicPropertySheetD0Ev
VTj:_SafeHandle_Dispose_m4229010569
Pkb:__ZN14SafeBinaryRead17RegisterConverterEPKcS1_PFbPvRS_E
o6:__ZN35RegisterRuntimeInitializeAndCleanup8RegisterEPFvPvES2_iS0_
P3i:_FieldBuilder_SetValue_m828035213
Dt:__ZN7mecanim6memory16ChainedAllocator7ReserveEj
Sfe:__ZN14PhysicMaterial8TransferI18StreamedBinaryReadILb0EEEEvRT_
e$f:_Array_InternalArray__Insert_TisSingle_t1397266774_m3161726127_gshared
oxb:__ZN20SphericalHarmonicsL215AddAmbientLightERK10ColorRGBAf
ype:__Z47Register_UnityEngine_MeshCollider_get_skinWidthv
NIk:__ZN14dense_hash_mapI10KeyWrapperINSt3__24pairIPK12PropertyInfoP11Il2CppClassEEEj17ReflectionMapHashIS8_ENS9_14EqualsComparerINS1_8equal_toIS8_EEEENS1_9allocatorINS2_IKS9_jEEEEE15set_deleted_keyERSH_
hRd:__ZN5physx25PxcSweepConvexHeightfieldERKNS_11PxsCCDShapeES2_PKNS_12PxsRigidBodyES5_RKNS_11PxTransformES8_S8_S8_fRNS_6PxVec3ESA_RNS_10PxcNpCacheERNS_18PxcNpThreadContextEf
c1a:__ZN8Material26ResetAllCachedMaterialDataEP6Shader
Jfj:_AnimatorControllerPlayable_SetIntegerString_m3581995673
GDe:_UNITY_TT_Get_MM_Var
_qi:_ObjectManager_AddFixup_m2154325362
_Jf:_DateTimeOffset_CompareTo_m1350732322_AdjustorThunk
aa:invoke_diddi
rFe:__ZNK2UI6Canvas13GetRenderModeEv
Dal:_GUILayoutUtility_Internal_GetWindowRect_m3164426898
Gll:_PlayableHandle_GetPlayableTypeOf_m3035006922
OVf:_Array_compare_TisCustomAttributeTypedArgument_t2723150157_m1384644047_gshared
qRb:__Z18Transfer_BlittableI14SafeBinaryReadLb0EiEvRK29SerializationCommandArgumentsR31RuntimeSerializationCommandInfo
Xuk:__ZN6il2cpp2vm13MetadataCache30GetPropertyDefinitionFromIndexEi
q9k:_Object_op_Implicit_m487959476
$4j:_SymmetricTransform_Transform_m1683494363
Vyd:__ZN5physx14NpRigidDynamic7releaseEv
GPe:__ZN22BaseUnityConnectClient17InitializeSessionERKN4core12basic_stringIcNS0_20StringStorageDefaultIcEEEES6_N19CloudServiceHandler13InitModeFlagsE
Yfg:_Path_SameRoot_m1518354096
p4h:__Z74RuntimeInvoker_RuntimeObject_Int32_t2950945753_RuntimeObject_RuntimeObjectPFvvEPK10MethodInfoPvPS4_
xNd:__ZN5physx6shdfnd8PoolBaseINS_21PxsBodyTransformVault13PxsBody2WorldENS0_19ReflectionAllocatorIS3_EEE15disposeElementsEv
ECg:_List_1_get_Item_m200663048_gshared
iK:__ZN15SerializeTraitsI9OffsetPtrIN7mecanim9animation23BlendDirectDataConstantEEE8TransferI24GenerateTypeTreeTransferEEvRS4_RT_
kzm:_emscripten_glDeleteBuffers__wrapper
Zoc:__ZN13MonoBehaviour34StopCoroutineFromEnumeratorManagedE18ScriptingObjectPtr
iXc:__ZN5physx2Gu30computeCapsule_TriangleMeshMTDERKNS_22PxTriangleMeshGeometryERKNS_11PxTransformERNS0_8CapsuleVEffbRNS_10PxSweepHitE
CNc:__ZN11UnityEngine9Analytics18SceneLoadTimeEvent12SetSceneLoadERKN4core12basic_stringIcNS2_20StringStorageDefaultIcEEEEiyyyy
sOb:__ZN30RuntimeInitializeOnLoadManager8TransferI18StreamedBinaryReadILb0EEEEvRT_
pEf:_DateTimeOffset__ctor_m2084804982
Lve:_UNITY_tt_face_load_pclt
Kpc:__ZL34GetComponentsImplementationRecurseILb1ELi0ELi2EEbR10GameObjectbRK17CompareParametersRK39GetComponentsImplementation_ReturnValue
rqf:_Array_Sort_m3698291233
KEd:__ZThn8_N5physx2Sc19ShapeInstancePairLL10onActivateEj
L0j:_EqualityComparer_1__cctor_m4244842342_gshared
rjj:_AnimatorTransitionInfo_get_exit_m3346751000_AdjustorThunk
D5a:__ZNK6Camera18WorldToScreenPointERK8Vector3fPb
Uil:_MonoBehaviour_StopCoroutine_m18469544
nXd:__ZN5physx2Cm12DelegateTaskINS_10PxsContextEXadL_ZNS2_28mergeCMDiscreteUpdateResultsEPNS_10PxBaseTaskEEEE11runInternalEv
EKe:__ZN14UnityAnalyticsD0Ev
ace:__ZN5physx19TriangleMeshBuilder10importMeshERKNS_18PxTriangleMeshDescERKNS_15PxCookingParamsEb
tIa:__Z18IsCompressedFormat14GraphicsFormat
sz:__ZN7mecanim9animation19AdjustPoseForMotionERKNS0_14AvatarConstantERKNS0_14SkeletonTQSMapERKN4math4trsXERNS_10ValueArrayERNS_8skeleton13SkeletonPoseTIS8_EESG_
iba:__ZNSt3__227__insertion_sort_incompleteIRPFbRKN18AwakeFromLoadQueue4ItemES4_EPS2_EEbT0_S9_T_
d_l:__ZL73RuntimePlatform_t4159857903_CustomAttributesCacheGenerator_MetroPlayerARMP21CustomAttributesCache
Xeg:_InvalidOperationException__ctor_m1685032583
$sk:__ZN14dense_hash_mapI10KeyWrapperIN6il2cpp5utils13dynamic_arrayIPK10Il2CppTypeLj4EEEEPFvvENS1_8metadata19Il2CppSignatureHashENS8_14EqualsComparerINSB_22Il2CppSignatureCompareEEENSt3__29allocatorINSG_4pairIKS8_SA_EEEEE15set_deleted_keyERSJ_
hCi:_TimeSpan_op_Subtraction_m3592306516
O2j:_EqualityComparer_1_System_Collections_IEqualityComparer_GetHashCode_m1517903420_gshared
Vma:__ZNK20LocalFileSystemPosix6ParentERK13FileEntryDataRN4core12basic_stringIcNS3_20StringStorageDefaultIcEEEE
Wrd:__ZN5physx6shdfnd5ArrayINS_18PxClothFabricPhaseENS0_19ReflectionAllocatorIS2_EEE8recreateEj
rjm:_Texture_Internal_GetWidth_m2495281491
WAb:__ZN26EnlightenSystemInformation8TransferI14SafeBinaryReadEEvRT_
X6d:__ZN5physx2Sc19ClothFabricBulkData15exportExtraDataERNS_22PxSerializationContextE
q9h:__Z119RuntimeInvoker_Void_t1185182177_RuntimeObject_Single_t1397266774_Single_t1397266774_SByte_t1669577662_Int32_t2950945753PFvvEPK10MethodInfoPvPS4_
xHd:__ZN5physx2Sq17SceneQueryManager11shiftOriginERKNS_6PxVec3E
lHb:__ZN12MeshRendererD0Ev
mVc:__ZN5physx2Gu16sweepBoxTriangleERKNS_10PxTriangleERKNS_9PxBounds3ERKNS_6PxVec3ES9_RS7_SA_Rf
hgm:_Sprite_get_pixelsPerUnit_m2018825938
gi:_utime
Mce:__ZN5physx10writeChunkEaaaaRNS_14PxOutputStreamE
xPi:_BalancingGroup_Compile_m2575117193
Vwk:__ZN6il2cpp6icalls8mscorlib6System8MonoType18IsGenericParameterEPK10Il2CppType
NBk:__ZNSt3__26vectorIN6il2cpp2vm17TypeNameParseInfoENS_9allocatorIS3_EEE8allocateEj
lMi:_Mark_get_Index_m3048692661_AdjustorThunk
Cn:FUNCTION_TABLE_viiiiif
TQj:_DefaultComparer_Compare_m3931992727_gshared
mo:FUNCTION_TABLE_viiiiii
BPj:_InternalEnumerator_1_System_Collections_IEnumerator_get_Current_m1847780851_AdjustorThunk
u0e:_SecurityException_ToString_m3228070608
qEf:_DateTimeOffset__ctor_m74032857
scl:_GUISkin_set_label_m3058193957
Jid:__ZN5physx2Sc9RigidCore13onShapeChangeERNS0_9ShapeCoreENS_7PxFlagsINS0_21ShapeChangeNotifyFlag4EnumEjEENS4_INS_11PxShapeFlag4EnumEhEE
QH:__ZN7mecanim9animation22DestroyAvatarWorkspaceEPNS0_15AvatarWorkspaceERNS_6memory9AllocatorE
rVj:_ConfigHandler_ParseElement_m3124222564
bDi:_Type_type_is_assignable_from_m76737532
twd:__ZN5physx6shdfnd5ArrayIPvNS0_15InlineAllocatorILj256ENS0_19ReflectionAllocatorINS_2Sc19ParticlePacketShapeEEEEEE15growAndPushBackERKS2_
MTd:__ZN5physx17solveContactBlockEPKNS_23PxcSolverConstraintDescEjRNS_16PxcSolverContextE
Vce:__ZN5physx6shdfnd10FoundationD2Ev
oBc:__ZNSt3__210__list_impIN10GUIManager12SortedScriptE11memory_poolIS2_EE5clearEv
Zxb:__ZN14PlayableOutput17SetSourcePlayableEP8Playable
jEc:__Z32GUIStyle_Set_Custom_PropRichTextP12Il2CppObjecth
iH:__ZN7mecanim9animation29MotionOutputGetDeltaTransformEPKNS0_12MotionOutputE
BNc:__ZN27PerformanceReportingManager21OnSceneTimingCallbackERK15SceneLoadTimingRKN4core12basic_stringIcNS3_20StringStorageDefaultIcEEEE
ZN:__ZN8Animator14OnAddComponentEPN5Unity9ComponentE
bzc:__Z43Transform_CUSTOM_INTERNAL_get_localRotationP12Il2CppObjectP11Quaternionf
UNd:__ZN5physx2Sc10NPhaseCoreD2Ev
v6c:__ZN5physx2Sc7BodySim18onConstraintDetachEv
UAk:__ZN6il2cpp2os4File9SetLengthEPNS0_10FileHandleExPi
zhc:__ZZL23RegisterLightPropertiesR22GenericPropertyBindingEN20Wrapper_LightColorr013SetFloatValueEPvf
Jqi:_ObjectReader_ReadObjectGraph_m340866276
qgl:_JsonUtility_ToJson_m3300244155
Ki:_emscripten_glGetTexParameteriv
sGd:__ZN5physx7NpScene8simulateEfPNS_10PxBaseTaskEPvjb
Oym:_glGenTextures__wrapper
H_e:_SecurityElement_AddAttribute_m311510562
rqg:_List_1_System_Collections_IList_Remove_m3857206540_gshared
abc:__Z13RegisterClassI4MeshEvv
vXi:_PayloadData_Mask_m3042223115
AYi:_WebSocket_processCookies_m1576598990
xxb:__ZN8PlayableD0Ev
m0:__Z84Register_UnityEngine_Audio_AudioMixerPlayable_INTERNAL_CALL_SetAutoNormalizeInternalv
hU:__ZN12AudioManager8TransferI19StreamedBinaryWriteILb0EEEEvRT_
dAj:_Slider_UpdateCachedReferences_m3259451627
Ljh:_SslStreamBase_get_KeyExchangeStrength_m217695965
oYh:__Z50RuntimeInvoker_Double_t594665363_Double_t594665363PFvvEPK10MethodInfoPvPS4_
O$b:__ZN18StreamedBinaryReadILb1EE21TransferSTLStyleArrayI13dynamic_arrayI11ColorRGBA32Lj4EEEEvRT_17TransferMetaFlags
zjj:_Application_InvokeOnBeforeRender_m1636116954
kgf:_U3CShowU3Ec__AnonStorey1_U3CU3Em__0_m2340880019
E0b:__Z18Transfer_BlittableI18StreamedBinaryReadILb0EELb0E8Vector2fEvRK29SerializationCommandArgumentsR31RuntimeSerializationCommandInfo
xfd:__ZN5physx18NpArticulationLink10clearForceENS_11PxForceMode4EnumE
YRc:__ZN5physx2Gu30distanceSegmentTriangleSquaredERKNS_6PxVec3ES3_S3_S3_S3_PfS4_S4_
Ckh:_TlsStream_Flush_m3793197834
lna:__ZN22LocalFileSystemHandler9MakeLocalER13FileEntryDatab
U_k:__ZN6il2cpp2vm8Profiler10AllocationEP12Il2CppObjectP11Il2CppClass
P3l:__ZL61Graphic_t1660335611_CustomAttributesCacheGenerator_m_MaterialP21CustomAttributesCache
Qse:__ZNSt3__23mapIN20TextRenderingPrivate7FontRefENS1_6OSFontENS_4lessIS2_EENS_9allocatorINS_4pairIKS2_S3_EEEEEixERS8_
ZQj:_DefaultComparer_Compare_m3648806637_gshared
Xka:__Z13FormatOrderedPKcz
pyk:__ZN6il2cpp2vm8basepathEPKc
xim:_TextEditor_SelectCurrentParagraph_m1051150365
qQf:_CompareInfo_internal_compare_m2522722857
aqe:__ZN14SafeBinaryRead21TransferSTLStyleArrayI10vector_mapINSt3__24pairIttEEfN20TextRenderingPrivate8FontImpl14KerningCompareENS2_9allocatorINS3_IS4_fEEEEEEEvRT_17TransferMetaFlags
seh:_TlsServerFinished__ctor_m1445633918
ybc:__Z13RegisterClassI15QualitySettingsEvv
BZk:__ZN6il2cpp2vm6String21InitializeEmptyStringEP11Il2CppClass
cec:__ZN26SkinnedMeshRendererManager33HandleInvalidationRendererChangesEPK23TransformAccessReadOnlyj
Ncb:__ZN25DeferredRenderLoopScratchD0Ev
sB:__ZN27AnimationLayerMixerPlayable14SetInputWeightEif
z2h:__Z83RuntimeInvoker_Void_t1185182177_RuntimeObject_Single_t1397266774_Single_t1397266774PFvvEPK10MethodInfoPvPS4_
b8e:_PhysicsRaycaster_Raycast_m776323695
Xy:__ZN7mecanim9animation17EvaluateHumanPoseERKNS0_18ClipMuscleConstantERKNS0_15ClipMuscleInputEPKfRKNS0_12MotionOutputERNS_5human9HumanPoseE
L3b:__ZN15dense_hashtableINSt3__24pairIKiN4core17string_with_labelILi1EEEEEi18SInt32HashFunctionN14dense_hash_mapIiS5_S7_NS0_8equal_toIiEE13stl_allocatorIS6_L18MemLabelIdentifier1ELi16EEE9SelectKeyESA_SD_E9copy_fromERKSG_j
Nsa:__ZN6Camera11ResetAspectEv
Oub:__ZNK17InstancedPropInfo22FillInstancePropertiesER19ShaderPropertySheetjPK17BatchInstanceDatajRK15RenderNodeQueue
mua:__ZN22CreateGpuProgramOutputD2Ev
c$c:__ZNK5physx3Cct15ObstacleContext14getNbObstaclesEv
MOk:__ZN6il2cpp6icalls8mscorlib6System2IO6MonoIO9SetLengthE12Il2CppIntPtrxPi
M9d:__ZN5physx6shdfnd8PoolBaseINS_11NpAggregateENS0_19ReflectionAllocatorIS2_EEE12allocateSlabEv
B_:__ZN13ProduceHelperI13AudioListenerLb0EE7ProduceE18MemLabelIdentifier18ObjectCreationMode
IJ:__ZN7mecanim9animation23BlendDirectDataConstant8TransferI14SafeBinaryReadEEvRT_
mkm:_Transform_INTERNAL_get_localRotation_m3945325706
y4j:_HashSet_1_System_Collections_Generic_ICollectionU3CTU3E_CopyTo_m408073502_gshared
nxd:__ZN5physx7NpScene26removeFromParticleBaseListERNS_14PxParticleBaseE
Esd:__ZN5physx2Sc9ClothCore23setSelfCollisionIndicesEPKjj
QZa:__ZN12HandlerChain4OpenER13FileEntryData14FilePermission16FileAutoBehavior
Rfi:__Z72RuntimeInvoker_Void_t1185182177_Int32_t2950945753_RaycastHit_t1056001966PFvvEPK10MethodInfoPvPS4_
qEk:__ZN15dense_hashtableINSt3__24pairIK10KeyWrapperINS1_IPK10MethodInfoP11Il2CppClassEEEjEES9_17ReflectionMapHashIS8_EN14dense_hash_mapIS9_jSD_NS9_14EqualsComparerINS0_8equal_toIS8_EEEENS0_9allocatorISB_EEE9SelectKeyESI_SK_E6insertERKSB_
KNc:__ZN27PerformanceReportingManager29OnSceneLoadedAfterAwakeStaticEPS_iR18AwakeFromLoadQueueN19RuntimeSceneManager11LoadingModeE
NAa:__ZN18AssetBundleManager55CollectPreloadObjectsFromAssetBundleLoadAssetOperationsER13dynamic_arrayIiLj4EE
Hpf:_Array_SetValue_m394135409
_da:__ZN14FileCacherReadD2Ev
CFa:__ZN13RendererScene23UpdatePreviousFrameDataEii
x3e:_String_Remove_m562998446
etc:__Z50Register_UnityEngine_CullingGroup_FinalizerFailurev
Yvb:__ZN14SafeBinaryRead21TransferSTLStyleArrayI10vector_mapI7Hash128iNSt3__24lessIS2_EE13stl_allocatorINS3_4pairIS2_iEEL18MemLabelIdentifier80ELi16EEEEEvRT_17TransferMetaFlags
D_e:_SecurityPermission_IsSubsetOf_m545000671
vAa:__ZN27UnloadUnusedAssetsOperationD0Ev
Ysb:__ZN6Camera15ThreadedCleanupEv
IOk:__ZN6il2cpp6icalls8mscorlib6System2IO6MonoIO9GetLengthE12Il2CppIntPtrPi
uqm:__ZNKSt3__221__basic_string_commonILb1EE20__throw_out_of_rangeEv
MQd:__ZN5physx10PxsCCDPair12updateShapesEv
K3f:_Dictionary_2_Do_ICollectionCopyTo_TisBoolean_t97287965_m3600337818_gshared
IXi:_WebSocket__ctor_m3471170183
jS:__ZN9AudioClip23VirtualRedirectTransferER18StreamedBinaryReadILb0EE
gTi:_Ext_IsNullOrEmpty_m77719352
dCg:_List_1_AddEnumerable_m2724989594_gshared
dec:__ZN26SkinnedMeshRendererManager38HandleInvalidationRootHierarchyChangesEPK23TransformAccessReadOnlyj
V7g:_Kernel_modInverse_m652700340
ctd:__ZN5physx2Sc9ClothCore22removeCollisionCapsuleEj
nlm:_Vector2_get_sqrMagnitude_m3719918747
D7c:__ZN5physx16PxsIslandManager25setArticulationLinkHandleEjPvRKNS_20PxsIslandManagerHookIjLj4294967295EEE
ik:_glCopyTexSubImage2D
uCm:_glActiveTexture__wrapper
EWe:_RIPEMD160Managed_CompressFinal_m497690796
fma:__ZN18ScreenManagerWebGL13SetShowCursorEb
Unm:_frexp
bIe:__ZN2UI13CanvasManager14GetRenderOrderEPKNS_6CanvasE
shd:__ZN5physx6shdfnd5ArrayIPNS_3Scb5ShapeENS0_15InlineAllocatorILj16ENS0_19ReflectionAllocatorIS4_EEEEE15growAndPushBackERKS4_
WRb:__Z18Transfer_BlittableI14SafeBinaryReadLb0E5RectTIfEEvRK29SerializationCommandArgumentsR31RuntimeSerializationCommandInfo
deg:_NumberFormatter_NumberToString_m2562899600
WLa:__ZN9GfxDevice18InsertCustomMarkerEi
Onm:_fmt_u
JPa:__ZN18AsyncUploadManager19AsyncResourceUploadER9GfxDeviceii9TextureID
POa:__ZN14GfxContextGLES14GetFramebufferEv
Bzm:_emscripten_glGenVertexArrays__wrapper
zxa:__ZN6prcoreL21CreateRemapAnyBlitterE13TextureFormatS0_
hbh:_RSAManaged_ExportParameters_m1754454264
ync:__ZN17AnimationCurveTplIfE16StripInvalidKeysEv
Rsf:_Boolean_Equals_m535526264_AdjustorThunk
WGe:__ZNK2UI6Canvas17GetSortingLayerIDEv
jAk:_il2cpp_method_has_attribute
kjc:__Z13RegisterClassI17GlobalGameManagerEvv
wfb:__ZN8Renderer24SetupNewRendererForSceneEv
XCi:_Type_internal_from_name_m1721940673
CAk:_il2cpp_type_get_class_or_element_class
Qmm:_socket_test_Update_m1993268638
jPf:_Environment_get_TickCount_m2088073110
dli:_RemotingServices_GetMethodBaseFromName_m3194612939
jKc:__Z35Transfer_Blittable_FixedBufferFieldI8JSONReadtEvRK29SerializationCommandArgumentsR31RuntimeSerializationCommandInfo
h0d:__ZN5physx2Sc8ClothSim16addCollisionMeshEPKNS0_8ShapeSimE
jkc:__ZN14PlayableOutput6HandleEv
nDb:__ZNK6Sprite22GetTypeVirtualInternalEv
X3k:__ZN6il2cpp5utils10MemoryPool9AddRegionEj
go:FUNCTION_TABLE_iiiiiiiiiiiiii
k5d:__ZN5physx6shdfnd5ArrayIPKNS_10PxsCCDBodyENS0_19ReflectionAllocatorIS4_EEE8recreateEj
mhd:__ZN5physx6shdfnd4sortINS_2Cm19PreallocatingRegionENS0_4LessIS3_EENS0_19ReflectionAllocatorIS3_EEEEvPT_jRKT0_RKT1_j
kwb:__ZN11Tetrahedron8TransferI24GenerateTypeTreeTransferEEvRT_
Bwe:_UNITY_tt_get_cmap_info
Zib:__ZN16ReflectionProbes8ScheduleEN18ReflectionProbeJob7JobTypeEP15ReflectionProbei
weh:_ClientSessionInfo_KeepAlive_m1020179566
Crj:_Debug_LogWarning_m218105588
V9k:_GUIUtility_set_textFieldInput_m3210268170
fil:_Mesh_SetSizedArrayForChannel_m2433695052
Cna:__Z18IsDirectoryCreatedRKN4core12basic_stringIcNS_20StringStorageDefaultIcEEEE
Dnj:_Canvas_set_sortingOrder_m2825109295
p_e:_String_FormatHelper_m3913915042
WEh:_Enumerator_System_Collections_IEnumerator_get_Current_m183009269_gshared
aGe:__ZN2UI13CanvasManagerD2Ev
n0i:_ConstructorInfo__cctor_m1016079270
mqk:__ZN15dense_hashtableINSt3__24pairIK10KeyWrapperIPKcEP11Il2CppClassEES5_N6il2cpp5utils11StringUtils12StringHasherIS4_EEN14dense_hash_mapIS5_S8_SE_NS5_14EqualsComparerINSB_13VmStringUtils21CaseSensitiveComparerEEENS0_9allocatorIS9_EEE9SelectKeyESJ_SL_E15set_deleted_keyERKS9_
m6g:_AttrListImpl_get_Names_m977594476
vse:_UNITY_FT_GlyphLoader_Done
fej:_AnimationOffsetPlayable_SetPositionInternal_m2285514673
hNf:_StackTrace_get_FrameCount_m344690939
rhg:_FileStream_BeginRead_m2419864669
xlg:_UnexceptionalStreamWriter_Write_m363195622
tUd:__ZN5physx18ComputeSortedListsEPNS_2Cm10BitMapBaseINS_6shdfnd9AllocatorEEEjjPKjPPNS_8SapBox1DES7_PjSB_jRKNS_2Gu4AxesESB_RjSB_SG_RbSH_
kP:__ZN17AnimationPlayable8OwnAssetEP11NamedObject
pxe:_tt_cmap14_char_var_index
Flm:_Vector3_GetHashCode_m4064605418_AdjustorThunk
Swj:_Selectable_OnPointerDown_m1086067264
Oye:_psh_globals_new
Eff:_Dropdown_SetupTemplate_m628218778
Kyi:_Thread_GetCompressedStack_m2923422412
Sxf:_SynchronizedArrayListWrapper_CopyTo_m4207791406
Nvh:_X509BasicConstraintsExtension_ToString_m1809935297
DIa:__ZN9GfxDevice20SetMaxBufferedFramesEi
O7j:_TweenRunner_1_StartTween_m1055628540_gshared
ikm:_Transform_set_localPosition_m3327877514
Tsm:dynCall_vdd
zHe:__ZN2UIL17UnloadAllCanvasesEv
imb:__Z23ConvertIntegerToTypePtrIsEbPvR14SafeBinaryRead
fTi:_Cookie_canSetName_m2519791301
Bcd:__ZNK5physx14NpArticulation17releaseDriveCacheERNS_24PxArticulationDriveCacheE
hpk:__ZN6il2cpp2vm5Class12HasAttributeEP11Il2CppClassS3_
_$j:_EqualityComparer_1_System_Collections_IEqualityComparer_GetHashCode_m2230215241_gshared
W6l:__ZL60ContentSizeFitter_t3850442145_CustomAttributesCacheGeneratorP21CustomAttributesCache
kAf:_Hashtable_Contains_m2145146412
Hxa:__ZN6prcoreL29inner_stretch_rgb565_bilinearEPKNS_9InnerInfoE
Ydm:_RectTransform_SetSizeWithCurrentAnchors_m3629118313
Fsd:__ZNK5physx2Sc9ClothCore25getSelfCollisionStiffnessEv
tdl:_GUIStyle_InternalOnAfterDeserialize_m1612061878
_bg:_Int32_FindCurrency_m3541026887
MLi:_Interval_CompareTo_m3282557545
_6k:__ZN6il2cpp8metadata19Il2CppSignatureHash4HashERKNS_5utils13dynamic_arrayIPK10Il2CppTypeLj4EEE
HAm:_pthread_cond_wait__wrapper
Ubb:__ZNK14RenderSettings19GetFlatAmbientColorEv
nim:_TextEditor_Insert_m2034907741
PDa:__ZN6prcoreL10inner_flipILj4EEEvPhS1_j
TLb:__ZN18StreamedBinaryReadILb0EE21TransferSTLStyleArrayI10vector_mapIPKN5Unity4TypeE7Hash128NSt3__24lessIS6_EENS8_9allocatorINS8_4pairIS6_S7_EEEEEEEvRT_17TransferMetaFlags
lD:__ZNK27StateMachineBehaviourPlayer15IsSenderEnabledEv
nWe:_RijndaelManagedTransform_TransformBlock_m1610137419
ayh:_Enumerator_System_Collections_IDictionaryEnumerator_get_Entry_m1355283127_gshared
zzc:__Z40Register_UnityEngine_Transform_SetParentv
eFb:__ZN14Texture2DArray17UploadToGfxDeviceEv
OV:__Z14FMODMemoryFreePvjPKc
Z4g:_X509CertificateEnumerator_MoveNext_m2269241175
Gwe:_tt_cmap0_validate
yuf:_Char_System_IConvertible_ToDecimal_m3534906463
fAe:_cf2_glyphpath_moveTo
Yll:_PlayableHandle_SetTime_m1367610961
oKd:__ZN5physx3Scb4Body9syncStateEv
Lgd:__ZN5physx12PxsRigidBody23updatePoseDependenciesVERNS_10PxsContextE
Uz:__ZN7mecanim23TransformValueArrayLoopEiiiRKN4math4trsXES3_RNS_10ValueArrayEf
Meh:_ClientSessionInfo_Finalize_m2165787049
Q8d:__ZN5physx2Gu12TriangleMesh4loadERNS_13PxInputStreamE
zdh:_ClientContext_Clear_m1774063253
xfj:_AnimatorControllerPlayable_SetBoolID_m3209658992
jJf:_DateTime_AddSeconds_m332574389_AdjustorThunk
Ctf:_Byte_System_IConvertible_ToSByte_m1869482168
sMk:__GLOBAL__sub_I_Assembly_cpp
fgf:_U3CDelayedDestroyDropdownListU3Ec__Iterator0_MoveNext_m213723240
bkj:_AsyncOperation_set_allowSceneActivation_m1319035743
fAa:__Z21PlayerStartFirstSceneb
wG:__ZN7mecanim5human10RetargetToEPKNS0_5HumanEPKNS0_9HumanPoseES6_RKN4math4trsXEPS4_PNS_8skeleton13SkeletonPoseTIS8_EESF_
Nz:__ZN7mecanim9animation8SeekClipERKNS0_12StreamedClipERNS0_18StreamedClipMemoryEf
Pm:_emscripten_glIsTexture
av:__ZN24CompressedAnimationCurveaSERKS_
ul:_emscripten_glHint
Xgj:_AnimatorControllerPlayable_GetAnimatorClipInfoInternal_m892909375
t5j:_Check_SourceAndPredicate_m2332465641
R5h:__Z67RuntimeInvoker_Boolean_t97287965_TextGenerationSettings_t1351628751PFvvEPK10MethodInfoPvPS4_
tDe:_ft_var_readpackeddeltas
N$e:_String_op_Inequality_m215368492
hxc:__Z65PlayableOutputHandle_CUSTOM_INTERNAL_CALL_GetPlayableOutputTypeOfR15HPlayableOutput
zgm:_StackTraceUtility_ExtractFormattedStackTrace_m3979573127
iFi:_UInt32_System_IConvertible_ToInt64_m2261037378
Sm:_SDL_UpperBlit
Acb:__Z35GetTextureDecodeValuesWithIntensity16TextureUsageMode17TextureColorSpace10ColorSpacef
mSf:_Array_InternalArray__ICollection_Remove_TisChar_t3634460470_m4143749387_gshared
tod:__ZNK5physx7NpShape16getContactOffsetEv
oWd:__ZN5physx14PxsAABBManager21processAggregatePairsEPKNS_19AggregateSortedDataE
tle:_PxCreateCooking
T5f:_GregorianCalendar__ctor_m979779718
zih:_SslClientStream__ctor_m2402546929
kPb:__ZN14SafeBinaryRead20OverrideRootTypeNameEPKc
Blh:_DictionaryNodeEnumerator_get_Entry_m2309234501
cea:__ZN14FileCacherRead16UnlockCacheBlockEj
oqe:__ZNSt3__26vectorIN4core12basic_stringIcNS1_20StringStorageDefaultIcEEEE13stl_allocatorIS5_L18MemLabelIdentifier34ELi16EEE6assignINS_11__wrap_iterIPS5_EEEENS_9enable_ifIXaasr21__is_forward_iteratorIT_EE5valuesr16is_constructibleIS5_NS_15iterator_traitsISF_E9referenceEEE5valueEvE4typeESF_SF_
UAi:_WaitHandle_get_Handle_m3260446580
xpg:_Enumerator_VerifyState_m1745883925_AdjustorThunk
rd:_emscripten_glUniform1f
EBf:_SortedList__ctor_m1261191695
Wse:__Z20ParseImageParametersR11UTF16StringRiRN20TextRenderingPrivate16TextFormatChangeE
L6l:__ZL55CanvasScaler_t2767979955_CustomAttributesCacheGeneratorP21CustomAttributesCache
wd:_emscripten_glUniform1i
cPb:__ZN13MonoBehaviour9CallAwakeEv
Qfa:__Z33UnregisterDeviceEventCallbackImplPFv23UnityGfxDeviceEventTypeE
U3d:__ZN5physx2Sc19ShapeInstancePairLL23postIslandGenSecondPassEv
_fe:__ZN14PhysicsManager23VirtualRedirectTransferER19StreamedBinaryWriteILb0EE
l5b:__ZN9ShaderLab16SerializedTagMapaSERKS0_
c2:__ZN11UnityEngine15CloudWebService16SessionContainer20RestoreSessionHeaderERKN4core12basic_stringIcNS2_20StringStorageDefaultIcEEEES8_RNS0_13SessionHeaderE
DPd:__ZN5physx2Sq16BucketPrunerCore12updateObjectERKNS_9PxBounds3ERKNS0_13PrunerPayloadE
f3d:__ZN5physx18PxsDynamicsContext23atomIntegrationParallelEfPKPNS_11PxsBodyCoreEPKPNS_12PxsRigidBodyEjPKNS_2Cm13SpatialVectorEPNS_13PxcSolverBodyEPNS_17PxcSolverBodyDataEPSA_RjSI_RNS_10PxBaseTaskE
EH:__ZN11UnityEngine9Animation27CreateAvatarBindingConstantER9TransformPKN7mecanim9animation14AvatarConstantERNS3_6memory9AllocatorE
RNb:__ZN14SafeBinaryRead21TransferSTLStyleArrayINSt3__26vectorIN30RuntimeInitializeOnLoadManager9ClassInfoE13stl_allocatorIS4_L18MemLabelIdentifier12ELi16EEEEEEvRT_17TransferMetaFlags
rVh:__Z151RuntimeInvoker_RuntimeObject_Int32_t2950945753_RuntimeObject_ObjectU5BU5DU26_t712384779_RuntimeObject_RuntimeObject_RuntimeObject_ObjectU26_t2146539884PFvvEPK10MethodInfoPvPS4_
sqc:__ZN9BlobWriteC2ER13dynamic_arrayIhLj16EE24TransferInstructionFlags19BuildTargetPlatform
pbf:_CanvasUpdateRegistry__ctor_m2005397069
tca:__ZN14MessageHandler3GetEv
c8i:_MonoMethodInfo_GetCallingConvention_m3156036493
Hif:_LayoutGroup_SetLayoutInputForAxis_m2458344630
Kd:_emscripten_glAttachShader
CIa:__ZN9GfxDevice13SetActiveTierE12GraphicsTier
chj:_AnimatorControllerPlayable_GetCurrentAnimatorClipInfoCount_m1409370086
mkf:_Image__cctor_m1927508576
BKb:__ZNSt3__26vectorIN4core12basic_stringIcNS1_20StringStorageDefaultIcEEEENS_9allocatorIS5_EEE6assignIPS5_EENS_9enable_ifIXaasr21__is_forward_iteratorIT_EE5valuesr16is_constructibleIS5_NS_15iterator_traitsISC_E9referenceEEE5valueEvE4typeESC_SC_
JYc:__ZN5physx2Gu19GetRaycastFuncTableEv
gjl:_PlayerEditorConnectionEvents__ctor_m3325332137
Iph:_IPEndPoint_Equals_m306328693
wpe:__Z49Register_UnityEngine_MeshCollider_get_inflateMeshv
FPj:_InternalEnumerator_1_get_Current_m3331252162_AdjustorThunk
Jbl:_Mathf_Clamp_m500974738
FRb:__Z18Transfer_BlittableI14SafeBinaryReadLb0E11QuaternionfEvRK29SerializationCommandArgumentsR31RuntimeSerializationCommandInfo
M3d:__ZN5physx17EdgeChangeManager23cleanupBrokenEdgeEventsEPKNS_4EdgeE
e1b:__Z18Transfer_BlittableI18StreamedBinaryReadILb0EELb1E12PropertyNameEvRK29SerializationCommandArgumentsR31RuntimeSerializationCommandInfo
Z6:_tlsf_walk_heap
iVh:__Z49RuntimeInvoker_Void_t1185182177_OpCode_t123070264PFvvEPK10MethodInfoPvPS4_
rec:__ZNK25BlendshapePropertyBinding38SerializedPropertyPathToCurveAttributeER6ObjectPKc
yHf:_Convert_ToUInt32_m3592050311
Bb:invoke_vif
e4f:_Component_GetComponents_TisRuntimeObject_m2416546752_gshared
Cb:invoke_vid
Mqm:__ZNSt3__212basic_stringIcNS_11char_traitsIcEENS_9allocatorIcEEE6insertEjPKc
Eb:invoke_vii
G_i:_Random_Sample_m2289397474
HId:__ZN5physx13NpVolumeCacheD2Ev
vob:__ZN12TLSAllocatorI14StackAllocatorE16ThreadInitializeEP13BaseAllocator
Eph:_IPEndPoint_Serialize_m504081642
MSi:_CookieCollection_parseRequest_m4095201389
H0d:__ZThn8_N5physx2Sc35ParticleElementRbElementInteraction12onDeactivateEj
VIe:__Z41CanvasRenderer_CUSTOM_DisableRectClippingP12Il2CppObject
sng:_MonoType_GetConstructorImpl_m441167626
h4h:__Z85RuntimeInvoker_Void_t1185182177_Double_t594665363_Double_t594665363_Double_t594665363PFvvEPK10MethodInfoPvPS4_
ySd:__ZN5physx16PxsThreadContextC2EPNS_10PxsContextE
CTi:_Ext_IsText_m3074975627
MHg:_Collection_1_IsFixedSize_m3709118201_gshared
DZa:__ZN25SingleBlockMemoryFileDataD0Ev
tqb:__ZNSt3__26vectorI14ConstantStringNS_9allocatorIS1_EEE6assignINS_11__wrap_iterIPS1_EEEENS_9enable_ifIXaasr21__is_forward_iteratorIT_EE5valuesr16is_constructibleIS1_NS_15iterator_traitsISA_E9referenceEEE5valueEvE4typeESA_SA_
aPc:__ZN5physx3Cct10Controller4moveERNS0_11SweptVolumeERKNS_6PxVec3EffRKNS_19PxControllerFiltersEPKNS_17PxObstacleContextEb
Z1:__ZN11UnityEngine15CloudWebService16SessionContainer21ConvertFromFolderTimeERKN4core12basic_stringIcNS2_20StringStorageDefaultIcEEEEPjPt
_zd:__ZN5physx14NpRigidDynamic17setAngularDampingEf
$Sb:__ZNSt3__26vectorI8GUIStyle13stl_allocatorIS1_L18MemLabelIdentifier1ELi16EEE7reserveEj
nMk:__ZN6il2cpp6icalls8mscorlib6System9Threading6Thread27GetSerializedCurrentCultureEP12Il2CppThread
ifh:_Context_set_ReadSequenceNumber_m2154909392
iWe:_RijndaelTransform_SubByte_m3037693507
O8k:_GameObject_GetComponentInChildren_m230563287
Xcc:__Z31CalculateHierarchyTransformType23TransformAccessReadOnly
rbc:__Z13RegisterClassI11TimeManagerEvv
EV:__ZN4FMOD8ChannelI11setPositionEjj
X0k:_GC_set_fl_marks
j9c:__ZN5physx6shdfnd8PoolBaseINS_2Sc12SimStateDataENS0_19ReflectionAllocatorIS3_EEE17releaseEmptySlabsEv
ukm:_Transform_set_parentInternal_m158091544
Yja:__ZN17BaseObjectManager13StaticDestroyEPv
Xwh:_Comparer_1__cctor_m3891417387_gshared
cyi:_UTF7Decoder_GetChars_m3413809261
RSc:__ZN5physx2Gu22closestPtPointTriangleEPNS_6shdfnd3aos5Vec3VES4_S4_Rj
lNb:__ZNSt3__26vectorIN15ResourceManager10DependencyE13stl_allocatorIS2_L18MemLabelIdentifier51ELi16EEEC2INS_11__wrap_iterIPS2_EEEET_SB_RKS5_PNS_9enable_ifIXaasr21__is_forward_iteratorISB_EE5valuesr16is_constructibleIS2_NS_15iterator_traitsISB_E9referenceEEE5valueEvE4typeE
ejd:__ZN5physx2Cm8PtrTableC2Ev
yU:__ZN4FMOD6Reverb13setPropertiesEPK22FMOD_REVERB_PROPERTIES
X6a:__ZN9DepthPass13PrepareSubsetEjRK10RenderNodeifRK17ShaderReplaceData
IVd:__ZN5physx16PxsBroadPhaseMBP6updateEjjRKNS_23PxcBroadPhaseUpdateDataEPNS_10PxBaseTaskE
Umd:__ZN5physx9NpPhysics18createRigidDynamicERKNS_11PxTransformE
_3c:__ZN5physx6shdfnd5ArrayIPvNS0_19ReflectionAllocatorINS_2Sc18TriggerInteractionEEEE15growAndPushBackERKS2_
Zgl:_Material_HasProperty_m4137769941
Xlc:__Z35SetMeshComponentFromArrayFromScriptR4Mesh30InternalScriptingShaderChannel34InternalScriptingVertexChannelTypei17ScriptingArrayPtri
coc:__Z18ExtractTagThrowingR11ICallString
FYf:_Array_InternalArray__ICollection_Add_TisCustomAttributeNamedArgument_t287865710_m4157175270_gshared
qXi:_PayloadData__ctor_m1278664845
jWc:__ZN5physx2Gu17intersectRayAABB2ERKNS_6shdfnd3aos5Vec3VES5_S5_S5_RKNS2_6FloatVERS6_S9_
Gr:__ZN4core20StringStorageDefaultIcE6assignEPKcj
dXi:_WebHeaderCollection_GetKey_m609927459
nGi:_UInt64_System_IConvertible_ToUInt64_m2135047981_AdjustorThunk
aod:__ZNK5physx7NpShape17getSphereGeometryERNS_16PxSphereGeometryE
m8g:_BigInteger_ModPow_m3776562770
Nil:_MonoBehaviour_IsInvoking_m2187914354
lYc:__ZL18intersectAnyVsMeshILi1EEbPKN5physx2Gu6SphereEPKNS1_7CapsuleEPKNS1_3BoxERKNS1_13RTreeMidphaseERKNS0_11PxTransformERKNS0_11PxMeshScaleEP14LimitedResults
NTk:__ZN15dense_hashtableINSt3__24pairIK10KeyWrapperIP12Il2CppObjectEN6il2cpp2gc9CachedCCWEEES5_NS7_5utils11PointerHashIS3_EEN14dense_hash_mapIS5_S9_SD_NS5_14EqualsComparerINS0_8equal_toIS4_EEEENS0_9allocatorISA_EEE9SelectKeyESI_SK_E3endEv
UNb:__Z14resize_trimmedINSt3__26vectorIi13stl_allocatorIiL18MemLabelIdentifier12ELi16EEEEEvRT_j
Chh:_RecordProtocol_ProcessChangeCipherSpec_m15839975
cwf:_ArrayList_IndexOf_m305368842
r7c:__ZN5physx6shdfnd5ArrayIPvNS0_15InlineAllocatorILj256ENS0_19ReflectionAllocatorINS_2Cm5BlockIhLj128EEEEEEEE15growAndPushBackERKS2_
Ngb:__ZN6Camera6SetFarEf
fue:_UNITY_FT_Init_Class_ft_bitmap_glyph_class
pya:__ZN6prcoreL12RemapGenericI17TexFormatABGR888817TexFormatARGB8888EEvPKNS_9InnerInfoE
Tqb:__ZN11GameManager17MainThreadCleanupEv
zPg:_ReadOnlyCollection_1__ctor_m1345363288_gshared
AKe:__Z50Register_UnityEngine_UISystemProfilerApi_EndSamplev
Cqi:_SerializationCallbacks_GetSerializationCallbacks_m2939476649
Eqd:__ZNK5physx7NpCloth24getParticleAccelerationsEPNS_6PxVec4E
Szf:_Hashtable__cctor_m4112166779
gCe:_UNITY_tt_slot_init
K0a:__ZZ23InitPlayerLoopCallbacksvEN41PostLateUpdateUpdateResolutionRegistrator7ForwardEv
v2b:__Z25scripting_array_class_get17ScriptingClassPtrj
wIc:__ZL22Transfer_ManagedObjectI9JSONWriteLb1EEvRK29SerializationCommandArgumentsR31RuntimeSerializationCommandInfo
TR:__ZNK10SampleClip22GetTypeVirtualInternalEv
ZJa:__ZN9GfxDevice20DestroyRenderSurfaceER12ObjectHandleI17RenderSurface_TagP17RenderSurfaceBaseE
tCf:_Stack__ctor_m2602729586
Nka:__ZN18SpriteAtlasManagerC2Ev
Adc:__ZL24PrepareSpriteRenderNodesILb1EEvR35RenderNodeQueuePrepareThreadContext
rXa:__ZN9GfxDevice22UpdateComputeResourcesEjPK9TextureIDPK16TextureDimensionPKijPKjjPK15ComputeBufferIDS7_PK20ComputeBufferCounterjSC_S2_S5_S9_SF_
Uic:__ZN12_GLOBAL__N_15qAsinEff
Bxh:_Comparer_1__cctor_m3470905005_gshared
NHj:_InternalEnumerator_1_System_Collections_IEnumerator_get_Current_m2629988057_AdjustorThunk
wob:__ZN12TLSAllocatorI14StackAllocatorE13ThreadCleanupEv
anl:_Random_Range_m2870227214
xHi:_ValueType_InternalEquals_m1384040357
B_k:__ZThn4_N6il2cpp2vm13ComObjectBase16MarshalInterfaceEP13Il2CppIStreamRK10Il2CppGuidPvjS7_j
tBf:_Queue_Clone_m178259971
PFb:__ZN4Mesh27SwizzleVertexColorsIfNeededEb
cpb:__Z27FindActiveTransformWithPathPKc
JTg:_ReadOnlyCollection_1_System_Collections_IList_Remove_m4169110229_gshared
OEi:_UInt16_ToString_m3020002356
tEd:__ZN5physx16PxsIslandManager14setEdgeRigidCMERKNS_20PxsIslandManagerHookIjLj4294967295EEEPNS_17PxsContactManagerE
Cof:_LayoutRebuilder_LayoutComplete_m68578143
Uqa:__ZN7Texture5ResetEv
UBf:_SortedList_Find_m3363512987
h8d:__ZN5physx2Gu11HeightField7releaseEv
U8a:__ZNK6Camera7GetNearEv
W3i:_GenericTypeParameterBuilder_GetConstructorImpl_m863833310
gSa:__ZN7ApiGLES11UnmapBufferEjN2gl12BufferTargetE
M_k:__ZN6il2cpp5utilsL24Utf32CharToSurrogatePairEjRA2_Ds
Mzb:__Z25GetNextAllowedTextureSizeib13TextureFormat
ina:__ZN20LocalFileSystemWebGL4CopyER13FileEntryDataS1_
y4:__ZN19CloudServiceHandler6RetainEv
pQg:_ReadOnlyCollection_1_System_Collections_IList_IndexOf_m198887188_gshared
Tvg:_List_1_set_Item_m1129294121_gshared
uxi:_UTF32Encoding_GetBytes_m3180303867
ksb:__ZN12BaseRenderer20FlattenToRenderQueueER15RenderNodeQueueRK20DeprecatedSourceData
i0d:__ZN5physx2Sc8ClothSim23addCollisionHeightfieldEPKNS0_8ShapeSimE
WAa:__Z34scripting_liveness_calculation_endPv
cWk:__ZN6il2cpp2os6ThreadC2Ev
mKf:_DateTimeOffset_get_UtcDateTime_m1021718282_AdjustorThunk
iz:__ZN21AnimationClipPlayable22ProcessAnimationNoClipEPK35AnimationPlayableEvaluationConstantPK32AnimationPlayableEvaluationInputP33AnimationPlayableEvaluationOutput
rEe:__ZNK19TextRenderingModule8TMGenGetERK11UTF16StringPN13TextRendering4FontE10TextAnchor13TextAlignmentfffbb11ColorRGBA32fii
Ykh:_HybridDictionary_get_Count_m1166314536
geh:_TlsStream_Write_m1412844442
TJc:__Z18Transfer_BlittableI8JSONReadLb0E8Vector3fEvRK29SerializationCommandArgumentsR31RuntimeSerializationCommandInfo
Eu:__ZN13AnimationClip12Vector3Curve8TransferI14SafeBinaryReadEEvRT_
$Kk:__ZN6il2cpp2vm6Thread6DetachEP12Il2CppThread
aYj:_GeneralNames_get_DNSNames_m3788548987
Yxe:_Render_Single_Pass
daj:_MonoProperty_GetOptionalCustomModifiers_m62958967
KH:__ZN7mecanim8skeleton30SkeletonBuildReverseIndexArrayEPiPKiPKNS0_8SkeletonES6_
DAc:__Z19GetGUIBlendMaterialv
Ylg:_Math_Round_m3018379666
QWk:__ZN6il2cpp2os10ThreadImpl5SleepEjb
rQg:_ReadOnlyCollection_1_System_Collections_IList_Remove_m1965826685_gshared
WUd:__ZN5physx14SapPairManager12shrinkMemoryEv
HIc:__ZN9JSONWrite8TransferI13GUIStyleStateEEvRT_PKc17TransferMetaFlags
HM:__ZN19StreamedBinaryWriteILb0EE21TransferSTLStyleArrayI22OffsetPtrArrayTransferIN7mecanim5human6HandleEEEEvRT_17TransferMetaFlags
mMf:_Delegate_CreateDelegate_m1051651521
vce:__ZN5physx6shdfnd8internal7median3IjKNS_19SortBoundsPredicateEEEvPT_iiRT0_
wpj:_Collision_GetEnumerator_m1912447147
FI:__ZN18AnimatorController23VirtualRedirectTransferER24GenerateTypeTreeTransfer
bzm:_glBindSampler__wrapper
qg:_emscripten_set_mouseup_callback
u3b:__Z14resize_trimmedINSt3__26vectorIN9ShaderLab14SerializedPassENS0_9allocatorIS3_EEEEEvRT_j
bXh:__Z165RuntimeInvoker_Void_t1185182177_UInt32U26_t3735378166_Int32_t2950945753_UInt32U26_t3735378166_Int32_t2950945753_Int32_t2950945753_Int32_t2950945753_Int32_t2950945753PFvvEPK10MethodInfoPvPS4_
msg:_List_1_System_Collections_IList_Remove_m3140917266_gshared
vlj:_AudioPlayableOutput__ctor_m270302921
PNi:_CompositeExpression__ctor_m2434860303
fHd:__ZN5physx7NpScene22removeBroadPhaseRegionEj
r4c:__ZL34GeomOverlapCallback_CapsuleCapsuleRKN5physx10PxGeometryERKNS_11PxTransformES2_S5_PNS_2Gu12TriggerCacheE
qma:__ZNK18ScreenManagerWebGL8GetWidthEv
nGd:__ZNK5physx7NpScene23getFilterShaderDataSizeEv
QR:__ZN10SampleClipD2Ev
mjj:_AnimatorTransitionInfo_get_durationUnit_m785951678_AdjustorThunk
Bek:_Predicate_1_Invoke_m2389850270_gshared
i4:__ZN11UnityEngine15CloudWebService20WebRequestRestClientC2Ev
CBe:_cff_cmap_unicode_init
yRf:_Array_InternalArray__ICollection_Contains_TisRuntimeObject_m4067783231_gshared
w7h:__Z75RuntimeInvoker_Single_t1397266774_IntPtr_t_RuntimeObject_Single_t1397266774PFvvEPK10MethodInfoPvPS4_
OCc:__Z36Event_CUSTOM_Internal_SetNativeEvent13Il2Cpp_IntPtr
lGg:_Collection_1_IsValidItem_m3080586124_gshared
Ncf:_ClipperRegistry_Register_m2407166513
mpm:_readlink
iGk:__ZN15dense_hashtableINSt3__24pairIK10KeyWrapperINS1_IPK9EventInfoP11Il2CppClassEEEjEES9_17ReflectionMapHashIS8_EN14dense_hash_mapIS9_jSD_NS9_14EqualsComparerINS0_8equal_toIS8_EEEENS0_9allocatorISB_EEE9SelectKeyESI_SK_E12resize_deltaEjj
Z7i:_MonoCMethod_Invoke_m2700167622
QAf:_KeyMarker__cctor_m2590194914
lzh:_Enumerator_Reset_m627751027_AdjustorThunk
p_k:__ZN6il2cpp6icalls8mscorlib6System15MonoCustomAttrs31GetCustomAttributesDataInternalEP12Il2CppObject
DHi:_Version__ctor_m872301635
UJb:__ZNK6Sprite9GetBoundsE8Vector2fbb
A2a:__ZNK19RenderEventsContext21CleanupCommandBuffersEv
yJ:__ZN7mecanim12statemachine13StateConstant8TransferI14SafeBinaryReadEEvRT_
lNa:__ZN11ContextGLES6CreateEi
LXc:__ZN5physx6shdfnd5ArrayINS_10PxTriangleENS0_19ReflectionAllocatorIS2_EEE15growAndPushBackERKS2_
Hlm:_Vector3_Equals_m496167795_AdjustorThunk
p1g:_DSAManaged_GenerateParams_m2848737814
qnf:_U3CMouseDragOutsideRectU3Ec__Iterator1_Dispose_m267465418
PLf:_Decimal_CompareTo_m3502307243_AdjustorThunk
W1b:__Z19TransferField_ArrayI18StreamedBinaryReadILb0EE27Converter_SimpleNativeClassI17AnimationCurveTplIfEEEvRK23StaticTransferFieldInfoR31RuntimeSerializationCommandInfoRT0_
hob:__ZN14StackAllocator16FrameMaintenanceEb
bTc:__ZL11SweepBoxBoxPKN5physx3Cct9SweepTestEPKNS0_11SweptVolumeEPKNS0_11TouchedGeomERKNS_14PxExtendedVec3ERKNS_6PxVec3ERNS0_12SweptContactE
Kqb:__Z18ReadStringFromFilePN4core17string_with_labelILi1EEERKNS_12basic_stringIcNS_20StringStorageDefaultIcEEEE
owj:_Scrollbar_get_value_m760470106
O8:__ZNK10GameObject20QueryComponentByTypeEPKN5Unity4TypeE
wUi:_HttpRequest_GetResponse_m4168170030
gLf:_Decimal_System_IConvertible_ToInt32_m1488426794_AdjustorThunk
zmg:_MonoCustomAttrs_IsUserCattrProvider_m2878058089
v4l:__ZL71InputField_t3762917431_CustomAttributesCacheGenerator_m_HideMobileInputP21CustomAttributesCache
VQ:__Z78AnimatorControllerPlayable_CUSTOM_INTERNAL_CALL_IsParameterControlledByCurveIDR9HPlayablei
KEa:__ZN11TextureData5ResetEv
suc:__Z53Register_UnityEngine_GameObject_get_activeInHierarchyv
u6g:_ActivationContext_Dispose_m2038725770
kaa:__ZL30InitializeCoreScriptingClassesv
lWf:_Array_compare_TisVector4_t3319028937_m1974066282_gshared
lh:_glBlitFramebuffer
jMd:__ZNK5physx2Sc5Scene17prefetchForRemoveERKNS0_10StaticCoreE
upg:_Enumerator_System_Collections_IEnumerator_get_Current_m3594024719_gshared
yUb:__Z35Transfer_Blittable_SingleValueFieldI14SafeBinaryReadhEvRT_R17GeneralMonoObjectRK23StaticTransferFieldInfo
KQe:__ZN22BaseUnityConnectClientC2ERN11UnityEngine7Connect20BasePersistentValuesE
l7a:__ZN13dynamic_arrayI11CulledLightLj4EE6insertEPS0_PKS0_S4_
_wc:__Z81Register_UnityEngine_Playables_PlayableHandle_INTERNAL_CALL_SetInputCountInternalv
yyb:__ZNK12CubemapArray22GetTypeVirtualInternalEv
swb:__ZN11Tetrahedron8TransferI18StreamedBinaryReadILb0EEEEvRT_
Ko:FUNCTION_TABLE_vif
Lo:FUNCTION_TABLE_vid
No:FUNCTION_TABLE_vii
iBa:__Z40scripting_liveness_calculation_from_root18ScriptingObjectPtrPv
lnh:_WriteMethod_BeginInvoke_m2181678049
XSi:_Ext_ToUri_m1852947268
sta:__ZN7Texture23VirtualRedirectTransferER24GenerateTypeTreeTransfer
Are:_UNITY_FT_Set_Transform
oSk:__ZN6il2cpp8metadata15GenericMetadata20RegisterGenericClassEP18Il2CppGenericClass
Iym:_glDeleteFramebuffers__wrapper
qTh:__Z220RuntimeInvoker_Boolean_t97287965_RuntimeObject_Int32U26_t1369213839_Int32_t2950945753_Int32_t2950945753_Int32_t2950945753_RuntimeObject_SByte_t1669577662_Int32_t2950945753_ContractionU26_t961830454_ContextU26_t3937453398PFvvEPK10MethodInfoPvPS4_
Y6j:_UnityEvent_4_FindMethod_Impl_m96988021_gshared
Ftc:__Z36Register_UnityEngine_RectOffset_Initv
Dyk:__ZN6il2cpp2vm7Runtime17GetDelegateInvokeEP11Il2CppClass
$uh:_WebHeaderCollection_ToString_m1263025316
iaj:_GetterAdapter_Invoke_m3767885970
Uwg:_List_1__ctor_m747758800_gshared
a4e:_String_CreateString_m2818852475
Kjd:__ZN5physx12NpBatchQuery13getUserMemoryEv
Du:__Z14resize_trimmedINSt3__26vectorIN13AnimationClip12Vector3CurveE13stl_allocatorIS3_L18MemLabelIdentifier25ELi16EEEEEvRT_j
jYa:__ZNK15Lz4Decompressor16DecompressMemoryEPKvPjPvS2_
swe:_UNITY_tt_face_build_cmaps
Fve:_UNITY_tt_face_load_os2
b_d:__ZN5physx2GuL34fullContactsGenerationSphereConvexERKNS0_8CapsuleVERKNS0_11ConvexHullVERKNS_6shdfnd3aos12PsTransformVESB_PNS0_17PersistentContactERjRNS0_13ContactBufferEbRNS0_25PersistentContactManifoldERNS8_5Vec3VERKNS8_6FloatVEb
OP:__Z90Register_UnityEngine_Animations_AnimationOffsetPlayable_INTERNAL_CALL_CreateHandleInternalv
f7c:__ZN5physx6shdfnd8PoolBaseINS_2Sc19ConstraintGroupNodeENS0_19ReflectionAllocatorIS3_EEE17releaseEmptySlabsEv
$Tb:__Z29Transfer_Blittable_ArrayFieldI14SafeBinaryRead8Vector4fEvRT_R9ArrayInfoRK23StaticTransferFieldInfo
Wme:__ZNSt3__27__sort4IRNS_6__lessI24InterpolationDepthHandleS2_EEPS2_EEjT0_S6_S6_S6_T_
nmj:_Bounds_get_size_m1171376090
wyi:_UTF8Encoding_GetMaxCharCount_m3762459613
k1i:_ModuleBuilder_RegisterToken_m4166846047
B0a:__ZZ23InitPlayerLoopCallbacksvEN51PostLateUpdateUpdateCustomRenderTexturesRegistrator7ForwardEv
Bvj:_RawImage_OnPopulateMesh_m1115858855
evk:__ZN6il2cpp2vm13MetadataCache25GetStringLiteralFromIndexEi
Czf:_Hashtable_ToPrime_m33531354
Gz:__ZN7mecanim9animation12EvaluateClipEPKNS0_4ClipEPKNS0_9ClipInputEPNS0_10ClipMemoryEPNS0_10ClipOutputE
MMg:_Collection_1_IsSynchronized_m1117613618_gshared
_Rg:_ReadOnlyCollection_1_System_Collections_IList_Insert_m2506606514_gshared
n$c:__ZN5physx3Cct9SweepTest15onObstacleAddedEjPKNS_17PxObstacleContextERKNS_6PxVec3ES7_f
ste:__ZN20TextRenderingPrivate7GUIText18GetFontAndMaterialEv
RDi:_TypeInitializationException__ctor_m3546444694
gXf:_Array_InternalArray__IndexOf_TisInt32_t2950945753_m738632427_gshared
tig:_MemoryStream_set_Position_m3169779190
hfb:__ZN13RenderManager29SetCurrentCameraAndStackStateEP6CameraP25CameraStackRenderingState
K7e:_ExecuteEvents_get_scrollHandler_m2659345019
NKk:__ZN15dense_hashtableINSt3__24pairIK10KeyWrapperINS1_IP11Il2CppClassjEEES4_EES6_N6il2cpp8metadata14ArrayClassHashEN14dense_hash_mapIS6_S4_SB_NS6_14EqualsComparerINSA_17ArrayClassCompareEEENS0_9allocatorIS8_EEE9SelectKeyESF_SH_E12resize_deltaEjj
zi:_JS_WebRequest_Release
x2:__ZN11UnityEngine15CloudWebService14DataErrorEventD0Ev
QGd:__ZNK5physx7NpScene18getStaticStructureEv
PVj:_Context__ctor_m254302079
BQd:__ZN5physx13PxsCCDContext12postCCDSweepEPNS_10PxBaseTaskE
kSk:__ZN6il2cpp8metadata15GenericMetadata7InflateEPK19Il2CppGenericMethodPK20Il2CppGenericContext
J1a:__ZN19ShaderPropertySheet16SetArrayPropertyEN9ShaderLab16FastPropertyNameENS_12PropertyTypeEPKvj
exj:_Selectable_FindSelectable_m2348614027
ycm:_Rect_get_yMax_m2926206027_AdjustorThunk
bde:__ZN5physx6shdfnd10Foundation19AlignCheckAllocator28deregisterAllocationListenerERNS_20PxAllocationListenerE
DGh:_ValueCollection_System_Collections_ICollection_get_SyncRoot_m1849311106_gshared
SBc:__ZN8GUIState8EndOnGUIEv
xOk:__ZN6il2cpp6icalls8mscorlib6System2IO6MonoIO16get_ConsoleErrorEv
nCe:_UNITY_TT_Get_VMetrics
Iwh:_X509Chain__cctor_m993507223
PSd:__ZN5physx33solveContactCoulombBlockWriteBackEPKNS_23PxcSolverConstraintDescEjRNS_16PxcSolverContextEPNS_25PxcThresholdStreamElementEjPi
txf:_SimpleEnumerator__cctor_m2844299657
Mlg:_LocalDataStoreSlot__ctor_m4104083971
aUg:_ReadOnlyCollection_1_System_Collections_Generic_IListU3CTU3E_RemoveAt_m3849058645_gshared
h_j:_X509CertificateEnumerator_System_Collections_IEnumerator_Reset_m2039524926
C_d:__ZN5physx9PxTaskMgr17submitUnnamedTaskERNS_6PxTaskENS_10PxTaskType4EnumE
q_h:__Z128RuntimeInvoker_Void_t1185182177_RuntimeObject_BooleanU26_t4125257963_SByte_t1669577662_Int32U26_t1369213839_Int32U26_t1369213839PFvvEPK10MethodInfoPvPS4_
NPa:__ZN7Texture21GetMasterTextureLimitEv
Rhb:__Z12CanAddScriptR10GameObject17ScriptingClassPtrPS1_S2_
hJk:__ZN6il2cpp2vm10Reflection12HasAttributeEP12Il2CppObjectP11Il2CppClass
dMc:__ZN8JSONRead21TransferSTLStyleArrayI13dynamic_arrayI4AABBLj4EEEEvRT_18MemLabelIdentifier17TransferMetaFlags
ZWg:_Comparison_1_BeginInvoke_m3263247262_gshared
X8:__ZN9ShaderLabL25StaticInitializeShaderLabEPv
qfe:__ZN12MeshCollider23VirtualRedirectTransferER24GenerateTypeTreeTransfer
uOd:__ZNK5physx2Sq12BucketPruner5sweepERKNS0_9ShapeDataERKNS_6PxVec3ERfRNS0_14PrunerCallbackE
U:Math_max
e7l:__ZL64HorizontalLayoutGroup_t2586782146_CustomAttributesCacheGeneratorP21CustomAttributesCache
pzk:_il2cpp_class_get_methods
gNf:_StackTrace_get_trace_m1194606084
z1e:_Single_CompareTo_m2785801815_AdjustorThunk
kWk:__ZN6il2cpp2os6Thread16GetCurrentThreadEv
tMh:_Dictionary_2_OnDeserialization_m1544659954_gshared
x$f:_Array_InternalArray__Insert_TisUILineInfo_t4195266810_m3191124053_gshared
njc:__ZN10GameObject13ComponentPair15SetComponentPtrEPN5Unity9ComponentE
xle:__ZN5physx6shdfnd8internal8HashBaseINS0_4PairIKPKNS0_14NamedAllocatorEPKcEES6_NS0_4HashIS6_EENS1_11HashMapBaseIS6_S9_SC_NS0_20NonTrackingAllocatorEE6GetKeyESE_Lb1EE15reserveInternalEj
bbc:__Z13RegisterClassI10MeshFilterEvv
FO:__ZNK26AnimatorControllerPlayable24GetAnimatorClipInfoCountEib
Rrb:__ZN10TagManager8TransferI19StreamedBinaryWriteILb0EEEEvRT_
KQb:__ZN11PreloadData23VirtualRedirectTransferER18StreamedBinaryReadILb0EE
pyh:_Enumerator_VerifyCurrent_m2516497577_AdjustorThunk
OE:__Z17dynamic_pptr_castIP10MonoScript6ObjectET_RK4PPtrIT0_E
nBh:_ShimEnumerator_Reset_m1479883403_gshared
wuf:_Char_System_IConvertible_ToDateTime_m3564102661
i4f:_BaseInvokableCall_ThrowOnInvalidArg_TisBoolean_t97287965_m1128114209_gshared
jBf:_SyncHashtable_Clone_m3726939774
lDb:__ZN6Sprite17MainThreadCleanupEv
ixm:_glBlendFuncSeparate__wrapper
NGi:_UIntPtr_System_Runtime_Serialization_ISerializable_GetObjectData_m1767630151
WDi:_TypeLoadException_GetObjectData_m2127700107
UW:__ZN10AudioMixer14UpdateMuteSoloEv
hhj:_AnimatorControllerPlayable_INTERNAL_CALL_GetNextAnimatorClipInfoInternal_m2371459754
vTf:_PlayableHandle_IsPlayableOfType_TisRuntimeObject_m1023351752_AdjustorThunk
mmd:__ZN5physx6shdfnd5ArrayINS_3Scb13MaterialEventENS0_19ReflectionAllocatorIS3_EEE15growAndPushBackERKS3_
Dil:_MeshCollider_set_skinWidth_m2434276555
ZZh:__Z69RuntimeInvoker_UInt64_t4134040092_Int32_t2950945753_SByte_t1669577662PFvvEPK10MethodInfoPvPS4_
eua:__ZN9ShaderLab10SubProgram7CompileEv
CCm:_glDepthFunc__wrapper
Yvj:_Raycast2DCallback_Invoke_m1500574149
AHa:__ZNSt3__218__insertion_sort_3IRNS_4lessIN22BuiltinResourceManager8ResourceEEEPS3_EEvT0_S7_T_
TPi:_CharacterClass_Compile_m3296067317
W8c:__ZN5physx2Sc5Scene11onBodySleepEPNS0_7BodySimE
cYk:__ZN6il2cpp2gc16GarbageCollector16InvokeFinalizersEv
J$a:__ZN10MemoryFileC2E18MemLabelIdentifierP14MemoryFileData14FilePermission
Btf:_Byte_System_IConvertible_ToInt64_m285584218_AdjustorThunk
AVi:_NetworkCredential_get_Password_m1692968435
Q8j:_AttributeHelperEngine_GetCustomAttributeOfType_TisRuntimeObject_m2601070632_gshared
Dnk:__ZN6il2cpp2vm5Class20FromGenericParameterEPK22Il2CppGenericParameter
X4:__ZN19CloudServiceHandler11FlushEventsEv
yja:__ZN15GlobalCallbacksC2Ev
tsm:dynCall_vff
HYf:_Array_InternalArray__ICollection_Add_TisLabelData_t360167391_m1648183135_gshared
xR:__Z82Register_UnityEngine_Animations_AnimatorControllerPlayable_INTERNAL_CALL_SetBoolIDv
Sxh:_Comparer_1_System_Collections_IComparer_Compare_m2016223770_gshared
mvi:_Encoding_GetBytes_m3823106599
oZh:__Z74RuntimeInvoker_DateTime_t3738529785_DateTime_t3738529785_Int32_t2950945753PFvvEPK10MethodInfoPvPS4_
_se:_UNITY_FT_New_Memory_Face
qJg:_Collection_1_System_Collections_IList_IndexOf_m3271188411_gshared
pQ:__Z81AnimatorControllerPlayable_CUSTOM_INTERNAL_CALL_GetAnimatorTransitionInfoInternalR9HPlayablei
Tqe:__ZN20TextRenderingPrivate21TextMeshGeneratorImpl5FlushEv
fig:_MonoIO_GetFileStat_m678141354
$Og:_ReadOnlyCollection_1_System_Collections_Generic_ICollectionU3CTU3E_Remove_m1363008147_gshared
E$e:__Z15CastclassSealedP12Il2CppObjectP11Il2CppClass
Jmd:__ZN5physx9NpPhysics16createConvexMeshERNS_13PxInputStreamE
ELf:_Decimal_IsZero_m4250358244_AdjustorThunk
ylg:_UnmanagedMemoryStream_get_CanRead_m3770815400
kgb:__ZN16ReflectionProbes40UpdateRealtimeReflectionProbesTimeslicedEv
tDf:_Decimal_u64_m3374804932
xhm:_TextEditor_MoveTextStart_m3741528544
h8c:__ZN5physx2Sq17SceneQueryManager8addShapeERKNS_7NpShapeERKNS_12PxRigidActorEbPNS_9PxBounds3E
kEi:_UInt16_System_IConvertible_ToInt32_m1950778303_AdjustorThunk
INb:__ZNK30RuntimeInitializeOnLoadManager22GetTypeVirtualInternalEv
usk:__ZN15dense_hashtableINSt3__24pairIK10KeyWrapperIN6il2cpp5utils13dynamic_arrayIPK10Il2CppTypeLj4EEEEPFvvEEESA_NS3_8metadata19Il2CppSignatureHashEN14dense_hash_mapISA_SD_SG_NSA_14EqualsComparerINSF_22Il2CppSignatureCompareEEENS0_9allocatorISE_EEE9SelectKeyESK_SM_E12resize_deltaEjj
hgc:__ZN16ReflectionProbes15InitializeClassEv
Mte:_UNITY_FT_Destroy_Class_psnames_module_class
ESi:_Ext_Decompress_m4005664730
D3f:_Dictionary_2_Do_ICollectionCopyTo_TisKeyValuePair_2_t3699644050_m4159638770_gshared
qQk:__ZN6il2cpp2vm5Image9GetCorlibEv
wue:_ft_bitmap_glyph_bbox
Hvj:_RectMask2D__ctor_m1497447338
UE:__ZN8Animator13BatchedFKPassERK13dynamic_arrayIP14PlayableOutputLj4EE
Xwc:__Z75Register_UnityEngine_Playables_PlayableHandle_INTERNAL_CALL_SetTimeInternalv
wSd:__ZNK5physx2Gu29EPASupportMapPairRelativeImplINS0_8CapsuleVES2_E9doSupportERKNS_6shdfnd3aos5Vec3VERS6_S9_S9_
x7e:_ExecuteEvents_Execute_m113814934
Y0f:_Array_qsort_TisColor32_t2600501292_m1362211604_gshared
cqj:_Component_GetComponentsInChildren_m2110248505
mce:__ZN5physx10SubSortSAH5sort4EPjjRNS_6shdfnd5ArrayINS_11RTreeNodeNQENS2_19ReflectionAllocatorIS4_EEEERjjPS4_
vyh:_Enumerator_System_Collections_IEnumerator_get_Current_m2979767597_AdjustorThunk
CVe:_MD5CryptoServiceProvider_ProcessFinalBlock_m2241588515
oyj:_ScrollRect_GetBounds_m449872505
xk:_glIsVertexArray
ohe:__ZN14SphereCollider16TransformChangedEi
Qbg:_Int16_Parse_m2276856944
lOb:__ZNSt3__26vectorIN4core12basic_stringIcNS1_20StringStorageDefaultIcEEEE13stl_allocatorIS5_L18MemLabelIdentifier12ELi16EEEC2INS_11__wrap_iterIPS5_EEEET_SE_RKS8_PNS_9enable_ifIXaasr21__is_forward_iteratorISE_EE5valuesr16is_constructibleIS5_NS_15iterator_traitsISE_E9referenceEEE5valueEvE4typeE
SYa:__ZN25SingleBlockMemoryFileDataC2E18MemLabelIdentifierPvjb
ga:invoke_fff
efm:_SceneManager_Internal_ActiveSceneChanged_m1220784726
TZi:_WebSocketFrame_System_Collections_IEnumerable_GetEnumerator_m3955528742
Ivm:b14
Gke:__ZN5physx2Sc7PhysicsC2ERKNS_17PxTolerancesScaleERKNS_14PxvOffsetTableE
Ume:__ZNSt3__26__sortIRNS_6__lessI24InterpolationDepthHandleS2_EEPS2_EEvT0_S6_T_
aFe:__ZN2UI6Canvas17MainThreadCleanupEv
Zxa:__ZN6prcoreL12RemapGenericI17TexFormatARGB155517TexFormatRGBA8888EEvPKNS_9InnerInfoE
Hpk:__ZN13Il2CppHashMapIPK19Il2CppGenericMethodPK26Il2CppGenericMethodIndicesN6il2cpp8metadata23Il2CppGenericMethodHashENS7_26Il2CppGenericMethodCompareENSt3__29allocatorINSA_4pairIK10KeyWrapperIS2_ES5_EEEEEC2EjRKS8_RKS9_
Gvm:b12
q6i:_TypeBuilder_HasElementTypeImpl_m1871001960
E0e:_SecurityFrame__ctor_m2140076703_AdjustorThunk
r$j:_DefaultComparer_Equals_m2458578172_gshared
IVa:__ZN7ApiGLES13CreateProgramEv
Ntb:__ZN11HaloManager7AddHaloEv
szh:_Enumerator_VerifyState_m4003066746_gshared
ZPa:__ZN4crnd12crn_unpackerD2Ev
Kk:_emscripten_glTexImage2D
_Be:_tt_driver_class_pic_init
aaa:__ZN18ScriptingArguments9AddStringEPKc
VHj:_InternalEnumerator_1_System_Collections_IEnumerator_get_Current_m2742943179_gshared
wvf:_Char_ToString_m3588025615
NMj:_InternalEnumerator_1_System_Collections_IEnumerator_get_Current_m1911422882_AdjustorThunk
Nrm:runPostSets
vSd:__ZNK5physx2Gu29EPASupportMapPairRelativeImplINS0_8CapsuleVES2_E18doWarmStartSupportEiiRNS_6shdfnd3aos5Vec3VES7_S7_
j1g:_CryptoConvert_ToCapiKeyBlob_m3371450375
VDa:__ZL23stbir__resize_arbitraryPvPKviiiS_iiiffffPfiij14stbir_datatype12stbir_filterS4_10stbir_edgeS5_16stbir_colorspace
KWb:__Z18Transfer_BlittableI24GenerateTypeTreeTransferLb1E8Vector4fEvRK29SerializationCommandArgumentsR31RuntimeSerializationCommandInfo
Mvm:b18
Vk:_pthread_detach
awk:__ZN6il2cpp2vm19SocketPollingThread7RunLoopEv
Gml:_ScriptPlayableOutput_Create_m2994737113
Ugf:_FontUpdateTracker_UntrackText_m1981515690
ENd:__ZN5physx11EdgeManager6resizeEj
Rjc:__ZN15DirectorManager20ScheduleGraphDestroyERK14HPlayableGraph
MGa:__ZNSt3__213__stable_sortIRN10vector_mapI17ScriptingClassPtrPKN5Unity4TypeENS_4lessIS2_EENS_9allocatorINS_4pairIS2_S6_EEEEE13value_compareENS_11__wrap_iterIPSB_EEEEvT0_SJ_T_NS_15iterator_traitsISJ_E15difference_typeEPNSM_10value_typeEi
PZg:_SimpleCollator_FillSurrogateSortKeyRaw_m725998232
jzg:_List_1_AddEnumerable_m1284696147_gshared
qph:_IPAddress_Equals_m1823478787
FZj:_X509Certificate_get_RSA_m1755006809
zWj:_Context_CreateNewContext_m3053563976
Z5b:__ZN9ShaderLab25SerializedTextureProperty8TransferI24GenerateTypeTreeTransferEEvRT_
$Gk:__ZN6il2cpp2gc19AppendOnlyGCHashMapINSt3__24pairIPK14Il2CppAssemblyP11Il2CppClassEEP24Il2CppReflectionAssembly17ReflectionMapHashIS9_ENS2_8equal_toIS9_EEEC2Ev
xAd:__ZN5physx2Sc5Scene12removeStaticERNS0_10StaticCoreERNS_6shdfnd11InlineArrayIPKNS0_9ShapeCoreELj64ENS4_19ReflectionAllocatorIS8_EEEEb
eEc:__Z32GUIStyle_Get_Custom_PropFontSizeP12Il2CppObject
jAf:_Hashtable_Clear_m3112193608
eyi:_UTF8Encoding_InternalGetByteCount_m771565606
JKc:__Z18Transfer_BlittableI8JSONReadLb1EyEvRK29SerializationCommandArgumentsR31RuntimeSerializationCommandInfo
hug:_List_1_System_Collections_IList_Remove_m3654336679_gshared
eMl:__ZL51GUILayer_t2783472903_CustomAttributesCacheGeneratorP21CustomAttributesCache
ql:_emscripten_glMatrixMode
Iuj:_MaskableGraphic_UnityEngine_UI_IClippable_get_gameObject_m1739855597
yx:__ZN8Animator23VirtualRedirectTransferER18StreamedBinaryReadILb0EE
Dag:_Guid__ctor_m3562600567_AdjustorThunk
N4:__ZN19CloudServiceHandler19StopEventDispatcherEv
c8d:__ZN5physx13GuMeshFactory17createHeightFieldERNS_13PxInputStreamE
GDd:__ZN5physx2Sc10NPhaseCore25createShapeInstancePairLLERNS0_8ShapeSimES3_NS_7PxFlagsINS_10PxPairFlag4EnumEtEE
Slj:_PCMSetPositionCallback_BeginInvoke_m2733210754
Ajm:_Texture2D_INTERNAL_CALL_GetPixelBilinear_m3709190890
T1:__ZN11UnityEngine15CloudWebService14DataDispatcher16PrepareDataBlockERNS0_16SessionContainerE
ZVa:__ZN18GfxFramebufferGLES5ClearE13GfxClearFlagsRK10ColorRGBAffib
LEd:__ZThn8_N5physx2Sc19ShapeInstancePairLL12onDeactivateEj
Elc:__Z21CalculateClosestPointRK8Vector3fRK4AABBRS_Rf
cYf:_MonoProperty_StaticGetterAdapterFrame_TisRuntimeObject_m4131530968_gshared
WGi:_UIntPtr_ToString_m984583492_AdjustorThunk
j1b:__ZL26Transfer_SimpleNativeClassI18StreamedBinaryReadILb0EE10RectOffsetLb0EEvRK29SerializationCommandArgumentsR31RuntimeSerializationCommandInfo
Jte:_UNITY_ft_destroy_default_module_classes
G6a:__ZL12DepthPassJobPN21GfxDeviceAsyncCommand10ArgScratchEPKNS_3ArgE
A4b:__ZNSt3__26vectorIN9ShaderLab20SerializedSubProgram16TextureParameterENS_9allocatorIS3_EEE6assignINS_11__wrap_iterIPS3_EEEENS_9enable_ifIXaasr21__is_forward_iteratorIT_EE5valuesr16is_constructibleIS3_NS_15iterator_traitsISC_E9referenceEEE5valueEvE4typeESC_SC_
Ode:__ZN9Rigidbody16ApplyConstraintsEv
Qzi:_Thread_SetCachedCurrentUICulture_m1729523031
RIe:__Z55Register_UnityEngine_CanvasGroup_get_ignoreParentGroupsv
Ebc:__Z13RegisterClassI19LowerResBlitTextureEvv
yn:FUNCTION_TABLE_iiiiiiiiiiii
Myg:_List_1_get_Item_m1686506901_gshared
nwd:__ZN5physx2Sc17ParticleSystemSim8setFlagsEj
ptb:__ZN16GraphicsSettingsD0Ev
Leb:__ZN15LODGroupManager21CalculateLODDataArrayERK13LODParametersPK6Cameraf
n:cttz_i8
Tze:_UNITY_FT_GlyphLoader_Add
ebe:__ZN5physx2Gu15EdgeListBuilder18CreateEdgesToFacesEjPKjPKt
wXc:__ZN5physx11PxMeshQuery5sweepERKNS_6PxVec3EfRKNS_10PxGeometryERKNS_11PxTransformEjPKNS_10PxTriangleERNS_10PxSweepHitENS_7PxFlagsINS_9PxHitFlag4EnumEtEEPKjfb
rQj:_DefaultComparer_Compare_m1878901918_gshared
gVi:_Logger_Warn_m466054747
oOb:__ZN15SerializeTraitsINSt3__26vectorIN30RuntimeInitializeOnLoadManager9ClassInfoE13stl_allocatorIS3_L18MemLabelIdentifier12ELi16EEEEE8TransferI24GenerateTypeTreeTransferEEvRS7_RT_
gHf:_Convert_ToUInt16_m867476252
mm:_emscripten_glViewport
iqg:_List_1__ctor_m1672885191_gshared
w4a:__ZN4Mesh21UnswizzleVertexColorsEb
Sfm:_SkeletonBone_t4134054672_marshal_pinvoke_back
XBe:_cff_parse_font_bbox
oge:__ZThn28_N14PhysicsManagerD0Ev
KYc:__Z14raycast_sphereRKN5physx10PxGeometryERKNS_11PxTransformERKNS_6PxVec3ES8_fNS_7PxFlagsINS_9PxHitFlag4EnumEtEEjPNS_12PxRaycastHitEbPFbRSD_PvESG_
dx:__GLOBAL__sub_I_runtime_animation2_lump_cpp
cMb:__ZN14PlayerSettings23VirtualRedirectTransferER18StreamedBinaryReadILb0EE
xNf:_Double_System_IConvertible_ToDateTime_m2414543049_AdjustorThunk
YMe:__ZN11UnityEngine15PlatformWrapper16GetVRFieldOfViewEv
i7k:__ZN6il2cpp2os5Event5ResetEv
ccb:__Z26CombineDepthNormalsTextureRK17RenderLoopContextR13dynamic_arrayI16RenderObjectDataLj4EE
DCj:_ToggleGroup__ctor_m3308114662
YRk:__ZN6il2cpp8metadata15GenericMetadata17InflateParametersEPK13ParameterInfohPK20Il2CppGenericContextb
zXe:_RSAParameters_t1728406613_marshal_pinvoke_back
x2f:_Array_Sort_TisUILineInfo_t4195266810_m3737783007_gshared
xll:_PlayableBinding__cctor_m1720564240
ED:__ZNK17AnimationPlayable27GetNextCompatibleDescendantEi
Gkh:_TlsStream_Write_m188217214
Qij:_AnimatorControllerParameter_GetHashCode_m2306059248
v1h:__Z50RuntimeInvoker_Ray_t3785851493_Vector3_t3722313464PFvvEPK10MethodInfoPvPS4_
Koa:__Z25SetNeedToPerformRenderingb
aGi:_UInt64_System_IConvertible_ToInt32_m949522652_AdjustorThunk
pab:__ZNSt3__227__insertion_sort_incompleteIR23CompareReflectionProbesP31RuntimeReflectionProbeBlendInfoEEbT0_S5_T_
V6a:__ZN14qsort_internal30FindAndMovePivotToLastPositionIP15RODataDepthPassi17ROSorterDepthPassEEvT_S4_T0_T1_
Qqj:_ControllerColliderHit_set_push_m2495521645
TRe:__ZN20UnityWebRequestProtoI19TransportJavaScript16AtomicRefCounter14RedirectHelper14ResponseHelper15DownloadHandler13UploadHandler12HeaderHelper14AsyncOperationE35Task_FinalizeAfterDHCompleteContentEPv
yRd:__ZN5physxL27PxcSweepAnyShapeHeightfieldERKNS_11PxsCCDShapeES2_PKNS_12PxsRigidBodyES5_RKNS_11PxTransformES8_fRNS_6PxVec3ESA_RNS_10PxcNpCacheERNS_18PxcNpThreadContextE
Xeb:__ZN12CullingGroup10SendEventsEPK17CullingGroupEventj
Ikb:__ZN13sorted_vectorINSt3__24pairIN4core12basic_stringIcNS2_20StringStorageDefaultIcEEEES6_EEN10vector_mapIS6_S6_27compare_tstring_insensitiveIS6_E13stl_allocatorIS7_L18MemLabelIdentifier37ELi16EEE13value_compareESD_E9erase_oneIS6_EEjRKT_
_L:__ZN15SerializeTraitsIN7mecanim5human6HandleEE8TransferI14SafeBinaryReadEEvRS2_RT_
EDh:_Transform_1_BeginInvoke_m942628308_gshared
W8e:_PointerInputModule__ctor_m3728889932
PBb:__ZThn32_NK8Renderer8GetLayerEv
Qmc:__ZNK4Mesh17GetPrimitiveCountEv
EMd:__ZN5physx3Scb5SceneD2Ev
uY:__ZN17AudioClipPlayable12PrepareFrameERK19DirectorVisitorInfo
t0e:_SecurityException_GetObjectData_m1968030344
$bg:_Int32_ValidDigit_m1059003769
lhm:_TextEditor_InitKeyActions_m3794941998
Iif:_LayoutGroup_get_rectTransform_m442863741
gAk:_il2cpp_method_get_param_count
W9b:__ZN10systeminfo19ISOToSystemLanguageERN4core12basic_stringIcNS0_20StringStorageDefaultIcEEEE
UFk:__ZNK15dense_hashtableINSt3__24pairIK10KeyWrapperINS1_IPK12PropertyInfoP11Il2CppClassEEEjEES9_17ReflectionMapHashIS8_EN14dense_hash_mapIS9_jSD_NS9_14EqualsComparerINS0_8equal_toIS8_EEEENS0_9allocatorISB_EEE9SelectKeyESI_SK_E3endEv
Xde:__Z16GetDynamicsScenev
$gj:_AnimatorControllerPlayable_GetNextAnimatorClipInfo_m2483688939_AdjustorThunk
nye:_ps_dimension_done
SEe:__Z46Register_UnityEngine_TextGenerator_Dispose_cppv
_Nf:_Double_Parse_m4153729520
e7j:_IndexedSet_1_AddUnique_m861843892_gshared
xal:_GUIStyle_get_none_m2186533979
HLk:__ZN6il2cpp6icalls8mscorlib6System7Runtime15InteropServices7Marshal17GetLastWin32ErrorEv
DAb:__ZN16LightmapSettings8TransferI14SafeBinaryReadEEvRT_
hRa:__ZN17BufferManagerGLES13ReleaseBufferEP14DataBufferGLES
RMf:_StackFrame__ctor_m343464319
n5c:__ZN5physx6shdfnd5ArrayIPvNS0_19ReflectionAllocatorINS_16NpConnectorArrayEEEE15growAndPushBackERKS2_
Ikg:_SynchronizedWriter_Write_m301917713
OCd:__ZN5physx2Sc5Scene15prepareSimulateEv
GKc:__Z18Transfer_BlittableI8JSONReadLb1EjEvRK29SerializationCommandArgumentsR31RuntimeSerializationCommandInfo
T6c:__ZN5physx6shdfnd5ArrayIPNS_2Sc11InteractionENS0_19ReflectionAllocatorIS4_EEE8recreateEj
WCi:_Type_internal_from_handle_m3156085815
Csj:_Event_set_character_m2587156137
mWg:_ReadOnlyCollection_1_System_Collections_Generic_IListU3CTU3E_RemoveAt_m4037795630_gshared
tXh:__Z117RuntimeInvoker_Void_t1185182177_RuntimeObject_Int32_t2950945753_Int32_t2950945753_Int32_t2950945753_Int32_t2950945753PFvvEPK10MethodInfoPvPS4_
Pbf:_U3COnFinishSubmitU3Ec__Iterator0_Reset_m3632769946
oq:stackSave
Hdf:_ColorTween_get_targetColor_m1724075482_AdjustorThunk
Jye:_ps_dimension_end
kec:__ZN19SkinnedMeshRenderer26DeallocateClothAndSkinInfoEv
Tvc:__Z41Register_UnityEngine_Mesh_Internal_Createv
vJb:__ZN14SpriteRenderer23VirtualRedirectTransferER24GenerateTypeTreeTransfer
WRk:__ZNK15dense_hashtableI10KeyWrapperIP18Il2CppGenericClassES3_N6il2cpp8metadata22Il2CppGenericClassHashEN14dense_hash_setIS3_S6_NS3_14EqualsComparerINS5_25Il2CppGenericClassCompareEEENSt3__29allocatorIS3_EEE8IdentityESA_SD_E12test_deletedERK30dense_hashtable_const_iteratorIS3_S3_S6_SF_SA_SD_E
Fok:__ZN6il2cpp2vm5Class14GetNestedTypesEP11Il2CppClassPPv
Woe:__Z63Register_UnityEngine_Physics_INTERNAL_CALL_Internal_RaycastTestv
cZi:_WebSocketFrame_get_IsFragment_m3099187678
IRi:_Uri_get_Fragment_m575158891
QCf:_Console_Open_m3077673205
o_j:_X509StoreManager_get_CurrentUser_m4040993045
tLc:__ZN8JSONRead21TransferSTLStyleArrayI13dynamic_arrayIaLj1EEEEvRT_18MemLabelIdentifier17TransferMetaFlags
Ugb:__ZN6Camera9SetAspectEf
cXf:_Array_InternalArray__IndexOf_TisDateTime_t3738529785_m2463359116_gshared
gSe:__ZN19TransportJavaScript9DoRequestERKN4core12basic_stringIcNS0_20StringStorageDefaultIcEEEEm21UnityWebRequestMethodS6_bbP12HeaderHelperP13UploadHandlerP15DownloadHandlerP14ResponseHelperP15UnityWebRequest
wqh:_SslStream_Dispose_m3651067425
Ba:invoke_viiffiii
T_g:_BigInteger_Randomize_m2194703121
aDm:_emscripten_glBindVertexArray__wrapper
mVk:__ZN6il2cpp6icalls8mscorlib6System4Enum19get_underlying_typeEP20Il2CppReflectionType
BQi:_Parser_IsECMAScript_m674158805
Khb:__ZN9Transform37InitializeTransformHierarchyRecursiveER18TransformHierarchyRii
Wcc:__Z34DefaultPrepareDispatchBoundsUpdateR13RendererScene18MemLabelIdentifier
ZMe:__ZN11UnityEngine15PlatformWrapper30GetVRPlayAreaBoundaryDimensionEv
Yom:_fscanf
ihe:__ZN14SphereCollider23VirtualRedirectTransferER24GenerateTypeTreeTransfer
vvm:_glTexSubImage3D__wrapper
Xai:__Z100RuntimeInvoker_Boolean_t97287965_RuntimeObject_SByte_t1669577662_SByte_t1669577662_SByte_t1669577662PFvvEPK10MethodInfoPvPS4_
P2a:__ZN17MeshRenderingData4InitEP4MeshS1_iP15SharedGfxBufferS3_
Dta:__ZN19ShaderPropertySheet38CopyTextureWithAuxiliaryPropertiesFromERKN9ShaderLab16FastPropertyNameERKS_
HMb:__ZN10VRSettings8TransferI19StreamedBinaryWriteILb0EEEEvRT_
TBd:__ZN5physx2Sc9StaticSim21postActor2WorldChangeEv
rzc:__Z57Register_UnityEngine_Transform_INTERNAL_set_localPositionv
dMa:__ZN13GfxDeviceGLES26SetRandomWriteTargetBufferEi15ComputeBufferID
d2k:_GC_split_block
D1f:_Array_Resize_TisUICharInfo_t75501106_m3903846016_gshared
o0a:__ZZ23InitPlayerLoopCallbacksvEN49EarlyUpdateResetFrameStatsAfterPresentRegistrator7ForwardEv
Uhd:__ZN5physx6shdfnd4sortIPvNS0_4LessIS2_EENS0_19ReflectionAllocatorINS_2Cm5BlockIhLj256EEEEEEEvPT_jRKT0_RKT1_j
ypm:_poll
$Sg:_ReadOnlyCollection_1_System_Collections_IEnumerable_GetEnumerator_m1671097018_gshared
AGi:_UInt64_ToString_m1529093114_AdjustorThunk
i6l:__ZL85Selectable_t3250028441_CustomAttributesCacheGenerator_Selectable_IsPressed_m907486548P21CustomAttributesCache
YTj:_TypeLibImportClassAttribute__ctor_m2302178978
x_g:_Escape_t3294788190_marshal_pinvoke
nbc:__Z13RegisterClassI19SkinnedMeshRendererEvv
Fmf:_InputField_OnUpdateSelected_m1118869681
T8d:__ZN5physx20InternalTriangleMesh7releaseEv
dQd:__ZN5physx6shdfnd5ArrayINS_16PxsCCDBlockArrayINS_13PxsCCDOverlapELi128EE9BlockInfoENS0_19ReflectionAllocatorIS5_EEE15growAndPushBackERKS5_
g8c:__ZNK5physx7NpShape8getFlagsEv
doc:__ZNK11ICallString6ToUTF8Ev
Jnk:__ZN15dense_hashtableINSt3__24pairIK10KeyWrapperIPK22Il2CppGenericParameterEP11Il2CppClassEES6_N6il2cpp5utils11PointerHashIS4_EEN14dense_hash_mapIS6_S9_SE_NS6_14EqualsComparerINS0_8equal_toIS5_EEEENS0_9allocatorISA_EEE9SelectKeyESJ_SL_E15insert_noresizeERKSA_
VCh:_Transform_1_Invoke_m2468053724_gshared
W6a:__ZNSt3__211__sift_downIR17ROSorterDepthPassP15RODataDepthPassEEvT0_S5_T_NS_15iterator_traitsIS5_E15difference_typeES5_
Dva:__ZN18UnityPropertySheet11UnityTexEnvC2Ev
Grd:__ZNK5physx7NpCloth16getContactOffsetEv
g7g:_ArgumentException__ctor_m3200406061
lF:__ZN8Animator17ApplyOnAnimatorIKEiRNS_11AnimatorJobE
nea:__ZN12FileAccessor4ReadEyyPvPy
bua:__ZN13dynamic_arrayI16ShaderKeywordSetLj4EE6insertEPS0_PKS0_S4_
tvk:__ZNSt3__26vectorIN6il2cpp2os11PollRequestENS_9allocatorIS3_EEE26__swap_out_circular_bufferERNS_14__split_bufferIS3_RS5_EE
GAg:_List_1_set_Capacity_m2777925136_gshared
ioc:__Z21GetSceneHierarchyPathPK6Object
ugb:__ZN13RenderTexture9SetHeightEi
Ty:__ZN7mecanim9animation17ClearMotionOutputEPNS0_18AnimationNodeStateE
fdh:_CipherSuiteCollection_get_IsFixedSize_m3127823890
JPj:_InternalEnumerator_1_System_Collections_IEnumerator_get_Current_m3537550566_gshared
_Jh:_Dictionary_2_OnDeserialization_m1254782141_gshared
cZj:_PKCS12_get_Keys_m2165478388
EOk:__ZN6il2cpp6icalls8mscorlib6System2IO6MonoIO17GetFileAttributesEP12Il2CppStringPi
NUe:_HMACMD5__ctor_m3008609295
dEf:_DateTime__ParseAmPm_m3478436123
Vwe:_tt_cmap8_char_index
yaa:__Z24scripting_class_get_name17ScriptingClassPtr
pjg:_Stream_WriteByte_m1519852120
SCj:_VerticalLayoutGroup_CalculateLayoutInputHorizontal_m1404590745
Bga:__ZN13RuntimeStaticI15GUIEventManagerLb0EE13StaticDestroyEPv
lng:_ShortComparer_Compare_m1881262465
kTb:__Z29Transfer_Blittable_ArrayFieldI14SafeBinaryReadjEvRT_R9ArrayInfoRK23StaticTransferFieldInfo
Pe:_emscripten_set_keydown_callback
Srb:__ZN19StreamedBinaryWriteILb0EE21TransferSTLStyleArrayINSt3__26vectorI17SortingLayerEntryNS2_9allocatorIS4_EEEEEEvRT_17TransferMetaFlags
eLi:_Interpreter_IsWordChar_m2858055765
gAf:_Hashtable_CopyTo_m2905447224
vea:__ZN12FileAccessorC2Ev
Jib:__ZN9Transform35SetLocalPositionWithoutNotificationERKN4math7_float3E
Lcd:__ZN5physx2Sc15ArticulationSim12applyImpulseERNS0_8BodyCoreERKNS_9PxcFsDataERKNS_6PxVec3ES9_
$6j:_EventFunction_1_Invoke_m2429482587_gshared
WYi:_WebSocket_processPongFrame_m3128298466
Jvh:_AsnEncodedData_SubjectAltName_m4049949414
brm:__ZNK10__cxxabiv117__class_type_info16search_below_dstEPNS_19__dynamic_cast_infoEPKvib
ufj:_AnimatorControllerPlayable_INTERNAL_CALL_SetBoolString_m3514398973
Ayk:__ZN6il2cpp2vm7Runtime12GetConfigDirEv
atj:_InvokableCall__ctor_m2864671469
ecd:__ZNK5physx14NpArticulation26getInternalDriveIterationsEv
eAj:_Slider_UpdateVisuals_m3662961057
r2i:_DerivedType_get_FullName_m1025358827
z4l:__ZL70InputField_t3762917431_CustomAttributesCacheGenerator_m_OnValueChangedP21CustomAttributesCache
UPb:__Z39WriteQueueForTransferSignatureIntoCacheRK31TransferFunctionScriptingTraitsRK24TransferRequestSignature17ScriptingClassPtrR23CachedSerializationDataRb
hCa:__ZN13RenderManager18UpdateAllRenderersEv
Yvi:_Encoding_get_UTF8UnmarkedUnsafe_m320312322
$zi:_Thread_Thread_free_internal_m333849022
nK:__ZN18AnimatorController19TransferRuntimeDataI18StreamedBinaryReadILb0EEEEvRT_
bMi:_CostDelegate_BeginInvoke_m2828452701
DMe:__ZN22BaseUnityConnectClient30OnEnteringStatePausedOrStoppedEv
nLg:_Collection_1_ConvertItem_m1556170494_gshared
ez:__ZN7mecanim5human12HumanPoseAddERNS0_9HumanPoseERKS1_S4_
tEf:_DateTime_ToUniversalTime_m1945318289
kem:_Transform_INTERNAL_get_rotation_m3154993025
rwf:_ArrayList_ToArray_m3827492363
wAj:_Slider_get_stepSize_m1423227661
Ru:__Z14resize_trimmedINSt3__26vectorI24CompressedAnimationCurve13stl_allocatorIS2_L18MemLabelIdentifier25ELi16EEEEEvRT_j
vGi:_UInt64_Parse_m819899889
J4i:_GenericTypeParameterBuilder_GetHashCode_m852224381
uHf:_Convert_ToUInt32_m1453583008
wQf:_CompareInfo_Compare_m894311506
Fib:__Z24MergeTransformComponentsR9TransformS0_b
Ork:__ZNK15dense_hashtableI10KeyWrapperIPK19Il2CppGenericMethodES4_N6il2cpp8metadata23Il2CppGenericMethodHashEN14dense_hash_setIS4_S7_NS4_14EqualsComparerINS6_26Il2CppGenericMethodCompareEEENSt3__29allocatorIS4_EEE8IdentityESB_SE_E10test_emptyEj
VPj:_InternalEnumerator_1_System_Collections_IEnumerator_get_Current_m3982010935_AdjustorThunk
L7c:__ZThn24_N5physx2Sc20ArticulationJointSimD0Ev
K5e:_EventSystem_UpdateModules_m3643806022
Xpi:_ObjectReader_ReadObjectGraph_m1689734232
Vge:__ZN14PhysicsManager32AddToTriggerStayStatesIfRequiredEPK9Rigidbody
kqh:_SslStream_get_Position_m2568970827
h0:__Z71Register_UnityEngine_Audio_AudioClipPlayable_INTERNAL_CALL_ValidateTypev
R1c:__ZN5physx14PxsAABBManager12createBPElemEv
God:__ZThn12_N5physx7NpShape14onRefCountZeroEv
YPc:__ZL26GeomMTDCallback_ConvexMeshRN5physx6PxVec3ERfRKNS_10PxGeometryERKNS_11PxTransformES5_S8_
q_k:__ZN6il2cpp2vm13ComObjectBase19GetRuntimeClassNameEPP15Il2CppHString__
vk:_emscripten_glVertexAttribPointer
Dub:__ZNK20IntermediateRenderer12GetSceneMaskEv
mAa:__ZN14PreloadManager26UpdatePreloadingSingleStepENS_21UpdatePreloadingFlagsEi
bzj:_ScrollRect_SetLayoutHorizontal_m3078869633
g4d:__ZN18ScBeforeSolverTask11runInternalEv
Hnj:_Canvas_get_rootCanvas_m753521845
jwb:__ZN26ProbeSetTetrahedralization8TransferI24GenerateTypeTreeTransferEEvRT_
mZg:_SimpleCollator__ctor_m1587210019
zxc:__Z57Register_UnityEngine_RectTransform_INTERNAL_set_anchorMinv
t4c:__ZL33GeomOverlapCallback_CapsuleConvexRKN5physx10PxGeometryERKNS_11PxTransformES2_S5_PNS_2Gu12TriggerCacheE
pHf:_Convert_ToUInt16_m1480956416
Gxa:__ZN6prcoreL25inner_stretch_i8_bilinearEPKNS_9InnerInfoE
$Eh:_Enumerator_MoveNext_m1359058366_gshared
OAa:__ZL30RegisterFilteredObjectCallbackPP12Il2CppObjectiPv
KVg:_ReadOnlyCollection_1_System_Collections_Generic_IListU3CTU3E_RemoveAt_m3317217538_gshared
wSl:__ZL54AudioSource_t3935305588_CustomAttributesCacheGeneratorP21CustomAttributesCache
n2:__ZN11UnityEngine15CloudWebService16SessionContainer24GetSessionHeaderJsonDataERKN4core12basic_stringIcNS2_20StringStorageDefaultIcEEEERNS2_13StringBuilderE
W1i:_DerivedType_GetEvent_m4157575360
mga:__ZN13RuntimeStaticI21AssetReferenceStorageLb0EE13StaticDestroyEPv
_8d:__ZN5physx20InternalTriangleMesh9loadRTreeERNS_13PxInputStreamEj
Q$f:_Array_InternalArray__set_Item_TisKeyValuePair_2_t2530217319_m258011711_gshared
R9h:__Z72RuntimeInvoker_Bounds_t2266837910_RuntimeObject_Matrix4x4U26_t3606180965PFvvEPK10MethodInfoPvPS4_
nbk:_Enumerator_MoveNext_m2041610666_AdjustorThunk
VVk:__ZN6il2cpp6icalls8mscorlib6System9AppDomain22InternalGetProcessGuidEP12Il2CppString
jac:__ZN15dense_hashtableINSt3__24pairIKN4core12basic_stringIcNS2_20StringStorageDefaultIcEEEE10vector_setI4PPtrI11SpriteAtlasENS0_4lessISB_EE13stl_allocatorISB_L18MemLabelIdentifier79ELi16EEEEES6_20StringHash32FunctionIS6_EN14dense_hash_mapIS6_SH_SK_NS0_8equal_toIS6_EESE_ISI_LSF_79ELi16EEE9SelectKeyESN_SO_E15insert_noresizeERKSI_
Vwd:__ZN5physx2Sc18ParticleSystemCore16releaseParticlesEv
yYc:__ZN5physx2Gu20intersectTriangleBoxERKNS_6shdfnd3aos5Vec3VES5_S5_S5_S5_
f1e:_Single_System_IConvertible_ToInt32_m872115569
rZ:__ZN19AudioPlayableOutput19DeallocateResourcesEv
dXb:__Z18Transfer_BlittableI24GenerateTypeTreeTransferLb1EjEvRK29SerializationCommandArgumentsR31RuntimeSerializationCommandInfo
B3h:__Z103RuntimeInvoker_Boolean_t97287965_Ray_t3785851493_Single_t1397266774_Int32_t2950945753_Int32_t2950945753PFvvEPK10MethodInfoPvPS4_
ipe:__Z49Register_UnityEngine_Collider_INTERNAL_get_boundsv
wub:__ZN11ColorRGBA328TransferI14SafeBinaryReadEEvRT_
bke:__ZN5physx6shdfnd5ArrayIPvNS0_19ReflectionAllocatorINS_24NpPtrTableStorageManager8PtrBlockILi4EEEEEE15growAndPushBackERKS2_
dqj:_Component_GetComponentsInChildren_m1870572916
qVe:_MACTripleDES_HashFinal_m3613553534
RFi:_UInt64_System_IConvertible_ToChar_m2074245892
RDa:__Z11IsHDRFormat13TextureFormat
iyi:_UTF8Encoding_InternalGetBytes_m1965760031
sg:_emscripten_glClearDepth
oic:__ZNK8GUILayer22GetTypeVirtualInternalEv
PCb:__ZN14SafeBinaryRead21TransferSTLStyleArrayINSt3__26vectorIN15QualitySettings14QualitySettingENS1_9allocatorIS4_EEEEEEvRT_17TransferMetaFlags
wme:__Z13RegisterClassI12MeshColliderEvv
Pmh:__ZN40il2cpp_native_wrapper_vm_thread_attacherD2Ev
PLb:__ZNSt3__26vectorINS_4pairIPKN5Unity4TypeE7Hash128EENS_9allocatorIS7_EEE8__appendEj
WJk:__ZN15dense_hashtableINSt3__24pairIK10KeyWrapperIP11Il2CppClassES4_EES5_N6il2cpp8metadata16SZArrayClassHashEN14dense_hash_mapIS5_S4_SA_NS5_14EqualsComparerINS9_19SZArrayClassCompareEEENS0_9allocatorIS7_EEE9SelectKeyESE_SG_EC2ERKSJ_j
hBe:_cff_font_load
EXk:__GLOBAL__sub_I_LibraryLoader_cpp
frc:__Z13IsPathCreatedRKN4core12basic_stringIcNS_20StringStorageDefaultIcEEEE
TTd:__ZN5physx35solveContactPreBlock_ConcludeStaticEPKNS_23PxcSolverConstraintDescEjRNS_16PxcSolverContextE
dN:__ZN13ProduceHelperI13AnimationClipLb0EE7ProduceE18MemLabelIdentifier18ObjectCreationMode
$Da:__ZL22stbir__encode_scanlineP11stbir__infoiPvPfiii
QSj:_ExternalException__ctor_m2877839282
Lpe:__ZN20QuadTreeNodeRenderer13StaticDestroyEPv
j3:__ZN11UnityEngine15CloudWebService20WebRequestRestClient5AbortEv
NOi:_Regex_Matches_m2080913806
Jcc:__ZN9Transform12CleanupClassEv
aSg:_ReadOnlyCollection_1_System_Collections_IList_RemoveAt_m3927477748_gshared
w3k:__ZN6il2cpp6icalls8mscorlib6System9Threading16NativeEventCalls19CloseEvent_internalE12Il2CppIntPtr
TE:__ZN11UnityEngine9Animation33SetGenericTransformPropertyValuesERKNS0_30AnimatorGenericBindingConstantERKN7mecanim10ValueArrayEP9Transformb
A3l:__ZL57FontData_t746620069_CustomAttributesCacheGenerator_m_FontP21CustomAttributesCache
H6c:__ZN5physx6shdfnd5ArrayIPvNS0_15InlineAllocatorILj256ENS0_19ReflectionAllocatorINS_2Cm5BlockIS2_Lj32EEEEEEEE15growAndPushBackERKS2_
g3d:__ZN5physx18PxsSolverStartTask13setupDescTaskEv
bte:_UNITY_FT_Set_Pixel_Sizes
o_i:_OperatingSystem_Clone_m1122165140
W8j:_GameObject_AddComponent_TisRuntimeObject_m3469369570_gshared
n5b:__ZNSt3__26vectorIN9ShaderLab19SerializedSubShaderENS_9allocatorIS2_EEE26__swap_out_circular_bufferERNS_14__split_bufferIS2_RS4_EE
FVe:_RandomNumberGenerator_Create_m4162970280
tv:__ZN11UnityEngine9Animation28AnimationClipBindingConstant8TransferI24GenerateTypeTreeTransferEEvRT_
yOc:__ZN5physx3Cct13BoxController6resizeEf
Gwg:_List_1_RemoveAll_m3165362277_gshared
PCi:_Type_type_is_subtype_of_m1406623598
ODb:__ZN13dynamic_arrayI7SubMeshLj4EE18resize_initializedEjRKS0_12ResizePolicy
Dhm:_TextEditor_SelectLeft_m3681002005
M4d:__ZN5physx6shdfnd5ArrayINS_2Cm12DelegateTaskINS_2Sc5SceneEXadL_ZNS5_19updateCCDSinglePassEPNS_10PxBaseTaskEEEEENS0_19ReflectionAllocatorIS8_EEE8recreateEj
Jyi:_Thread_get_CurrentThread_m4142136012
Lub:__Z30ProcessDynamicBatchGeometryJobP25DynamicVBOGeometryJobDataj
s7a:__ZNSt3__27__sort4IRNS_6__lessI11CulledLightS2_EEPS2_EEjT0_S6_S6_S6_T_
dBk:__ZN6il2cpp2vm14TypeNameParser26ParseArrayModifierOptionalEv
Nba:__Z26scripting_object_get_class18ScriptingObjectPtr
xMk:__ZN6il2cpp6icalls8mscorlib6System10Reflection8Assembly13get_code_baseEP24Il2CppReflectionAssemblyb
Vdl:_GUIStyle_get_Internal_clipOffset_m4000119723
Iid:__ZN5physx34NpShapeGetScRigidObjectFromScbSLOWERKNS_3Scb5ShapeE
gcc:__ZNK28MonoBehaviourPropertyBinding15GenerateBindingERKN4core12basic_stringIcNS0_20StringStorageDefaultIcEEEEbRN11UnityEngine9Animation14GenericBindingE
bnh:_DeflateStream_Read_m2462209149
HBg:_List_1_set_Item_m35836043_gshared
msh:_X509ChainElementCollection__ctor_m3424079155
ZAh:_Enumerator_System_Collections_IDictionaryEnumerator_get_Value_m3881181744_AdjustorThunk
rXf:_Array_InternalArray__IndexOf_TisResourceInfo_t2872965302_m262211955_gshared
iMi:_LinkStack_Push_m3081279930
thm:_TextEditor_MoveWordRight_m2298093338
BAh:_Enumerator_MoveNext_m1107569389_gshared
tAi:_Timer_Init_m891735195
zad:__ZNK5physx21PxsBodyTransformVault12getTransformERKNS_11PxsBodyCoreE
iYk:__ZN6il2cpp6icalls8mscorlib6System11Environment15internalGetHomeEv
SRj:_ResourceCacheItem_t51292791_marshal_pinvoke_cleanup
kYd:__ZN5physx2Gu33MultiplePersistentContactManifold10fromBufferEPh
tQc:__ZN44ConvexVsHeightfieldContactGenerationCallback7onEventEjPj
Xzg:_List_1_System_Collections_IList_Remove_m1070694895_gshared
lxk:__ZN6il2cpp6icalls8mscorlib6SystemL16CheckMemberMatchI9FieldInfoNS_5utils10functional6FilterINSt3__212basic_stringIcNS8_11char_traitsIcEENS8_9allocatorIcEEEENS5_13VmStringUtils23CaseInsensitiveComparerEEEEEbPKT_PK11Il2CppClassSN_iRKT0_
eG:__ZN7mecanim8skeleton26SkeletonPoseComputeGlobalQEPKNS0_8SkeletonEPKNS0_13SkeletonPoseTIN4math4trsXEEEPS7_ii
QFi:_UInt64_System_IConvertible_ToByte_m1501504925_AdjustorThunk
sMc:__ZN8JSONRead21TransferSTLStyleArrayI13dynamic_arrayIfLj4EEEEvRT_18MemLabelIdentifier17TransferMetaFlags
lgh:_TlsClientHello_ProcessAsTls1_m2549285167
Yii:__Z74RuntimeInvoker_Boolean_t97287965_UIVertex_t4057497605_UIVertex_t4057497605PFvvEPK10MethodInfoPvPS4_
ZRd:__ZN5physx2Gu19_gjkRelativeRayCastINS0_9TriangleVENS0_8CapsuleVEEEbRT_RT0_RKNS_6shdfnd3aos15PsMatTransformVERKNS9_6FloatVERKNS9_5Vec3VESI_RSD_RSG_SK_f
Kxj:_ScrollRect_set_decelerationRate_m723367336
GF:__ZN9BlobWrite8TransferI22OffsetPtrArrayTransferIiEEEvRT_PKc17TransferMetaFlags
Bui:_EncoderExceptionFallback_Equals_m2760188920
ibd:__ZN5physx6shdfnd5ArrayIPvNS0_15InlineAllocatorILj256ENS0_19ReflectionAllocatorINS_11NpAggregateEEEEEE15growAndPushBackERKS2_
cW:__ZN4FMOD6System7releaseEv
ZNd:__ZN5physx6shdfnd8PoolBaseINS_2Sc18TriggerInteractionENS0_19ReflectionAllocatorIS3_EEE15disposeElementsEv
Lsf:_Boolean_CompareTo_m3665076258
x2e:_String_Split_m3580120853
j3g:_PrivateKeyInfo__ctor_m2811023496
Sda:__Z18PathToAbsolutePathRKN4core12basic_stringIcNS_20StringStorageDefaultIcEEEE
yBi:_TimeSpan_get_TotalMinutes_m3920401708
Ts:__ZN13AnimationClip23VirtualRedirectTransferER17RemapPPtrTransfer
y1k:_GC_push_finalizer_structures
hLe:__ZN21UnityAnalyticsManager15ThreadedCleanupEv
oQc:__ZL31PointInConvexPolygon2D_OutCodesPKfjffffRh
GDa:__ZL13BlitImageImplR14ImageReferenceiiRKS_NS_10ColorSpaceENS_8BlitModeEb
lRj:_Comparer_1__cctor_m3761458313_gshared
Wu:__ZNSt3__26vectorI24CompressedAnimationCurve13stl_allocatorIS1_L18MemLabelIdentifier25ELi16EEE7reserveEj
Sne:__ZN9Rigidbody12MoveRotationERK11Quaternionf
X_l:__ZL69PersistentCall_t3407714124_CustomAttributesCacheGenerator_m_ArgumentsP21CustomAttributesCache
xEa:__ZN29SerializeTraitsForStringTypesIN4core12basic_stringIcNS0_20StringStorageDefaultIcEEEEE8TransferI24GenerateTypeTreeTransferEEvRS4_RT_
jU:__ZN12AudioManager29ShutdownReinitializeAndReloadEv
JVj:_LifetimeServices_set_LeaseManagerPollTime_m3035471458
W5d:__ZN5physx2Cm12DelegateTaskINS_2Sc5SceneEXadL_ZNS3_15postNarrowPhaseEPNS_10PxBaseTaskEEEE11runInternalEv
ecl:_GUISkin_get_error_m2501677343
zme:__Z20ConvertContactToMonoP9Collision
Alk:__ZN6il2cpp6icalls8mscorlib6System7Decimal18decimalSetExponentEP19il2cpp_decimal_repri
AZk:__GLOBAL__sub_I_String_cpp
Gnk:__ZN15dense_hashtableINSt3__24pairIK10KeyWrapperIPK22Il2CppGenericParameterEP11Il2CppClassEES6_N6il2cpp5utils11PointerHashIS4_EEN14dense_hash_mapIS6_S9_SE_NS6_14EqualsComparerINS0_8equal_toIS5_EEEENS0_9allocatorISA_EEE9SelectKeyESJ_SL_E6insertERKSA_
Omf:_InputField_GenerateCaret_m1459647218
PJl:__ZL49Camera_t4157153871_CustomAttributesCacheGeneratorP21CustomAttributesCache
WYj:_X509CertificateEnumerator__ctor_m85694331
tOa:__ZN14DataBufferGLES16RecreateWithDataEjPKv
Bqc:__Z29GetGlobalAllowNameConversionsv
nQc:__ZL17transformVerticesRfS_S_S_PfjPKN5physx6PxVec3EPKhRKNS1_7PxMat33E
lle:__ZNK5physx2Gu15HeightFieldUtil31getFaceIndexAtShapePointNoTest2Ejff
v_f:_Array_InternalArray__Insert_TisTableRange_t3332867892_m558285859_gshared
xjb:__ZN8Material8SetColorEN9ShaderLab16FastPropertyNameERK10ColorRGBAf
t4g:_StrongName_get_TokenAlgorithm_m1794722022
Ypg:_Enumerator_System_Collections_IEnumerator_Reset_m3754523291_gshared
mBm:_glUniform3uiv__wrapper
_Od:__ZNK5physx2Sq10AABBPruner5sweepERKNS0_9ShapeDataERKNS_6PxVec3ERfRNS0_14PrunerCallbackE
Ksm:dynCall_iiifiii
Caa:__ZL41AssemblyNameMatchesWithOrWithoutExtensionPKcS0_
Nyg:_List_1_set_Item_m2082115010_gshared
ovi:_Encoding_GetBytes_m3735967069
YJd:__ZN5physx2Sc5Scene21fireCallBacksPostSyncEv
MSa:__ZN14GfxContextGLES43AddRenderSurfaceToDeferredFBOInvalidateListEPK17RenderSurfaceGLES
Uem:_ResourceRequest_get_asset_m2462824237
EQd:__ZN5physx17PxsCCDAdvanceTask11runInternalEv
lta:__ZN11NamedObject23VirtualRedirectTransferER14SafeBinaryRead
tBj:_Text_get_resizeTextMinSize_m1002355407
Tse:__ZNSt3__26vectorIN20TextRenderingPrivate8FontImpl13CharacterInfoE13stl_allocatorIS3_L18MemLabelIdentifier1ELi16EEE6insertENS_11__wrap_iterIPKS3_EERS9_
wAa:__ZN23PreloadManagerOperation6IsDoneEv
Rpf:_Array_CreateInstance_m1027597705
Jyk:__ZN6il2cpp2vm7Runtime15InvokeWithThrowEPK10MethodInfoPvPS5_
_kc:__Z33GetHasChangedDeprecatedSystemMaskv
UZk:__ZN6il2cpp5utils11StringUtils11Utf16ToUtf8ERKNSt3__212basic_stringIDsNS2_11char_traitsIDsEENS2_9allocatorIDsEEEE
eah:_MD4Managed_Decode_m4273685594
G_c:__ZN5physx3Cct26CharacterControllerManagerD2Ev
YEa:__ZN21LightProbeProxyVolume18HasHardwareSupportEv
Bxa:__ZN6prcoreL31inner_stretch_argb8888_bilinearEPKNS_9InnerInfoE
F_b:__Z18Transfer_BlittableI18StreamedBinaryReadILb1EELb1E8BitFieldEvRK29SerializationCommandArgumentsR31RuntimeSerializationCommandInfo
jve:_UNITY_FT_Outline_Decompose
qdg:_Int64_System_IConvertible_ToChar_m1509243576_AdjustorThunk
bYj:_GeneralNames_get_IPAddresses_m4242915644
v2k:_GC_init_size_map
fQd:__ZN5physx6shdfnd8internal8HashBaseINS0_4PairIKNS3_IPKNS_12PxsRigidCoreEPKNS_12PxsShapeCoreEEEPNS_11PxsCCDShapeEEESA_NS0_4HashISA_EENS1_11HashMapBaseISA_SD_SG_NS0_9AllocatorEE6GetKeyESI_Lb1EE15reserveInternalEj
s5a:__Z20scripting_object_new17ScriptingClassPtr
dum:dynCall_iiiiifi
w3g:_KeyGeneratedEventHandler_Invoke_m2527485594
bfm:_SceneManager_LoadSceneAsyncNameIndexInternal_m756833036
fhj:_AnimatorControllerPlayable_GetNextAnimatorClipInfoCount_m2553609802_AdjustorThunk
_Ib:__ZN26SkinnedMeshRendererManager11AddRendererER19SkinnedMeshRenderer
$zc:__Z58Register_UnityEngine_Object_Internal_CloneSingleWithParentv
OKd:__ZN5physx2Sc5Scene21setDominanceGroupPairEhhRKNS_20PxDominanceGroupPairE
NKf:_Decimal__ctor_m1925875020_AdjustorThunk
Gqi:_SerializationCallbacks__ctor_m3863304525
Mbb:__ZN18ShadowMapJobHeaderD0Ev
P:Math_exp
nfm:_ScriptableObject_CreateInstance_m1668078119
Qp:FUNCTION_TABLE_iiifi
gVk:__ZN6il2cpp2os5posix13PosixAutoLockD2Ev
sHa:__ZNSt3__26vectorINS_4pairIyP17VertexDeclarationEENS_9allocatorIS4_EEE6insertENS_11__wrap_iterIPKS4_EERS9_
AIg:_Collection_1_System_Collections_ICollection_CopyTo_m261568672_gshared
c5j:_SymmetricTransform_OFB_m3690147804
uhb:__ZN13MonoBehaviour9SetScriptERK4PPtrI10MonoScriptE18ScriptingObjectPtr
Rue:_UNITY_FT_Create_Class_sfnt_module_class
urh:_X500DistinguishedName_GetSeparator_m1336760642
nCd:__ZN5physx7NpScene12loadFromDescERKNS_11PxSceneDescE
Hna:__ZNK10FileSystem16LastErrorMessageEv
B$f:_Array_InternalArray__Insert_TisVector3_t3722313464_m3862657277_gshared
v$e:_SecurityException__ctor_m1631242336
Rpk:__ZN15dense_hashtableINSt3__24pairIK10KeyWrapperIPK11Il2CppClassEPKcEES6_N6il2cpp5utils11PointerHashIS3_EEN14dense_hash_mapIS6_S9_SE_NS6_14EqualsComparerINS0_8equal_toIS5_EEEENS0_9allocatorISA_EEE9SelectKeyESJ_SL_E14squash_deletedEv
Hpm:_fputc
J6e:_EventSystem_Update_m1662072334
lnc:__ZN11TimeManager16HasFixedTimeStepEv
_el:_GUIStyle_get_fontSize_m3029870777
DOb:__ZN13MonoBehaviour13AwakeFromLoadE17AwakeFromLoadMode
sVb:__ZL26Transfer_SimpleNativeClassI17RemapPPtrTransfer8GradientLb1EEvRK29SerializationCommandArgumentsR31RuntimeSerializationCommandInfo
l6e:_RaycasterManager_RemoveRaycasters_m3057093063
mlc:__ZN12CachedWriter9InitWriteER15CacheWriterBase
Mjc:__Z21UnsignedInt64ToStringy
aNi:_PatternCompiler_BeginLink_m1295557963
Kbj:_CustomEventData_Add_m3433001325
MKd:__ZN5physx14PxsAABBManager15createAggregateEPvb
kQi:_Group_GetAnchorInfo_m3730312864
O3l:__ZL50Graphic_t1660335611_CustomAttributesCacheGeneratorP21CustomAttributesCache
jwc:__Z36MonoBehaviour_CUSTOM_InvokeRepeatingP12Il2CppObjectP12Il2CppStringff
gCi:_TimeSpan_op_LessThanOrEqual_m300470010
Qkj:_Debug_LogWarning_m3661709751
Czc:__Z66Register_UnityEngine_Transform_INTERNAL_CALL_InverseTransformPointv
Aia:__ZZN15DirectorManager15InitializeClassEvEN41FixedUpdateDirectorFixedUpdateRegistrator7ForwardEv
sig:_MemoryStream_get_Position_m3733941202
s4k:__ZN6il2cpp2os9MutexImpl7TryLockEjb
mb:invoke_iiiiifiiiif
u1a:__ZN6Camera26ClearIntermediateRenderersEj
Goj:_CapsuleCollider_get_height_m2472088533
Tnb:__ZL10KeyHandleriPK23EmscriptenKeyboardEventPv
LCm:_glLinkProgram__wrapper
jya:__ZN6prcoreL12RemapGenericI17TexFormatARGB888815TexFormatBGR888EEvPKNS_9InnerInfoE
tQ:__Z79AnimatorControllerPlayable_CUSTOM_INTERNAL_CALL_GetNextAnimatorClipInfoInternalR9HPlayablei
Ezj:_Selectable_OnCanvasGroupChanged_m472903475
Tyi:_EventWaitHandle_Reset_m3348053200
Bod:__ZN5physx7NpShape8requiresERNS_23PxProcessPxBaseCallbackE
eQk:__ZN6il2cpp6icalls8mscorlib6System13Globalization11CultureInfo35construct_internal_locale_from_nameEP17Il2CppCultureInfoP12Il2CppString
nqg:_List_1_System_Collections_IList_Add_m2656245659_gshared
sXb:__ZL22Transfer_ManagedObjectI24GenerateTypeTreeTransferLb1EEvRK29SerializationCommandArgumentsR31RuntimeSerializationCommandInfo
XEg:_Collection_1_System_Collections_ICollection_CopyTo_m1597420376_gshared
PRj:_ResourceEnumerator_FillCache_m1661715061
LTc:__ZN24ConvexVsHeightfieldSweepC2ERN5physx2Gu15HeightFieldUtilERKNS1_14ConvexHullDataERKNS0_11PxMeshScaleERKNS0_11PxTransformESC_RKNS0_6PxVec3EfNS0_7PxFlagsINS0_9PxHitFlag4EnumEtEEfbb
eBl:__ZL72SecuritySafeCriticalAttribute_t3505979402_CustomAttributesCacheGeneratorP21CustomAttributesCache
Dk:_emscripten_set_main_loop_timing
iHf:_Convert_ToUInt16_m3523269149
oOa:__ZN14DataBufferGLES12RecordRenderEv
I7e:_ExecuteEvents_get_endDragHandler_m2879610446
Toe:__Z40CapsuleCollider_Set_Custom_PropDirectionP12Il2CppObjecti
bXd:__ZNK5physx20SingleAABBUpdateTask7getNameEv
Wib:__ZN14ImageReference10FlipImageYEv
GKi:_Interpreter_GetLastDefined_m4107643411
kCc:__Z14GetDefaultSkini
KR:__ZN4FMOD3DSP9setBypassEb
Nnb:__Z19NormalizeWheelInputf
Hhf:_Graphic_DoMeshGeneration_m3548487693
jOi:_Repetition__ctor_m1672362629
vMc:__Z29Transfer_Blittable_ArrayFieldI8JSONReadhEvRT_R9ArrayInfoRK23StaticTransferFieldInfo
L0e:_SecurityFrame_ToString_m339310712_AdjustorThunk
k6i:_TypeBuilder_create_runtime_class_m2581270900
foc:__ZN11MonoManager25GetImageFromAssemblyIndexEi
CHj:_InternalEnumerator_1_get_Current_m3008260692_gshared
atd:__ZN5physx2Sc9ClothCore17addCollisionPlaneERKNS_21PxClothCollisionPlaneE
G2a:__ZN22RenderingCommandBuffer20CleanupCommandBufferEv
qFf:_Decimal_op_Implicit_m2299919277
LHc:__Z18Transfer_BlittableI9JSONWriteLb1EtEvRK29SerializationCommandArgumentsR31RuntimeSerializationCommandInfo
Goe:__Z34MeshCollider_Get_Custom_PropConvexP12Il2CppObject
EIf:_DateTime_System_IConvertible_ToType_m1242864300
PEe:__Z37Register_UnityEngine_Font_get_dynamicv
Xk:___syscall85
l8d:__ZNK5physx13PxHeightField8isKindOfEPKc
z2d:__ZN5physx23correlatePatchesCoulombERNS_27PxcCorrelationBufferCoulombERKNS_2Gu13ContactBufferERKNS_11PxTransformES8_fjjj
H4a:__ZNSt3__26__sortIRPFbP10GUIElementS2_EPS2_EEvT0_S7_T_
Xse:__Z14ValidateFormatR13dynamic_arrayIN20TextRenderingPrivate16TextFormatChangeELj4EE
G1i:_ConstructorBuilder_GetILGenerator_m1750792206
Oui:_EncoderFallback_get_ReplacementFallback_m818398284
vWk:__ZN6il2cpp2os6Thread19DetachCurrentThreadEv
c7e:_EventTrigger_OnBeginDrag_m4203438710
$nk:__ZN6il2cpp2vmL21SetupInterfacesLockedEP11Il2CppClassRKNS_2os12FastAutoLockE
XQb:__ZN11MonoManager23VirtualRedirectTransferER24GenerateTypeTreeTransfer
Epj:_Color__ctor_m1673432820_AdjustorThunk
Cwb:__ZN19StreamedBinaryWriteILb0EE8TransferI13dynamic_arrayI8Vector3fLj4EEEEvRT_PKc17TransferMetaFlags
QD:__ZN23AnimationPlayableOutput17SetSourcePlayableEP8Playable
Wli:_MethodReturnDictionary__cctor_m278392388
lZc:__ZN16ControllerFilter9preFilterERKN5physx12PxFilterDataEPKNS0_7PxShapeEPKNS0_12PxRigidActorERNS0_7PxFlagsINS0_9PxHitFlag4EnumEtEE
j2:__ZN11UnityEngine15CloudWebService14DataDispatcher15SetupWebRequestEv
KNe:__ZN11UnityEngine15PlatformWrapper13GetShaderCapsEv
ZVd:__ZN16MBPOS_TmpBuffers16allocateSleepingEjj
P1g:_KeyPairPersistence_get_MachinePath_m3812267291
ECf:_Stack_Peek_m2216191248
rIf:_DateTime_System_IConvertible_ToDecimal_m1044850612_AdjustorThunk
djc:__ZN21FixedBehaviourManager6UpdateEv
Qqc:__ZN9Transform9SetParentEPS_NS_15SetParentOptionE
x8:__ZN19ShaderPropertySheet8SetFloatEN9ShaderLab16FastPropertyNameEfNS_8SetFlagsE
N6f:_CultureInfo_construct_internal_locale_from_specific_name_m3418948590
KBa:__ZN19RuntimeSceneManager24BeginIntegrateMainThreadEP10UnityScene
fcd:__ZN5physx14NpArticulation26setExternalDriveIterationsEj
RQc:__ZN16RayRTreeCallbackILi0ELb0EED0Ev
S8k:_GameObject_GetComponentsInChildren_m479703998
v$d:__ZN5physx20PxsParticleSystemSim23scheduleCollisionUpdateERNS_10PxBaseTaskE
oXk:__ZNSt3__2plIcNS_11char_traitsIcEENS_9allocatorIcEEEENS_12basic_stringIT_T0_T1_EERKS9_S6_
rkg:_StringReader_CheckObjectDisposedException_m3796163530
U4b:__ZN9ShaderLab20SerializedSubProgramaSERKS0_
esm:_roundf
Qrb:__ZN18StreamedBinaryReadILb0EE21TransferSTLStyleArrayINSt3__26vectorI17SortingLayerEntryNS2_9allocatorIS4_EEEEEEvRT_17TransferMetaFlags
Htf:_Byte_System_IConvertible_ToSingle_m324484566_AdjustorThunk
sDf:_Decimal_op_Explicit_m2848387298
fak:_KeyValuePair_2_ToString_m1238786018_gshared
Gx:__ZN8Animator15SetPrepareStageEv
aok:__ZN6il2cpp2vmL24SetupTypeHierarchyLockedEP11Il2CppClassRKNS_2os12FastAutoLockE
Unb:__ZL11TextHandleriPK23EmscriptenKeyboardEventPv
$9a:__Z20CalculateLightMatrixRK15SharedLightDataP10Matrix4x4f
rse:_destroy_face
Vfl:_Input_GetMouseButtonUp_m3875270823
T3k:__ZN6il2cpp6icalls8mscorlib6System8Security12Cryptography24RNGCryptoServiceProvider13RngInitializeEP11Il2CppArray
qhl:_Mathf_Sign_m1998862938
z_c:__ZN5physx3Cct26CharacterControllerManager21createObstacleContextEv
dpg:_NumberFormatter_NumberToString_m3906556024
E$b:__Z19TransferField_ArrayI18StreamedBinaryReadILb1EE27Converter_SimpleNativeClassI17AnimationCurveTplIfEEEvRK23StaticTransferFieldInfoR31RuntimeSerializationCommandInfoRT0_
UOa:__ZN18GfxFramebufferGLES22MakeCurrentFramebufferENS_7BuiltinE
zEd:__ZN5physx6shdfnd5ArrayIPNS_2Sc19ShapeInstancePairLLENS0_19ReflectionAllocatorIS4_EEE15growAndPushBackERKS4_
N6j:_UnityEvent_1_FindMethod_Impl_m3637444959_gshared
sEa:__ZN12CachedReader4ReadEPvj
MTi:_Ext_ToUInt64_m1889353362
Nze:_cf2_blues_init
tgd:__ZN5physx2Sc8BodyCore24clearSpatialAccelerationEbb
s_g:_SimpleCollator_MatchesForwardCore_m850743967
q9a:__Z24CalculateLightShadowFadeRK6CamerafffR8Vector4f
Haa:__ZN19RuntimeSceneManagerD2Ev
Ljl:_Object_set_name_m653319976
hQf:_CCGregorianCalendar_GetMonth_m1547203696
z3:__ZN11UnityEngine15CloudWebService25WebRequestDownloadHandler17OnCompleteContentEv
Axa:__ZN6prcore17GetIntegerBlitterE13TextureFormatS0_N14ImageReference8BlitModeE
aMh:_Dictionary_2_System_Collections_ICollection_CopyTo_m2556353211_gshared
sEd:__ZN5physx10PxsContext20createContactManagerERKNS_24PxvManagerDescRigidRigidEPNS_18PxsMaterialManagerE
SEk:__ZN6il2cpp2gc19AppendOnlyGCHashMapINSt3__24pairIPK11Il2CppImageP11Il2CppClassEEP22Il2CppReflectionModule17ReflectionMapHashIS9_ENS2_8equal_toIS9_EEE11TryGetValueERKS9_PSB_
o6c:__ZN5physx2Sc5Scene31removeActiveBreakableConstraintEPNS0_13ConstraintSimE
Aqc:__ZN9BlobWrite14ReduceCopyImplERK14ReduceCopyDataj
VXf:_Array_LastIndexOf_TisRuntimeObject_m1677937501_gshared
H1g:_KeyBuilder_IV_m2230195376
_oj:_Collider_set_material_m3939642545
PId:__ZN5physx6shdfnd5ArrayINS_12PxActorShapeENS0_19ReflectionAllocatorIS2_EEE15growAndPushBackERKS2_
oZa:__ZN25MultiBlocksMemoryFileData17AdjustBlocksCountEj
KMk:__ZNSt3__214__split_bufferIN6il2cpp2vm22EmbeddedResourceRecordERNS_9allocatorIS3_EEED2Ev
Dlh:_DictionaryNodeEnumerator_get_Key_m2267812973
zqe:__ZN13TextRendering4Font8TransferI24GenerateTypeTreeTransferEEvRT_
Xkj:_AudioClipPlayable_INTERNAL_CALL_SetPauseDelayInternal_m1322522061
btc:__Z27CullingGroup_CUSTOM_DisposeP12Il2CppObject
Z2a:__ZN13ComputeShader15SetTextureParamEjRKN9ShaderLab16FastPropertyNameE9TextureID16TextureDimension
bld:__ZN5physx2Sc14ConstraintCore8setFlagsENS_7PxFlagsINS_16PxConstraintFlag4EnumEtEE
en:_glStencilMask
SWk:__ZN6il2cpp2os10ThreadImpl16GetCurrentThreadEv
f7d:__ZNK5physx2Sc15ClothFabricCore20getNbParticleIndicesEv
Pnb:__ZN15GUIEventManager10QueueEventERK10InputEvent
IRj:_ResourceReader_ReadNonPredefinedValue_m2638853518
ySj:_DecimalConstantAttribute__ctor_m3583301917
w1k:_GC_push_conditional_with_exclusions
$yh:_Enumerator_System_Collections_IDictionaryEnumerator_get_Entry_m2772123357_AdjustorThunk
FG:__ZN12_GLOBAL__N_121ProcessAnimationBeginER35AnimationPlayableEvaluationConstantR32AnimationPlayableEvaluationInputR33AnimationPlayableEvaluationOutput
kSi:_UriParser_InitializeAndValidate_m2008117311
jpm:_strrchr
G5c:__ZN5physx2Sc7BodySim6wakeUpEv
c4f:_Dictionary_2_Do_ICollectionCopyTo_TisKeyValuePair_2_t1377593753_m4023145528_gshared
Oaf:_UIBehaviour_IsDestroyed_m3033055982
yZk:_WriteZStream
iEd:__ZN5physx6shdfnd8PoolBaseINS_2Gu30LargePersistentContactManifoldENS0_19ReflectionAllocatorIS3_EEE17releaseEmptySlabsEv
b6c:__ZN5physx2Sc21ConstraintInteraction7destroyEv
lhe:__ZN14SphereCollider6CreateEPK9Rigidbody
lxc:__Z33Register_UnityEngine_Random_Rangev
xlf:_InputField_get_readOnly_m3111985574
mxb:__ZN14RenderSettings27UpdateIndirectSpecularColorEv
fnh:_DeflateStream_Flush_m2668044568
zMb:__ZN14PlayerSettings8TransferI18StreamedBinaryReadILb0EEEEvRT_
Dxk:__ZN6il2cpp6icalls8mscorlib6System8MonoType16GetMethodsByNameEP20Il2CppReflectionTypeP12Il2CppStringibS5_
kIb:__Z11SkinMeshCPUR12SkinMeshInfo
OFd:__ZNK5physx7NpScene16getNbConstraintsEv
Lrd:__ZN5physx7NpCloth14setWakeCounterEf
lzi:_Monitor_Monitor_wait_m3706677354
pWe:_RijndaelTransform__cctor_m2439033240
xHa:__ZNSt3__27__sort3IRNS_4lessIN22BuiltinResourceManager8ResourceEEEPS3_EEjT0_S7_S7_T_
Lhl:_Mesh_Internal_Create_m324632090
vye:_ps_hints_t2mask
L4f:_LayoutGroup_SetProperty_TisVector2_t2156229523_m2721164497_gshared
Ieg:_IntPtr_ToString_m1831665121
GAj:_Slider_Set_m1476104429
Bjf:_Image_set_fillClockwise_m2210525152
LGb:__ZN10BlendShape8TransferI19StreamedBinaryWriteILb0EEEEvRT_
zeg:__Z21il2cpp_codegen_sizeofP11Il2CppClass
kpa:__Z19GetTimeSinceStartupv
$jf:_Image_AddQuad_m2161647989
Npg:_Enumerator_System_Collections_IEnumerator_Reset_m2953002685_gshared
MDe:_TT_Load_Composite_Glyph
OIb:__Z33MultiplyMatrixArrayWithBase4x4REFPK10Matrix4x4fS1_S1_PS_j
lmm:_Vector4_get_sqrMagnitude_m3647362453_AdjustorThunk
L2h:__Z99RuntimeInvoker_RuntimeObject_RuntimeObject_RuntimeObject_Vector3_t3722313464_Quaternion_t2301928331PFvvEPK10MethodInfoPvPS4_
K7a:__ZN29RenderNodeQueuePrepareContextC2Ev
Uzk:_il2cpp_gc_disable
_Z:__ZN10SampleClipC2E18MemLabelIdentifier18ObjectCreationMode
U5b:__ZN9ShaderLab20SerializedSubProgram16TextureParameter8TransferI24GenerateTypeTreeTransferEEvRT_
YTe:_DSASignatureDeformatter_SetKey_m2999549245
t5k:__ZN6il2cpp2os11MutexHandle4WaitEj
zpc:__ZL34GetComponentsImplementationRecurseILb1ELi1ELi1EEbR10GameObjectbRK17CompareParametersRK39GetComponentsImplementation_ReturnValue
fTh:__Z114RuntimeInvoker_Boolean_t97287965_RuntimeObject_RuntimeObject_Int32_t2950945753_Int32_t2950945753_Int32_t2950945753PFvvEPK10MethodInfoPvPS4_
Y0i:_AssemblyBuilder_GetTypes_m3415680380
tza:__ZN6prcoreL17RemapGenericFloatI15TexFormatRGHalf18TexFormatARGBFloatEEvPKNS_9InnerInfoE
f6f:_CultureInfo_ConstructInternalLocaleFromSpecificName_m4206018816
cpa:__Z18SimulateMouseInputi
W1a:__ZN13RenderManager23AddRemoveCamerasDelayedEv
PIc:__ZN9JSONWrite8TransferI13dynamic_arrayIdLj8EEEEvRT_PKc17TransferMetaFlags
mLe:__ZN11UnityEngine9Analytics15AnalyticsConfigC2Ev
rrf:_BitConverter__cctor_m3841343255
cDf:_Decimal_Compare_m3062820418
SLi:_IntervalCollection_GetMetaCollection_m4029522214
nme:__ZNK5Unity5Joint16GetCurrentForcesER8Vector3fS2_
Z6e:_EventTrigger_OnDeselect_m1919608102
iBi:_TimeSpan__ctor_m2047388489_AdjustorThunk
tgb:__ZN13RenderTexture8SetWidthEi
obj:_CustomEventData_AddByte_m4233823462
ODe:_UNITY_FT_GlyphLoader_CheckSubGlyphs
pwb:__ZN18StreamedBinaryReadILb0EE21TransferSTLStyleArrayI10vector_mapI7Hash128iNSt3__24lessIS3_EE13stl_allocatorINS4_4pairIS3_iEEL18MemLabelIdentifier80ELi16EEEEEvRT_17TransferMetaFlags
V9a:__Z25SetupObjectBakedOcclusionbRK15SharedLightDataRK26SharedLightmapSettingsDataRK15LightmapIndicesR17ShaderPassContext
PHg:_Collection_1_System_Collections_ICollection_CopyTo_m1516601228_gshared
k9k:_Gradient_Finalize_m1613599066
kFc:__Z42Register_UnityEngine_GUIStyle_set_fontSizev
Knd:__ZNK5physx9NpFactory11getNbShapesEv
zR:__Z82Register_UnityEngine_Animations_AnimatorControllerPlayable_INTERNAL_CALL_GetBoolIDv
XE:__ZN8Animator9BuildJobsERK13dynamic_arrayIP14PlayableOutputLj4EERS0_INS_11AnimatorJobELj4EEPS7_bb
N7:__ZN9ShaderLab16FastPropertyName4InitEPKc
Abc:__Z13RegisterClassIN2UI13RectTransformEEvv
bo:FUNCTION_TABLE_iiiii
Nde:__ZN5physx14PxRigidBodyExt23setMassAndUpdateInertiaERNS_11PxRigidBodyEfPKNS_6PxVec3Eb
ZKj:_InternalEnumerator_1_get_Current_m3911557813_AdjustorThunk
H2g:_KeyPairPersistence_Remove_m1876145547
uuf:_Char_System_IConvertible_ToByte_m2347554595_AdjustorThunk
Nqa:__ZN13RenderTexture9SetMipMapEb
skj:_AudioClipPlayable_op_Explicit_m2515253661
$3e:_String_CreateString_m860434552
J$d:__ZN5physx2Sc10ClothShape21updateBoundsInAABBMgrEv
gEh:_Enumerator_System_Collections_IEnumerator_Reset_m278261807_AdjustorThunk
azc:__Z38Transform_CUSTOM_INTERNAL_get_rotationP12Il2CppObjectP11Quaternionf
cKk:__ZNK15dense_hashtableINSt3__24pairIK10KeyWrapperIP11Il2CppClassES4_EES5_N6il2cpp8metadata16SZArrayClassHashEN14dense_hash_mapIS5_S4_SA_NS5_14EqualsComparerINS9_19SZArrayClassCompareEEENS0_9allocatorIS7_EEE9SelectKeyESE_SG_E3endEv
d8h:__Z73RuntimeInvoker_Single_t1397266774_Vector2_t2156229523_Vector2_t2156229523PFvvEPK10MethodInfoPvPS4_
HEk:__ZNK15dense_hashtableINSt3__24pairIK10KeyWrapperINS1_IPK10MethodInfoP11Il2CppClassEEEjEES9_17ReflectionMapHashIS8_EN14dense_hash_mapIS9_jSD_NS9_14EqualsComparerINS0_8equal_toIS8_EEEENS0_9allocatorISB_EEE9SelectKeyESI_SK_E5beginEv
gRa:__ZN7ApiGLES19UploadBufferSubDataEjN2gl12BufferTargetEllPKv
QPd:__ZN5physx2Sc5Scene17createClothSolverEv
MUi:_WebHeaderCollection_InternalSet_m1594829971
fla:__ZNSt3__216__rotate_forwardINS_11__wrap_iterIPN4core12basic_stringIcNS2_20StringStorageDefaultIcEEEEEEEET_S9_S9_S9_
nJ:__ZN7mecanim12statemachine20StateMachineConstant8TransferI14SafeBinaryReadEEvRT_
log:_MulticastDelegate_Equals_m2502840627
PVe:_SymmetricAlgorithm_set_KeySize_m3805756466
Qie:__ZThn116_N5physx7profile8ZoneImplINS_28PxProfileNameProviderForwardEE12removeClientERNS_19PxProfileZoneClientE
mVd:__ZN15MBP_PairManager17removeMarkedPairsEPK10MBP_ObjectPN5physx16PxsBroadPhaseMBPERK8BitArrayS8_
Ntf:_Byte_System_IConvertible_ToUInt32_m1049546902_AdjustorThunk
O0h:__Z53RuntimeInvoker_Double_t594665363_Interval_t1802865632PFvvEPK10MethodInfoPvPS4_
WXe:_SHA1Internal_ProcessBlock_m1991889327
SSb:__Z19TransferField_ArrayI14SafeBinaryRead27Converter_SimpleNativeClassI8GUIStyleEEvRK23StaticTransferFieldInfoR31RuntimeSerializationCommandInfoRT0_
AQb:__ZN9TextAsset23VirtualRedirectTransferER19StreamedBinaryWriteILb0EE
U1f:_Array_Sort_TisRuntimeObject_TisRuntimeObject_m1685639929_gshared
MAi:_TimerCallback_Invoke_m1938221087
Rwb:__ZN14RenderSettings5ResetEv
hac:__ZN6Sprite9BindAtlasERK4PPtrI11SpriteAtlasE
hnd:__ZN5physx9NpPhysics33unregisterDeletionListenerObjectsERNS_18PxDeletionListenerEPKPKNS_6PxBaseEj
VKj:_InternalEnumerator_1_System_Collections_IEnumerator_get_Current_m3892960115_AdjustorThunk
Jtd:__ZNK5physx2Sc9ClothCore22getAngularInertiaScaleEv
xN:__ZZN8Animator15InitializeClassEvEN37FunctorImpl_421kDidModifyOverrideClip4CallEPviR11MessageData
PCj:_VertexHelper_AddUIVertexStream_m1733605881
Ksj:_Event_Use_m1074504378
HUe:_HMAC_HashCore_m3684104066
Sed:__ZN5physx20NpRigidActorTemplateINS_18PxArticulationLinkEE12setActorFlagENS_11PxActorFlag4EnumEb
zJb:__ZN14SpriteRenderer14OnChangeSpriteEv
CWk:__ZN6il2cpp2os10ThreadImplD2Ev
wGc:__ZN8Gradient8TransferI9JSONWriteEEvRT_
Sim:_TextGenerator_System_IDisposable_Dispose_m4258206356
sob:__ZNK12TLSAllocatorI14StackAllocatorE22GetAllocatedMemorySizeEv
ax:__ZN7mecanim6memory16ChainedAllocator8AllocateEjj
joc:__Z32GetSceneHierarchyPathDescriptivePK6Object
Uel:_GUIStyle_get_contentOffset_m1453447484
t1j:_EqualityComparer_1_System_Collections_IEqualityComparer_GetHashCode_m2138064395_gshared
d_a:__ZN12HandlerChain4NameEv
Cbg:_Int16_System_IConvertible_ToType_m3672347013_AdjustorThunk
hbc:__Z13RegisterClassI14RenderSettingsEvv
rn:FUNCTION_TABLE_fiiiiiifiiiiiif
$Kb:__ZNSt3__26vectorI9InputAxisNS_9allocatorIS1_EEE10deallocateEv
gcg:_Int16_ToString_m2013897809
B2d:__ZN5physx37setupFinalizeSolverConstraintsCoulombERNS_13PxcNpWorkUnitERKNS_2Gu13ContactBufferERKNS_27PxcCorrelationBufferCoulombERKNS_11PxTransformESB_bPhRKNS_13PxcSolverBodyESF_RKNS_17PxcSolverBodyDataESI_ffjffff
w0e:_String_Substring_m2848979100
CJe:__Z44Register_UnityEngine_CanvasRenderer_get_cullv
Xbc:__ZN13ProduceHelperI13MonoBehaviourLb0EE7ProduceE18MemLabelIdentifier18ObjectCreationMode
oRb:__Z44InitializeTransferFunctionScriptingTraitsForI17RemapPPtrTransferEvR31TransferFunctionScriptingTraits
Qjb:__ZN14UnityWebStream24UpdateAllUnityWebStreamsEv
wsj:_Event_get_isKey_m2009856615
_rh:_X509Chain_SelectBestFromCollection_m1068759221
f5j:_SymmetricTransform_TransformBlock_m851059707
Jol:__ZL68IntPtr_t_CustomAttributesCacheGenerator_IntPtr_ToPointer_m4157623054P21CustomAttributesCache
FOi:_Regex_System_Runtime_Serialization_ISerializable_GetObjectData_m4061390789
QDg:_Enumerator_System_Collections_IEnumerator_Reset_m2261065994_AdjustorThunk
nyj:_ScrollRect_get_verticalNormalizedPosition_m3693218937
nUd:__ZN5physx31ComputeCreatedDeletedPairsListsEPKjS1_jRPNS_17PxcBroadPhasePairERjS5_S4_S5_S5_RNS_14SapPairManagerE
IBa:__ZN18LoadSceneOperation21MustCompleteNextFrameEv
IAj:_Slider_UpdateDrag_m1102107039
lIi:_X509ChainPolicy_set_RevocationMode_m3002768104
Ifm:_HitInfo_SendMessage_m2876711123_AdjustorThunk
tcg:_Int32_System_IConvertible_ToDateTime_m1824716955
VWk:__ZN6il2cpp2osL23CleanupThreadIfCanceledEPv
lsi:_RuntimeTypeHandle__ctor_m3315980708_AdjustorThunk
Tfb:__ZNSt3__26vectorI11CameraStackNS_9allocatorIS1_EEE8__appendEj
pZd:__ZN5physx2Gu16pcmContactBoxBoxERKNS0_13GeometryUnionES3_RKNS_11PxTransformES6_RKfRNS0_5CacheERNS0_13ContactBufferE
m_j:_X509Chain_get_TrustAnchors_m2434696767
Zy:__ZN7mecanim9animation12GetHumanPoseERKNS0_18ClipMuscleConstantEPKNS0_10ValueDeltaERNS_5human9HumanPoseE
YKe:__ZN11UnityEngine9Analytics15UserCustomEvent12CustomParams6InsertEPKcRNS1_11CustomValueE
EA:__ZN22AnimationMixerPlayable17ProcessRootMotionEP35AnimationPlayableEvaluationConstantP32AnimationPlayableEvaluationInputP33AnimationPlayableEvaluationOutput
Yda:__Z13GetFileSystemv
Zhc:__ZZL23RegisterLightPropertiesR22GenericPropertyBindingEN29Wrapper_LightColorTemperature13SetFloatValueEPvf
rfa:__ZNK5Unity4Type21FindAllDerivedClassesER13dynamic_arrayIPKS0_Lj4EENS0_17TypeFilterOptionsE
Nnl:__ZL54IEnumerable_t1941168011_CustomAttributesCacheGeneratorP21CustomAttributesCache
Aga:__ZN13RuntimeStaticI15GUIEventManagerLb0EE16StaticInitializeEPv
rKb:__ZN14SafeBinaryRead8TransferIfEEvRT_PKc17TransferMetaFlags
Gel:_GUIStyle_CalcHeight_m1675749618
The:__ZN15RaycastCallback14processTouchesEPKN5physx12PxRaycastHitEj
roj:_CanvasRenderer_SplitIndicesStreamsInternal_m2326297040
dUi:_U3CSplitHeaderValueU3Ed__f_System_Collections_IEnumerator_Reset_m2409622282
PHi:_Version_CompareTo_m3146217210
Vfh:_TlsClientCertificate_FindParentCertificate_m3844441401
DJb:__ZThn32_N14SpriteRenderer15AddAsRenderNodeER15RenderNodeQueueRK20DeprecatedSourceData
wZf:_Array_InternalArray__ICollection_CopyTo_TisKeyValuePair_2_t71524366_m1056941380_gshared
J9d:__ZN5physx2Gu5RTree15exportExtraDataERNS_22PxSerializationContextE
CCi:_Type_get_IsClass_m589177581
W8k:_GameObject_set_layer_m1777705759
OCi:_Type_get_IsSystemType_m624798880
psj:_Event_get_shift_m1295795434
R$b:__Z29Transfer_Blittable_ArrayFieldI18StreamedBinaryReadILb1EE5RectTIfEEvRT_R9ArrayInfoRK23StaticTransferFieldInfo
l3a:__ZN19ShaderPropertySheet9SetMatrixEN9ShaderLab16FastPropertyNameERK10Matrix4x4fNS_8SetFlagsE
Rlc:__Z29GetTextureSizeAllowedMultiple13TextureFormat
ZOd:__ZNK5physx2Sq10AABBPruner7overlapERKNS0_9ShapeDataERNS0_14PrunerCallbackE
wLf:_Decimal_Subtract_m835601464
Cjc:__ZN21IntermediateRenderers3AddEP20IntermediateRenderer
dzk:_il2cpp_array_element_size
jEd:__ZN5physx6shdfnd5ArrayIPvNS0_19ReflectionAllocatorINS_2Gu30LargePersistentContactManifoldEEEE4copyINS0_15InlineAllocatorILj256ES6_EEEEvRKNS1_IS2_T_EE
sYg:_Func_3_Invoke_m3933023581_gshared
Hij:_AnimatorControllerPlayable__cctor_m2622955001
Fg:_glCheckFramebufferStatus
t3k:__ZN6il2cpp2os11EventHandle4WaitEv
J4:__ZN19CloudServiceHandler20StartEventDispatcherERKN11UnityEngine15CloudWebService18CloudServiceConfigERNS1_23WebRequestRestHeaderMapE
aif:_GraphicRaycaster__ctor_m646559428
$4d:__ZN5physx2Cm12DelegateTaskINS_2Sc5SceneEXadL_ZNS3_19updateCCDSinglePassEPNS_10PxBaseTaskEEEE11runInternalEv
p0c:__ZN5physx6string9sprintf_sEPcjPKcz
Yu:__ZNSt3__26vectorI24CompressedAnimationCurve13stl_allocatorIS1_L18MemLabelIdentifier25ELi16EEE6resizeEj
Dce:__ZThn8_N5physx19TriangleMeshBuilderD1Ev
pyf:_BitArrayEnumerator_get_Current_m4220391712
TYg:__Z37il2cpp_codegen_get_executing_assemblyPK10MethodInfo
Woh:_HttpWebRequest_GetServicePoint_m2640244283
uVc:__ZN5physx2Gu16intersectRayAABBERKNS_6PxVec3ES3_S3_S3_RfS4_
kph:_IPAddress_get_ScopeId_m4237202723
jy:__ZN21AnimationClipPlayable7SetTimeEd
nOi:_ExpressionCollection_get_Item_m3510736379
O8j:_Array_InternalArray__get_Item_TisVector3_t3722313464_m2720091419_gshared
acl:_GUISkin_OnEnable_m2298707507
N9e:_StandaloneInputModule_get_inputActionsPerSecond_m3946624274
nyi:_UTF8Encoding_InternalGetCharCount_m82458470
Khc:__ZZL23RegisterLightPropertiesR22GenericPropertyBindingEN22Wrapper_LightIntensity13GetFloatValueEPv
J2d:__ZN5physx30setupFinalizeSolverConstraintsERNS_13PxcNpWorkUnitERKNS_2Gu13ContactBufferERKNS_20PxcCorrelationBufferERKNS_11PxTransformESB_bPhRKNS_13PxcSolverBodyESF_RKNS_17PxcSolverBodyDataESI_ffffff
fPk:__ZN14dense_hash_mapI10KeyWrapperIP14Il2CppIUnknownEjN6il2cpp5utils11PointerHashIS1_EENS3_14EqualsComparerINSt3__28equal_toIS2_EEEENS9_9allocatorINS9_4pairIKS3_jEEEEE15set_deleted_keyERSF_
iga:__ZN22BuiltinResourceManager16StaticInitializeEPv
Mw:__ZN7mecanim4hand8HandPose8TransferI19StreamedBinaryWriteILb0EEEEvRT_
Yjd:__ZN5physx7NpScene17releaseBatchQueryEPNS_12PxBatchQueryE
iHk:__ZN13Il2CppHashMapIPK14Il2CppAssemblyPK22Il2CppMonoAssemblyNameN6il2cpp5utils11PointerHashIS1_EENSt3__28equal_toIS2_EENSA_9allocatorINSA_4pairIK10KeyWrapperIS2_ES5_EEEEEC2EjRKS9_RKSC_
a2d:__ZN5physx26solveVBlockDefaultFrictionEPNS_13PxsSolverCoreEfjjPNS_13PxcSolverBodyEPNS_17PxcSolverBodyDataEjjPNS_25PxcArticulationSolverDescEjPNS_23PxcSolverConstraintDescEjS9_jRNS_6shdfnd5ArrayINS_24PxsConstraintBatchHeaderENSA_19ReflectionAllocatorISC_EEEESG_PNS_2Cm13SpatialVectorEPNS_25PxcThresholdStreamElementEjRj
R6g:_DelegatePInvokeWrapper_AppDomainInitializer_t682969308
rt:__ZN14AnimationEvent8TransferI14SafeBinaryReadEEvRT_
Xea:__ZN8Remapper6RemoveEi
iTd:__ZN5physx11writeBack1DERKNS_23PxcSolverConstraintDescERNS_16PxcSolverContextERNS_17PxcSolverBodyDataES6_
nvi:_Encoding_GetBytes_m3148649984
Zse:__ZL36CleanupTextRenderingScriptingClassesv
WQc:__ZThn4_N16RayRTreeCallbackILi0ELb0EED0Ev
pgb:__ZN15ReflectionProbe17UseRendererResultEP13ProbeRenderer
Lvc:__Z34Mesh_CUSTOM_SetArrayForChannelImplP12Il2CppObject30InternalScriptingShaderChannel34InternalScriptingVertexChannelTypeiP11Il2CppArrayi
WFi:_UInt64_System_IConvertible_ToDecimal_m806594027_AdjustorThunk
Wyh:_Enumerator_System_Collections_IEnumerator_get_Current_m361750367_AdjustorThunk
aAh:_Enumerator_get_CurrentValue_m3103267885_gshared
_tg:_List_1__ctor_m3395838871_gshared
o6f:_CultureInfo_get_Parent_m672689885
rYj:_PKCS12__ctor_m1854440921
t1f:_Array_Resize_TisCustomAttributeNamedArgument_t287865710_m885566878_gshared
Ocm:_Rect_Equals_m866904981_AdjustorThunk
VM:__ZN11UnityEngine9Animation28GenericAnimationBindingCache25RegisterIAnimationBindingEPKN5Unity4TypeEiP17IAnimationBinding
dOd:__ZN5physx2Gu17GetGeomSweepFuncsEv
gJg:_Collection_1_CheckWritable_m2483216692_gshared
V7c:__ZN5physx6shdfnd8PoolBaseINS_15PxsArticulationENS0_16AlignedAllocatorILj64ENS0_9AllocatorEEEE17releaseEmptySlabsEv
mgg:_DirectoryInfo__ctor_m481305441
Msm:dynCall_viiffiii
GKe:__ZN14UnityAnalytics25UnregisterGlobalCallbacksEv
qeb:__Z40ProcessCameraIndexListIsNodeVisibleInOutRK22SceneCullingParametersPK9SceneNodePK4AABBR9IndexList
iub:__ZN16GraphicsSettings8TransferI17RemapPPtrTransferEEvRT_
zZi:_U3CU3Ec__DisplayClass1f_U3CvalidateSecWebSocketProtocolServerHeaderU3Eb__1e_m266596900
eHe:__ZN2UI6Canvas13UpdateBatchesEb
ND:__ZNK23AnimationPlayableOutput11DerivesFromE17ScriptingClassPtr
rxm:_glGetShaderInfoLog__wrapper
hJh:_Dictionary_2_GetObjectData_m2556964510_gshared
Qod:__ZN5physx2Gu5Debug9visualizeERKNS_13PxBoxGeometryERNS_2Cm12RenderOutputERKNS5_8Matrix34ERKNS_9PxBounds3Eyfj
zgj:_AnimatorControllerPlayable_INTERNAL_CALL_GetLayerWeightInternal_m1307030297
rPc:__ZN5physx6shdfnd5ArrayIPKvNS0_19ReflectionAllocatorIS3_EEE6resizeEjRKS3_
iOe:__ZN11UnityEngine7Connect13ConfigHandler12GetListenersERKN4core12basic_stringIcNS2_20StringStorageDefaultIcEEEE
oKa:__ZN9GfxDevice18AllocRenderSurfaceEb
muf:_Char__cctor_m2787437263
udj:_AnimationLayerMixerPlayable_INTERNAL_CALL_IsLayerAdditiveInternal_m3782915224
P2d:__ZN5physx31setupFinalizeSolverConstraints4EPNS_21PxcSolverContact4DescERNS_18PxcNpThreadContextEPhffRKNS_6shdfnd3aos5Vec4VES9_S9_S9_
xGd:__ZN5physx7NpScene5flushEb
bac:__ZN10TagManager32GetSortingLayerUniqueIDFromValueEi
abf:_AspectRatioFitter_get_rectTransform_m2996235303
laa:__ZL27CleanupCoreScriptingClassesv
Oef:_Graphic_UnregisterDirtyMaterialCallback_m2707090617
jAh:_Enumerator_VerifyCurrent_m3071620407_AdjustorThunk
Cxh:_Comparer_1_System_Collections_IComparer_Compare_m1313384821_gshared
k_g:_SimpleCollator_MatchesPrimitive_m3079388596
Avc:__Z26AnimationCurve_CUSTOM_InitP12Il2CppObjectP11Il2CppArray
gBm:_glUniform1uiv__wrapper
VGk:__ZN6il2cpp2vm10Reflection7IsEventEP12Il2CppObject
sba:__ZN17PersistentManager26GetStreamNameSpaceInternalEi
$al:_GUIContent__cctor_m2576151643
wS:__ZN4FMOD6System11createSoundEPKcjP22FMOD_CREATESOUNDEXINFOPPNS_5SoundE
_o:FUNCTION_TABLE_iiifiiii
j_f:_Array_InternalArray__ICollection_CopyTo_TisRaycastHit_t1056001966_m1648691138_gshared
qIf:_DateTime_System_IConvertible_ToDecimal_m1044850612
gJi:_X509Store_get_Factory_m3282910266
ije:__ZThn128_N5physx7profile8ZoneImplINS_28PxProfileNameProviderForwardEED1Ev
U8:__ZN9ShaderLab19CommonPropertyNames13StaticCleanupEPv
Aca:__Z31scripting_method_get_returntype18ScriptingMethodPtr
tPd:__ZN5physx2Sq17AABBTreeUpdateMap10invalidateEjjRNS0_8AABBTreeE
$Ab:__ZN15SerializeTraitsI12LightmapDataE8TransferI24GenerateTypeTreeTransferEEvRS0_RT_
c2d:__ZN5physx28solveParallelDefaultFrictionERNS_18PxsDynamicsContextEjjPNS_13PxcSolverBodyEPNS_17PxcSolverBodyDataEjjPNS_25PxcArticulationSolverDescEjPNS_23PxcSolverConstraintDescEjS9_jPiSA_SA_SA_SA_SA_PNS_25PxcThresholdStreamElementEjSA_PNS_2Cm13SpatialVectorEPKPNS_11PxsBodyCoreERNSD_10BitMapBaseINS_6shdfnd9AllocatorEEEPKPNS_15PxsArticulationEjPViRNSL_5ArrayINS_24PxsConstraintBatchHeaderENSL_19ReflectionAllocatorISW_EEEES10_RNSV_IjNSX_IjEEEES13_PPNS_12PxsRigidBodyEj
$lc:__ZN4Mesh5SetUvEiPKfjj
kCa:__ZN7Texture13SetAnisoLimitENS_20AnisotropicFilteringE
ECa:__ZN28LightProbeProxyVolumeManager25UpdateSHCoeffsTextureDataER21LightProbeProxyVolume
fYa:__Z18CreateDecompressor15CompressionType18MemLabelIdentifier
W_:__ZN11AudioModule16SetListenerPauseEb
ial:_GUI_PasswordField_m1705767720
hrf:_Attribute_IsDefined_m4069052474
wi:_emscripten_glCompressedTexSubImage2D
ASa:__ZN13GfxDeviceGLES22MemoryBarrierImmediateEyN2gl17MemoryBarrierTypeE
Ska:__ZZN18SpriteAtlasManagerC1EvEN46EarlyUpdateSpriteAtlasManagerUpdateRegistrator7ForwardEv
tm:_abort
Hza:__ZN6prcoreL26RemapGenericFloatToIntegerI18TexFormatARGBFloat17TexFormatARGB8888EEvPKNS_9InnerInfoE
CCg:_List_1_set_Capacity_m1977188119_gshared
oZk:__ZN6il2cpp6icalls8mscorlib6System10Reflection9MonoField16GetValueInternalEP21Il2CppReflectionFieldP12Il2CppObject
Mlc:__Z46GetShaderModelNumericValueFromRequirementsMask18ShaderRequirements
Pxi:_UTF7Encoding_InternalGetBytes_m797138468
VBe:_cff_ps_has_glyph_names
Ice:__ZN5physx15writeWordBufferEPKtjbRNS_14PxOutputStreamE
Vil:_MonoBehaviour_StopCoroutine_m1038915083
yLh:_Dictionary_2_Resize_m3287623642_gshared
_$k:_GC_write
JVe:_RC2_Create_m2516417038
Nhf:_Graphic_OnPopulateMesh_m767318148
sIh:_Dictionary_2_Remove_m4193450060_gshared
kog:_MulticastDelegate_GetObjectData_m3957553424
iki:_ConstructionCallDictionary__ctor_m2541174073
Jmi:_RemotingServices_IsTransparentProxy_m1535738947
n0f:_Array_InternalArray__set_Item_TisMark_t3471605523_m1299772331_gshared
wFc:__Z44Register_UnityEngine_GUIStyle_SetDefaultFontv
zWk:__GLOBAL__sub_I_ThreadImpl_cpp
VZb:__Z18Transfer_BlittableI18StreamedBinaryReadILb1EELb1EiEvRK29SerializationCommandArgumentsR31RuntimeSerializationCommandInfo
EF:__ZN9BlobWrite8TransferI22OffsetPtrArrayTransferIKN4math7_float3EEEEvRT_PKc17TransferMetaFlags
EIb:__ZN16MeshSkinningData14GetBoneWeightsEi
lTh:__Z173RuntimeInvoker_Int32_t2950945753_RuntimeObject_Int32_t2950945753_Int32_t2950945753_Int32_t2950945753_RuntimeObject_Int32_t2950945753_SByte_t1669577662_ContextU26_t3937453398PFvvEPK10MethodInfoPvPS4_
Wvg:_List_1__ctor_m2576108087_gshared
KFk:__ZN15dense_hashtableINSt3__24pairIK10KeyWrapperINS1_IPK12PropertyInfoP11Il2CppClassEEEjEES9_17ReflectionMapHashIS8_EN14dense_hash_mapIS9_jSD_NS9_14EqualsComparerINS0_8equal_toIS8_EEEENS0_9allocatorISB_EEE9SelectKeyESI_SK_E12maybe_shrinkEv
I5c:__ZN5physx2Sc7BodySim37checkSleepReadinessBesidesWakeCounterEv
TYj:_X509Certificate_get_DSA_m565099499
o_b:__Z18Transfer_BlittableI18StreamedBinaryReadILb1EELb1EsEvRK29SerializationCommandArgumentsR31RuntimeSerializationCommandInfo
Pij:_AnimatorControllerParameter_Equals_m1144065427
Fwi:_StringBuilder_Remove_m940064945
hui:_DESCryptoServiceProvider_GenerateIV_m683687014
jWj:_Context_NotifyDynamicSinks_m1841702879
qCa:__ZL21SetAnisoLimitEnumImplN7Texture20AnisotropicFilteringEb
AMe:__ZN22BaseUnityConnectClient17OnEnterStateReadyEv
aDi:_Type_GetTypeHandle_m1526957577
HDd:__ZN5physx2Sc10NPhaseCore24createTriggerInteractionERNS0_8ShapeSimES3_NS_7PxFlagsINS_10PxPairFlag4EnumEtEE
BBj:_Text_get_fontSize_m1677872538
ssg:_List_1_System_Collections_IList_get_Item_m995551621_gshared
rVi:_AuthenticationBase_CreateNonceValue_m3134043804
iFa:__ZN14GrowableBufferD2Ev
Uuc:__Z29Input_CUSTOM_GetMouseButtonUpi
ZRc:__ZN5physx2Gu12selectNormalEhff
byk:__ZN6il2cpp6icalls8mscorlib6System8MonoType16InternalGetEventEP20Il2CppReflectionTypeP12Il2CppStringi
uTi:_Ext_InternalToByteArray_m3502967914
ith:_Socket_EndSend_m1244041542
cSi:_UriScheme_t722425697_marshal_pinvoke_back
hTi:_CookieCollection_searchCookie_m382296377
Eve:_UNITY_tt_face_load_maxp
gDc:__Z39Register_UnityEngine_Event_Internal_Usev
dvc:__Z46Input_CUSTOM_INTERNAL_set_compositionCursorPosRK13Vector2fIcall
dy:__ZN7mecanim5human12FullBodyMaskEv
Wwd:__ZN5physx3Scb14ParticleSystem16releaseParticlesEjRKNS_16PxStrideIteratorIKjEE
$_g:_BigInteger_ToString_m3475000413
s8:__ZN19ShaderPropertySheet11ComputeHashEv
Prk:__ZN30dense_hashtable_const_iteratorI10KeyWrapperIPK19Il2CppGenericMethodES4_N6il2cpp8metadata23Il2CppGenericMethodHashEN14dense_hash_setIS4_S7_NS4_14EqualsComparerINS6_26Il2CppGenericMethodCompareEEENSt3__29allocatorIS4_EEE8IdentityESB_SE_EppEv
GJd:__ZN5physx2Sc5Scene21processLostTouchPairsEv
eel:_GUIStyle_Draw_m3718413813
i3:__ZN11UnityEngine15CloudWebService20WebRequestRestClient6IsDoneEv
_Zj:_X509CertificateCollection_get_Item_m1033426577
sj:_llvm_fabs_f32
N2:__ZN11UnityEngine15CloudWebService16SessionContainer16GetJsonDataBlockEjRKN4core12basic_stringIcNS2_20StringStorageDefaultIcEEEERS6_PjSA_
anh:_DeflateStream_ReadZStream_m3405013189
skl:_Physics_Raycast_m1114390595
$pi:_ObjectReader_RegisterObject_m1853376334
s0g:_ASN1_Decode_m1695284166
Et:__ZN7mecanim9animation18ClipMuscleConstant8TransferI14SafeBinaryReadEEvRT_
XXd:__ZN5physx22PxcContactConvexConvexERKNS_2Gu13GeometryUnionES3_RKNS_11PxTransformES6_RKfRNS_10PxcNpCacheERNS0_13ContactBufferE
AOf:_Enum_ToString_m3248653065
pRc:__ZNK5physx2Gu11ConvexHullV12HillClimbingERKNS_6shdfnd3aos5Vec3VE
ZCc:__Z40Register_UnityEngine_Event_set_modifiersv
Hba:__ZN14SafeBinaryReadD2Ev
jwh:_X509BasicConstraintsExtension_CopyFrom_m1931463033
Kwd:__ZN5physx2Sc18ParticleSystemCore10setDampingEf
tbc:__Z13RegisterClassI7TextureEvv
Upg:_Enumerator_MoveNext_m3859993671_gshared
C$b:__ZN8Gradient8TransferI18StreamedBinaryReadILb1EEEEvRT_
AJi:_Capture__ctor_m3103117740
Lij:_Animator_ResetTriggerString_m1083629800
jSh:__Z113RuntimeInvoker_Void_t1185182177_RuntimeObject_Int64_t3736567304_RuntimeObject_Int64_t3736567304_Int64_t3736567304PFvvEPK10MethodInfoPvPS4_
s2c:__ZN5physx2Sc10NPhaseCore16deleteFilterPairEPNS0_10FilterPairE
gFc:__Z45Register_UnityEngine_GUIStyle_SetFontInternalv
Xnk:__ZN6il2cpp2vmL17SetupEventsLockedEP11Il2CppClassRKNS_2os12FastAutoLockE
rOk:__ZN6il2cpp6icalls8mscorlib6System4Type15MakeGenericTypeEP20Il2CppReflectionTypeP11Il2CppArray
N2b:__ZN6ShaderD2Ev
xmj:_Bounds_op_Equality_m3976187280
Tj:_SDL_PauseAudio
pAf:_Hashtable_Clone_m3078962909
aDc:__Z40Register_UnityEngine_Event_set_characterv
GAk:__ZN6il2cpp2os4File11GetStdErrorEv
s6c:__ZN5physx2Sc5Scene28addActiveBreakableConstraintEPNS0_13ConstraintSimE
T8:__ZN9ShaderLab19CommonPropertyNames16StaticInitializeEPv
Iul:__ZL51Assembly_t4102432799_CustomAttributesCacheGeneratorP21CustomAttributesCache
qld:__ZN5physx6shdfnd8PoolBaseINS_16NpParticleSystemENS0_19ReflectionAllocatorIS2_EEE15disposeElementsEv
DH:__ZN7mecanim9animation18CreateAvatarOutputEPKNS0_14AvatarConstantEbbRNS_6memory9AllocatorE
Eje:__ZN5physx7profile11EventBufferINS_24PxDefaultContextProviderENS_6shdfnd6MutexTINS0_26WrapperReflectionAllocatorIhEEEENS0_14ScopedLockImplIS7_EENS_24PxProfileNullEventFilterEE10eventValueEtyx
JFc:__Z45GUIUtility_CUSTOM_Internal_GetKeyboardControlv
oAj:_Slider_set_maxValue_m2251404465
xZf:_Array_InternalArray__ICollection_CopyTo_TisKeyValuePair_2_t3699644050_m2735311972_gshared
qVc:__ZN5physx2Gu11getBoxEdgesEv
xLe:__ZN14UnityAnalytics15SendCustomEventERN11UnityEngine9Analytics15UserCustomEventE
XEb:__ZN14Texture2DArray23VirtualRedirectTransferER14SafeBinaryRead
mmg:_MissingMemberException__ctor_m1220732369
l9a:__ZNK6Camera21CalculateCanDoShadowsEv
fId:__ZNK5physx2Sc5Scene17getBroadPhaseCapsERNS_16PxBroadPhaseCapsE
eid:__ZN5physx9NpFactory14onActorReleaseEPNS_7PxActorE
Uth:_Socket_Connect_m2387904622
oWk:__ZN6il2cpp2os6Thread12SetStackSizeEj
u8c:__ZN5physx2Sc5Actor15onElementAttachERNS0_7ElementE
Huj:_MaskableGraphic_RecalculateMasking_m183336762
n5f:_Array_InternalArray__get_Item_TisRuntimeObject_m3347010206_gshared
A6i:_TypeBuilder_IsSubclassOf_m3458909121
qmc:__ZNK8Renderer16IsVisibleInSceneEv
j0i:_Default_check_arguments_with_score_m3467814020
G7:__Z13VFormatBufferPciPKcz
vwd:__ZN5physx2Sc18ParticleSystemCore23setSimulationFilterDataERKNS_12PxFilterDataE
v0b:__Z18Transfer_BlittableI18StreamedBinaryReadILb0EELb1EhEvRK29SerializationCommandArgumentsR31RuntimeSerializationCommandInfo
Lza:__ZN6prcoreL27StretchGenericFloatBilinearI15TexFormatRFloatEEvPKNS_9InnerInfoE
nOd:__ZN5physx6shdfnd8internal8HashBaseINS0_4PairIKNS_2Sq13PrunerPayloadEjEES5_NS0_4HashIS5_EENS1_11HashMapBaseIS5_jS9_NS0_9AllocatorEE6GetKeyESB_Lb1EE15reserveInternalEj
LHl:__ZL139ServicePointManager_t170559685_CustomAttributesCacheGenerator_ServicePointManager_t170559685____CheckCertificateRevocationList_PropertyInfoP21CustomAttributesCache
Cdm:_RectTransform_get_pivot_m1676241928
MOf:_Enum_ToObject_m1628250250
JA:__Z24ProcessAnimationMixBeginP35AnimationPlayableEvaluationConstantP32AnimationPlayableEvaluationInputP33AnimationPlayableEvaluationOutput
JAg:_List_1_set_Item_m2057272351_gshared
Rhm:_TextEditor_SelectGraphicalLineEnd_m3753080165
JQa:__Z14PadImageBorderR14ImageReferenceii
nEk:__ZN15dense_hashtableINSt3__24pairIK10KeyWrapperINS1_IPK10MethodInfoP11Il2CppClassEEEjEES9_17ReflectionMapHashIS8_EN14dense_hash_mapIS9_jSD_NS9_14EqualsComparerINS0_8equal_toIS8_EEEENS0_9allocatorISB_EEE9SelectKeyESI_SK_E4findERSA_
Tuk:__ZN6il2cpp2vm13MetadataCache28GetFieldDefaultValueForFieldEPK9FieldInfo
IWf:_Array_IndexOf_TisUIVertex_t4057497605_m3336763564_gshared
p4f:_GameObject_GetComponents_TisRuntimeObject_m974145097_gshared
pB:__ZN27AnimationLayerMixerPlayableD2Ev
jdf:_ColorBlock_Equals_m518833916_AdjustorThunk
_Rd:__ZN5physx2Gu22gjkRelativePenetrationINS0_9TriangleVENS0_8CapsuleVEEEjRKT_RKT0_RKNS_6shdfnd3aos15PsMatTransformVERKNSB_6FloatVERNSB_5Vec3VESJ_SJ_RSF_PhSL_Rh
J5k:__ZN6il2cpp2os9FastMutexC2Ev
Zde:__ZN9Rigidbody14SetIsKinematicEb
U_l:__ZL66PersistentCall_t3407714124_CustomAttributesCacheGenerator_m_TargetP21CustomAttributesCache
oU:__ZN12AudioManager39HandlePendingAudioConfigurationCallbackEv
VWi:_WebHeaderCollection_addWithoutCheckingName_m2693128774
Qk:_emscripten_glIsFramebuffer
B3g:_RSAManaged_EncryptValue_m799827583
Tic:__ZN12_GLOBAL__N_16qAtan2Eff
Une:__Z13RegisterClassI9RigidbodyEvv
Uk:_JS_Sound_SetLoopPoints
lY:__ZN12AudioManager17ShouldSourcePauseEb
p4k:__ZN6il2cpp2vm26MetadataAllocGenericMethodEv
VSf:_Array_InternalArray__ICollection_Remove_TisUInt16_t2177724958_m1766181761_gshared
$Ua:__ZN19ConstantBuffersGLES12RecordRenderEv
RNd:__ZN5physx13ActorAABBTaskD2Ev
IIc:__ZN9JSONWrite8TransferI10RectOffsetEEvRT_PKc17TransferMetaFlags
pQa:__ZN4crnd12symbol_codec11decode_bitsEj
nAe:_cf2_doFlex
vem:_RectTransformUtility_GetTransposed_m440700723
y5j:_AesManaged_GenerateIV_m1368817386
lwb:__ZN10Matrix3x4f8TransferI24GenerateTypeTreeTransferEEvRT_
f7f:_NumberFormatter_FastIntegerToString_m390846811
sU:__ZN4FMOD6System12createReverbEPPNS_6ReverbE
cdj:_AnimationClipPlayable_GetRemoveStartOffset_m588862279_AdjustorThunk
cB:__ZN7mecanim19ValueArrayBlendNodeILb1EEEvRKNS_10ValueArrayERKNS_14ValueArrayMaskERS1_RS4_RNS_16ValueArrayWeightEf
UAa:__Z16MarkDependenciesR27GarbageCollectorThreadStatej
rmm:_Vector4_ToString_m592115335
u8j:_ObjectPool_1_get_countInactive_m526975942_gshared
Vgj:_AnimatorControllerPlayable_GetCurrentAnimatorClipInfo_m3502914800_AdjustorThunk
Nni:_RemotingServices_DisposeIdentity_m2605848806
P8:__ZNK9Transform11GetPositionEv
Tim:_TextGenerator_Dispose_cpp_m3030344874
qag:_GuidParser_Reset_m2640004655
c4a:__ZN23SharedMeshRenderingData18UnloadVertexStreamEi
j$c:__ZN5physx3Cct13HandleManager3AddEPv
Bjc:__ZN31CanvasBatchIntermediateRenderer11AddSubBatchERK16DrawBuffersRangePK19ShaderPropertySheet
poj:_CanvasRenderer_SplitUIVertexStreams_m1311515332
aic:__ZN19RenderEventsContextC2Ei
W0:__Z6simd4fRKf
osi:_RuntimeTypeHandle_GetObjectData_m1599302095_AdjustorThunk
vl:_emscripten_glEnable
jJj:_InternalEnumerator_1_System_Collections_IEnumerator_get_Current_m2982675020_gshared
trb:__ZN10TagManager23VirtualRedirectTransferER14SafeBinaryRead
g7d:__ZNK5physx2Sc15ClothFabricCore9getNbSetsEv
aem:_Transform_get_parent_m1293647796
Akm:_Transform_IsChildOf_m98488483
_ue:_UNITY_FT_Init_Class_ft_grays_raster
ecb:__Z15InitLightMeshesv
fVi:_Logger_Trace_m4193363400
l8i:_MonoCMethod_ToString_m3992577062
Btj:_LayoutUtility_GetLayoutProperty_m714717302
mHd:__ZNK5physx7NpScene26getNbContactDataBlocksUsedEv
to:FUNCTION_TABLE_iifiii
VWc:__ZN5physx2Gu29computeCapsule_HeightFieldMTDERKNS_21PxHeightFieldGeometryERKNS_11PxTransformERNS0_8CapsuleVEffbjRNS_10PxSweepHitE
z8d:__ZN5physx2Gu11HeightField15exportExtraDataERNS_22PxSerializationContextE
J2a:__ZN22RenderingCommandBuffer36AcquireAndRegisterSharedMaterialDataEP8Material
qYb:__Z18Transfer_BlittableI19StreamedBinaryWriteILb0EELb1E8Vector2fEvRK29SerializationCommandArgumentsR31RuntimeSerializationCommandInfo
Vze:_cf2_arrstack_init
u5f:_Array_InternalArray__get_Item_TisResourceCacheItem_t51292791_m1306056717_gshared
q6h:__Z157RuntimeInvoker_Void_t1185182177_RuntimeObject_RuntimeObject_RuntimeObject_RuntimeObject_RuntimeObject_RuntimeObject_RuntimeObject_RuntimeObject_RuntimeObjectPFvvEPK10MethodInfoPvPS4_
s7:__Z15CleanLogHandler7LogTypePKcz
Sog:_NumberFormatter_NumberToString_m2481532188
v6b:__ZN9ShaderLab19SerializedSubShader8TransferI19StreamedBinaryWriteILb0EEEEvRT_
rnd:__ZN5physx10NpMaterialC2ERKNS_2Sc12MaterialCoreE
qyj:_ScrollRect_InternalGetBounds_m599803667
S_d:__ZN5physx9PxTaskMgr10resolveRowEjb
_Ob:__ZN6Camera17RemoveImageFilterERK11ImageFilter
YRa:__ZNSt3__218__insertion_sort_3IR25ValueParameterArraySorterPN20GpuProgramParameters14ValueParameterEEEvT0_S6_T_
kzf:_Comparer__cctor_m3311686689
K3a:__ZNSt3__214__split_bufferI20ComputeShaderVariantRNS_9allocatorIS1_EEED2Ev
nqe:__ZNSt3__26vectorIN4core12basic_stringIcNS1_20StringStorageDefaultIcEEEE13stl_allocatorIS5_L18MemLabelIdentifier34ELi16EEE7reserveEj
hej:_AnimationOffsetPlayable_SetPosition_m2047692231_AdjustorThunk
NIj:_InternalEnumerator_1_get_Current_m3500427238_AdjustorThunk
MHe:__ZN2UI26InitializeDeviceForOverlayEi
C6d:__ZNK5physx13NpClothFabric13getRestvaluesEPfj
ldj:_AnimationLayerMixerPlayable_CreateHandleInternal_m3441483873
i9:__Z27LogRepeatingStringWithFlagsRKN4core12basic_stringIcNS_20StringStorageDefaultIcEEEE15LogMessageFlagsi
kUc:__ZN5physx2Gu16_gjkLocalRayCastINS0_9TriangleVENS0_11ConvexHullVEEEbRT_RT0_RKNS_6shdfnd3aos6FloatVERKNS9_5Vec3VESF_RSA_RSD_SH_f
NOf:_Enum_IsDefined_m1442314461
AKg:_Collection_1_set_Item_m3756018377_gshared
Ey:__ZN17AnimationPlayable28ComputeNeedsBindingRebuildedEv
rjl:_U3CInvokeMessageIdSubscribersU3Ec__AnonStorey0_U3CU3Em__0_m1890366417
D6c:__ZN5physx6shdfnd8PoolBaseINS_2Cm5BlockIPvLj32EEENS0_19ReflectionAllocatorIS5_EEE17releaseEmptySlabsEv
G0i:_CustomAttributeNamedArgument_GetHashCode_m2317130892
dUd:__ZN5physx23PxsBroadPhaseContextSap21batchUpdateFewUpdatesEjRPNS_17PxcBroadPhasePairERjS4_
uui:_DecoderReplacementFallbackBuffer_Fallback_m1261056214
Cal:_GUILayoutUtility_LayoutSingleGroup_m1507249238
AXc:__ZN5physx3Cct17getSceneTimestampEPKNS0_30InternalCBData_FindTouchedGeomE
MMb:__ZN15ResourceManagerD0Ev
U$i:_Binder_get_DefaultBinder_m950908649
Fgg:_StreamReader__ctor_m1616861391
xPe:__ZN18UnityConnectClient33OnPlayerSessionStateChangedStaticEPS_jyy
jXe:_RSA_ToXmlString_m2922661427
S3:__ZNK11UnityEngine15CloudWebService23WebRequestUploadHandler11GetProgressEv
HNa:__ZN7ApiGLES4LoadE16GfxDeviceLevelGL
mBb:__ZN18StreamedBinaryReadILb0EE21TransferSTLStyleArrayI13dynamic_arrayI31EnlightenSystemAtlasInformationLj8EEEEvRT_17TransferMetaFlags
Amd:__ZN5physx9NpPhysics15createAggregateEjb
fSk:__ZN15dense_hashtableI10KeyWrapperIP18Il2CppGenericClassES3_N6il2cpp8metadata22Il2CppGenericClassHashEN14dense_hash_setIS3_S6_NS3_14EqualsComparerINS5_25Il2CppGenericClassCompareEEENSt3__29allocatorIS3_EEE8IdentityESA_SD_E15insert_noresizeERKS3_
ygc:__ZZL31RegisterOtherRendererPropertiesR22GenericPropertyBindingEN30Wrapper_RendererReceiveShadows13GetFloatValueEPv
Lge:__ZN9Rigidbody5ResetEv
qRf:_Array_InternalArray__ICollection_Contains_TisSlot_t384495010_m688761886_gshared
Crm:__ZNK10__cxxabiv121__vmi_class_type_info16search_below_dstEPNS_19__dynamic_cast_infoEPKvib
Gpa:__ZN8Material11SetPassFastEPN9ShaderLab4PassER17ShaderPassContextP6Shaderib
H4j:_HashSet_1_Resize_m2067174885_gshared
vPe:__ZN11UnityEngine7Connect20BasePersistentValues10SaveValuesER9JSONWrite
aMg:_Collection_1_IsFixedSize_m3748602684_gshared
sIf:_DateTime_System_IConvertible_ToDouble_m2116720007
ZQ:__Z93Register_UnityEngine_Animations_AnimatorControllerPlayable_INTERNAL_CALL_GetLayerNameInternalv
O4g:_X509Certificate_PEM_m1177570576
c8f:_NumberFormatter_AppendExponent_m1258666517
QDj:_ArrayReadOnlyList_1_GetEnumerator_m1835926958_gshared
J_d:__ZN5physx9PxTaskMgr12addReferenceEj
Yml:_Quaternion_Equals_m1217639185_AdjustorThunk
g6a:__Z12SetupLODFadeR9GfxDeviceR17ShaderPassContextf
Xxb:__ZNK14PlayableOutput7GetTypeEv
Tbb:__ZL24CollectForwardObjectsJobP27CollectForwardObjectsHeader
GBg:_List_1_get_Item_m1378751541_gshared
Lfb:__ZNK25CameraStackRenderingState24ResolveTempToEyeTexturesEv
Odb:__Z13IsNodeVisibleRK9SceneNodeRK4AABBRK22SceneCullingParameters
nXf:_Array_InternalArray__IndexOf_TisLabelFixup_t858502054_m1491765395_gshared
OZg:_SortKeyBuffer_AppendCJKExtension_m2591091991
IJe:__Z57RectTransformUtility_CUSTOM_INTERNAL_CALL_PixelAdjustRectP12Il2CppObjectS0_R5RectTIfE
nDm:_emscripten_glStencilMask__wrapper
RQh:__Z49RuntimeInvoker_Void_t1185182177_Double_t594665363PFvvEPK10MethodInfoPvPS4_
Frk:__ZN15dense_hashtableI10KeyWrapperIPK19Il2CppGenericMethodES4_N6il2cpp8metadata23Il2CppGenericMethodHashEN14dense_hash_setIS4_S7_NS4_14EqualsComparerINS6_26Il2CppGenericMethodCompareEEENSt3__29allocatorIS4_EEE8IdentityESB_SE_EC2ERKSH_j
dtk:__ZN15dense_hashtableINSt3__24pairIK10KeyWrapperIN6il2cpp5utils13dynamic_arrayIPK10Il2CppTypeLj4EEEEPFvvEEESA_NS3_8metadata19Il2CppSignatureHashEN14dense_hash_mapISA_SD_SG_NSA_14EqualsComparerINSF_22Il2CppSignatureCompareEEENS0_9allocatorISE_EEE9SelectKeyESK_SM_EC2EjRKSG_RKSK_RKSO_
k2a:__ZN15RenderNodeQueue7CleanupEv
B0c:__ZN16NovodexAllocator8allocateEjPKcS1_i
rbb:__Z17PrepareShadowMapsRK11CullResultsRK11ActiveLightRK10MinMaxAABB
FYj:_DeriveBytes_DeriveIV_m973925711
Ecg:_Int32_System_IConvertible_ToSByte_m3133688512
AXi:_PayloadData_System_Collections_IEnumerable_GetEnumerator_m1094298891
Qbb:__ZN9ShaderLab10GrabPassesD2Ev
zyj:_ScrollRect_CalculateOffset_m927043599
gFb:__ZN14Texture2DArray13UploadTextureEv
ruj:_MaskableGraphic_UpdateCull_m2805101913
mxe:_tt_cmap14_done
LBa:__ZN18AwakeFromLoadQueue25RegisterObjectInstanceIDsEv
Ckf:_InputField_UpdateLabel_m1837760870
uB:__ZNK27AnimationLayerMixerPlayable11DerivesFromE17ScriptingClassPtr
hre:__ZN20TextRenderingPrivate19NativeTextGenerator15InsertCharacterEiPj
ZHd:__ZN5physx2Sc5Scene22removeBroadPhaseRegionEj
B$c:__ZN5physx2Cm12RenderBuffer5clearEv
gyh:_Enumerator_get_CurrentValue_m3438280969_gshared
Ltd:__ZNK5physx2Sc9ClothCore21getStiffnessFrequencyEv
ong:_MonoType_get_attributes_m1332507727
oQd:__ZN5physx13PxsCCDContext14postCCDAdvanceEPNS_10PxBaseTaskE
Gpi:_BinaryCommon__cctor_m2978407547
$Rj:_ResourceInfo_t2872965302_marshal_pinvoke_back
suf:_Char_System_IConvertible_ToByte_m2347554595
QOk:__ZN6il2cpp6icalls8mscorlib6System2IO6MonoIO20GetFileSystemEntriesEP12Il2CppStringS6_iiPi
c7j:_IndexedSet_1__ctor_m2250384602_gshared
JEi:_UInt16_TryParse_m4139137016
twc:__Z41MonoBehaviour_Set_Custom_PropUseGUILayoutP12Il2CppObjecth
bse:_UNITY_FT_Open_Face
avi:_Encoding__ctor_m2997749867
eQi:_ExpressionAssertion_Compile_m2166597834
A2b:__ZN16ScriptingManagerD0Ev
k1e:_Single_System_IConvertible_ToSByte_m1208276900_AdjustorThunk
Wfh:_TlsClientCertificate_ProcessAsSsl3_m3265529850
S_k:__ZN6il2cpp6icalls8mscorlib6System7Convert24InternalFromBase64StringEP12Il2CppStringb
EWd:__ZNK5physx10BPWorkTask7getNameEv
Mid:__ZN5physx2Sc8ShapeSim16onResetFilteringEv
Wri:_RuntimeFieldHandle_GetObjectData_m95767031_AdjustorThunk
VQk:__ZN30dense_hashtable_const_iteratorINSt3__24pairIK10KeyWrapperINS1_IPKcS4_EEEiEES6_24NamespaceAndNamePairHashN14dense_hash_mapIS6_iS9_NS6_14EqualsComparerI26NamespaceAndNamePairEqualsEENS0_9allocatorIS8_EEE9SelectKeyESD_SF_EppEv
Vsc:__Z44Register_UnityEngine_Component_get_transformv
euc:__Z39GameObject_CUSTOM_FindGameObjectWithTagP12Il2CppString
lhl:_Mathf_Floor_m3583650842
IG:__ZN12_GLOBAL__N_120ProcessPlayableGraphERN8Animator11AnimatorJobER35AnimationPlayableEvaluationConstantR32AnimationPlayableEvaluationInputR33AnimationPlayableEvaluationOutputPFvS4_R17AnimationPlayableEPFvS4_S6_S8_EPFvS8_S4_S6_S8_fESE_MS9_FvPS3_PS5_PS7_E
gag:_TextInfo_ToLower_m2744057472
_Xa:__ZN17ArchiveFileSystem12MountArchiveEPKcS1_
OHc:__Z18Transfer_BlittableI9JSONWriteLb1E8Vector4fEvRK29SerializationCommandArgumentsR31RuntimeSerializationCommandInfo
no:FUNCTION_TABLE_viififiii
aQf:_CCGregorianCalendar_year_from_fixed_m463929682
bGe:__ZN2UI13CanvasManagerD0Ev
SBb:__ZThn32_NK8Renderer14GetSubsetIndexEi
hmk:_WaitForSecondsRealtime_get_keepWaiting_m2883408337
V9g:_MD2Managed_Initialize_m2341076836
mVg:_ReadOnlyCollection_1_System_Collections_IList_Add_m4240023232_gshared
j9k:_Gradient_Cleanup_m2853808023
ifc:__ZN13ProduceHelperI15ResourceManagerLb0EE7ProduceE18MemLabelIdentifier18ObjectCreationMode
hLa:__ZN9GfxDevice15ImmediateVertexEfff
$ac:__Z13RegisterClassI8MaterialEvv
xAb:__ZNK16LightmapSettings22GetTypeVirtualInternalEv
QIa:__ZN13GfxDeviceGLES15SetStencilStateEPK18DeviceStencilStatei
btf:_Buffer_BlockCopyInternal_m418318694
mom:_cycle
V_k:__ZN6il2cpp2vm8Profiler7GCEventE13Il2CppGCEvent
wrh:_AsnEncodedData_set_Oid_m351300829
ne:_emscripten_glUniform1iv
Nmb:__ZN16MemoryFileSystemD2Ev
aTh:__Z150RuntimeInvoker_Int32_t2950945753_RuntimeObject_Int32_t2950945753_Int32_t2950945753_RuntimeObject_Int32_t2950945753_Int32_t2950945753_Int32_t2950945753PFvvEPK10MethodInfoPvPS4_
urf:_BitConverter_DoubleToInt64Bits_m3574395137
aYi:_WebSocketFrame_get_IsMasked_m2785532620
UDf:_DateTime_Parse_m3729096069
sre:__Z17dynamic_pptr_castIP9Texture2D7TextureET_RK4PPtrIT0_E
$vg:_List_1_System_Collections_IList_Add_m1540114404_gshared
zsc:__Z37Register_UnityEngine_Camera_get_depthv
eJg:_Collection_1_IsValidItem_m179868881_gshared
tji:__Z92RuntimeInvoker_RuntimeObject_SByte_t1669577662_SByte_t1669577662_RuntimeObject_RuntimeObjectPFvvEPK10MethodInfoPvPS4_
skg:_StringReader_Read_m3322058819
RUj:_CrossAppDomainChannel_get_ChannelPriority_m3418073750
Jzj:_Selectable_StartColorTween_m3618813981
S5e:_BaseInputModule_HandlePointerExitAndEnter_m1705532066
Gie:__ZN5physx7profile8ZoneImplINS_28PxProfileNameProviderForwardEE10startEventEty
ika:__ZN15dense_hashtableINSt3__24pairIKPKcPK4RTTIEES3_N11TypeManager23ConstCharPtrHashFunctorEN14dense_hash_mapIS3_S7_SA_NS9_19ConstCharPtrEqualToE13stl_allocatorIS8_L18MemLabelIdentifier6ELi16EEE9SelectKeyESC_SF_E12resize_deltaEjj
IQd:__ZN5physx10PxsCCDPair17sweepAdvanceToToiEfb
jmb:__Z23ConvertIntegerToTypePtrItEbPvR14SafeBinaryRead
DMf:_Delegate_CombineImpl_m3572135514
r7f:_NumberFormatter_IntegerToString_m1679294587
cfm:_SceneManager_Internal_SceneLoaded_m4023393011
jH:__ZN7mecanim5human29HumanGetGoalOrientationOffsetENS0_4GoalE
TQb:__ZNK11MonoManager22GetTypeVirtualInternalEv
Ohd:__ZN5physx6shdfnd8PoolBaseINS_2Cm5BlockIhLj384EEENS0_19ReflectionAllocatorIS4_EEE17releaseEmptySlabsEv
J4d:__ZN5physx16PxsIslandManager11freeBuffersEv
xad:__ZN5physx2Cm12DelegateTaskINS_2Sc17ParticleSystemSimEXadL_ZNS3_21prepareCollisionInputEPNS_10PxBaseTaskEEEE11runInternalEv
y0e:__Z46il2cpp_codegen_get_marshal_directive_exceptionPKc
z7b:__ZN9ShaderLab20SerializedSubProgram14AddMatrixParamEPKcii15ShaderParamTypei
Ke:_glGetActiveUniformBlockName
tA:__ZN7mecanim13CopyValueMaskILb0EEEvPKNS_14ValueArrayMaskEPS1_
mP:__ZN26AnimatorControllerPlayable23ValidateParameterStringE17GetSetValueResultRKN4core12basic_stringIcNS1_20StringStorageDefaultIcEEEE
ynj:_Canvas_get_pixelPerfect_m551317767
Lll:_PlayableHandle_GetInputCount_m2058233202_AdjustorThunk
vvc:__Z39Quaternion_CUSTOM_INTERNAL_CALL_InverseRK11QuaternionfRS_
lV:__ZN4FMOD7Channel20set3DConeOrientationEP11FMOD_VECTOR
eo:FUNCTION_TABLE_iiifii
W0i:_AssemblyBuilder_not_supported_m1735277432
LUk:__ZN6il2cpp2vm12GenericClass11SetupEventsEP11Il2CppClass
uDe:_tt_delta_interpolate
fxe:_tt_cmap12_get_info
IPk:__ZN6il2cpp2vm15ReboxIReferenceEP14Il2CppIUnknownP11Il2CppClass
Klk:__ZN6il2cpp6icalls8mscorlib6System7Decimal14decimalCompareEP19il2cpp_decimal_reprS5_
rIh:_Dictionary_2_OnDeserialization_m4209543208_gshared
B$k:__ZThn4_N6il2cpp2vm13CachedCCWBaseINS0_13ManagedObjectEE7ReleaseEv
Wcd:__ZN5physx26PxcFsComputeJointLoadsSimdERKNS_9PxcFsDataEPKNS_12PxcFsInertiaEPNS_6shdfnd3aos6Mat33VEPKfjjNS_21PxcFsScratchAllocatorE
CCd:__ZN5physx6shdfnd8SyncImpl7getSizeEv
eyl:__ZL62SoapMethodAttribute_t1935009310_CustomAttributesCacheGeneratorP21CustomAttributesCache
b1h:__Z100RuntimeInvoker_Void_t1185182177_RuntimeObject_Int32_t2950945753_Int32_t2950945753_UInt16_t2177724958PFvvEPK10MethodInfoPvPS4_
dAm:_glCopyTexImage2D__wrapper
ONf:_Double_System_IConvertible_ToUInt32_m271206838
spk:_il2cpp_z_deflateEnd
ooh:_Dns_GetHostAddresses_m878956259
jxa:__Z18ClearByDrawingQuad13GfxClearFlagsRK10ColorRGBAffjR17ShaderPassContext
iza:__ZN6prcoreL17RemapGenericFloatI14TexFormatRHalf15TexFormatRFloatEEvPKNS_9InnerInfoE
a8f:_NumberFormatter_FormatExponential_m2139559983
W5a:__Z16ShouldUseShadowsb
Via:__ZN15DirectorManager21RebuildStageCallbacksEv
jAa:__ZN19RuntimeSceneManager9LoadSceneERKN4core12basic_stringIcNS0_20StringStorageDefaultIcEEEES6_S6_RK9UnityGUIDiNS_11LoadingModeE
$Qa:__ZN7ApiGLES10DrawArraysE16GfxPrimitiveTypejjj
fli:_MethodCall_get_TypeName_m3873929301
ZS:__ZN10SampleClip13LoadBaseSoundEv
UUc:__ZN5physx2Gu22gjkRelativePenetrationINS0_17ShrunkConvexHullVES2_EEjRKT_RKT0_RKNS_6shdfnd3aos15PsMatTransformVERKNSA_6FloatVERNSA_5Vec3VESI_SI_RSE_PhSK_Rh
zM:__ZN18StreamedBinaryReadILb0EE21TransferSTLStyleArrayI22OffsetPtrArrayTransferIN7mecanim8skeleton4NodeEEEEvRT_17TransferMetaFlags
s2g:_SmallXmlParser_SkipWhitespaces_m4243606597
Cgj:_AnimatorControllerPlayable_SetLayerWeightInternal_m3335202097
DQf:_CompareInfo_IndexOf_m2631915198
Fjl:_Object_EnsureRunningOnMainThread_m2049148642
D1i:_ConstructorBuilder_GetCustomAttributes_m2495332786
Rtf:_Byte_CompareTo_m4285128861
h7e:_TriggerEvent__ctor_m87299207
mNf:_DllNotFoundException__ctor_m3079838043
Gw:__ZN7mecanim9animation4Clip8TransferI19StreamedBinaryWriteILb0EEEEvRT_
ZTk:__ZN15dense_hashtableINSt3__24pairIK10KeyWrapperIP12Il2CppObjectEN6il2cpp2gc9CachedCCWEEES5_NS7_5utils11PointerHashIS3_EEN14dense_hash_mapIS5_S9_SD_NS5_14EqualsComparerINS0_8equal_toIS4_EEEENS0_9allocatorISA_EEE9SelectKeyESI_SK_E15insert_noresizeERKSA_
H5d:__ZN5physx2Sc19ParticlePacketShapeC2ERNS0_17ParticleSystemSimEjPNS_16PxvParticleShapeE
U$j:_EqualityComparer_1__cctor_m3962593840_gshared
ixa:__ZN22DeviceMVPMatricesStateC2ER9GfxDevice
Rih:_SslClientStream_Finalize_m1251363641
Cmd:__ZN5physx9NpPhysics18createTriangleMeshERNS_13PxInputStreamE
vo:FUNCTION_TABLE_iiiiifiiiif
Ln:FUNCTION_TABLE_iifii
NP:__Z64AnimationOffsetPlayable_CUSTOM_INTERNAL_CALL_SetRotationInternalR9HPlayableRK11Quaternionf
ADb:__ZNSt3__26vectorI13dynamic_arrayI8Vector2fLj4EENS_9allocatorIS3_EEE6assignINS_11__wrap_iterIPS3_EEEENS_9enable_ifIXaasr21__is_forward_iteratorIT_EE5valuesr16is_constructibleIS3_NS_15iterator_traitsISC_E9referenceEEE5valueEvE4typeESC_SC_
iJk:__ZN6il2cpp2vm10Reflection12HasAttributeEP9FieldInfoP11Il2CppClass
uBa:__ZNSt3__26__treeIiNS_4lessIiEE13stl_allocatorIiL18MemLabelIdentifier1ELi16EEE7destroyEPNS_11__tree_nodeIiPvEE
Qc:invoke_viiifi
Z9i:_MonoProperty_GetCustomAttributes_m3619796755
V9d:__ZN5physx6shdfnd5ArrayIPNS_7PxActorENS0_19ReflectionAllocatorIS3_EEE8recreateEj
Ali:_MethodDictionary_System_Collections_IEnumerable_GetEnumerator_m4169036899
yGa:__ZNK11AssetBundle14GetPreloadDataEiR13dynamic_arrayIiLj4EE
ecm:_Rect_get_max_m724222499
gpm:_strstr
LWe:_RIPEMD160Managed_JJJ_m4161373884
bni:_SoapServices_get_XmlNsForClrTypeWithNsAndAssembly_m2954042252
TMh:_DefaultComparer_Equals_m3257444875_gshared
Uf:_JS_Sound_SetPosition
iqa:__ZN19RenderBufferManager13GetTempBufferEii17DepthBufferFormat19RenderTextureFormatj22RenderTextureReadWrite14VRTextureUsagei23RenderTextureMemoryless
tuk:__ZL13GetSharedInstPK17Il2CppGenericInst
hek:_Predicate_1_Invoke_m2372669878_gshared
xqk:__ZNK15dense_hashtableINSt3__24pairIK10KeyWrapperIPKcEP11Il2CppClassEES5_N6il2cpp5utils11StringUtils12StringHasherIS4_EEN14dense_hash_mapIS5_S8_SE_NS5_14EqualsComparerINSB_13VmStringUtils21CaseSensitiveComparerEEENS0_9allocatorIS9_EEE9SelectKeyESJ_SL_E3endEv
IMe:__ZN22BaseUnityConnectClient17SaveSessionValuesEv
GGj:_InternalEnumerator_1_get_Current_m476140818_gshared
_pd:__ZNK5physx7NpCloth14getNbParticlesEv
Tsh:_NetworkStream_BeginRead_m194067695
y2c:__ZN5physx2Sc10NPhaseCore24releaseShapeInstancePairEPNS0_19ShapeInstancePairLLEjj
Wbb:__Z24SetupActiveLightsContextR21ActiveLightingContextRK12ActiveLightsRK11CullResultsP14ShadowMapCacheRK10MinMaxAABB
jyc:__Z38Sprite_CUSTOM_INTERNAL_get_textureRectP12Il2CppObjectP5RectTIfE
WHk:__ZNK15dense_hashtableINSt3__24pairIK10KeyWrapperIPK22Il2CppGenericParameterEPK24MonoGenericParameterInfoEES6_N6il2cpp5utils11PointerHashIS4_EEN14dense_hash_mapIS6_SA_SF_NS6_14EqualsComparerINS0_8equal_toIS5_EEEENS0_9allocatorISB_EEE9SelectKeyESK_SM_E3endEv
zkc:__ZN9TextAsset7SetTextERKN4core12basic_stringIcNS0_20StringStorageDefaultIcEEEE
Ksb:__ZN6Camera8TransferI24GenerateTypeTreeTransferEEvRT_
Sa:invoke_iiiiiiif
La:invoke_iiiiiiii
H$f:_Array_InternalArray__set_Item_TisByte_t1134296376_m3104140039_gshared
xXh:__Z194RuntimeInvoker_Int32_t2950945753_RuntimeObject_Int32_t2950945753_Int32_t2950945753_RuntimeObject_Int32_t2950945753_SByte_t1669577662_Int32U26_t1369213839_BooleanU26_t4125257963_SByte_t1669577662PFvvEPK10MethodInfoPvPS4_
mZj:_PKCS12_GetBytes_m415958948
vfb:__ZN8Renderer17PendingAddToSceneEv
vid:__ZN5physx7NpActor18releaseConstraintsERNS_12PxRigidActorE
H$c:__ZN5physx6shdfnd5ArrayINS_11PxDebugLineENS0_19ReflectionAllocatorIS2_EEE8recreateEj
tCm:b125
sCm:b124
sDm:b127
rDm:b126
uDm:b129
xxc:__Z52Register_UnityEngine_RectTransform_INTERNAL_get_rectv
$9:__Z21PostprocessStacktracePKcRN4core12basic_stringIcNS1_20StringStorageDefaultIcEEEE
DMb:__ZN18StreamedBinaryReadILb0EE21TransferSTLStyleArrayI13dynamic_arrayI16SplashScreenLogoLj4EEEEvRT_17TransferMetaFlags
nAd:__ZNK5physx14NpRigidDynamic25getContactReportThresholdEv
_hg:_FileStreamAsyncResult_CBWrapper_m1670848754
Jsc:__Z47Register_UnityEngine_Camera_get_allCamerasCountv
Zej:_AnimatorControllerPlayable_GetFloat_m1412311866_AdjustorThunk
LMe:__ZN22BaseUnityConnectClient20StartEventDispatcherEv
hmc:__ZNSt3__26vectorIj13stl_allocatorIjL18MemLabelIdentifier1ELi16EEE6assignIPKtEENS_9enable_ifIXaasr21__is_forward_iteratorIT_EE5valuesr16is_constructibleIjNS_15iterator_traitsIS9_E9referenceEEE5valueEvE4typeES9_S9_
_F:__ZN7mecanim9animation16EvaluateAvatarIKEPKNS0_14AvatarConstantEPKNS0_11AvatarInputEPNS0_12AvatarOutputEPNS0_12AvatarMemoryEPNS0_15AvatarWorkspaceEb
HC:__ZN26AnimatorControllerPlayable10GetIntegerEiRi
j1d:__Z22updateIslandsToProcessRKN5physx2Cm10BitMapBaseINS_6shdfnd9AllocatorEEEPKjRKNS_11NodeManagerERS4_
dhj:_AnimatorControllerPlayable_GetCurrentAnimatorClipInfoCount_m1409370086_AdjustorThunk
q1a:__ZN12InputManager13InputEndFrameEv
gLk:__ZN6il2cpp2vm6Thread5SetupEP12Il2CppThread
Lde:__ZN8Collider30GetRelativePositionAndRotationERK9TransformR10Matrix4x4f
nfl:_GUIStyleState_Init_m3323354680
OQd:__ZN5physx35PxcSweepEstimateAnyShapeHeightfieldERKNS_11PxsCCDShapeES2_PKNS_12PxsRigidBodyES5_RKNS_11PxTransformES8_f
vAh:_Enumerator_System_Collections_IDictionaryEnumerator_get_Key_m2500634048_gshared
a0c:__ZN5physx3Cct13BoxControllerC2ERKNS_16PxControllerDescERNS_9PxPhysicsEPNS_7PxSceneE
rpm:___munmap
jkj:_AudioClipPlayable__ctor_m3095829342_AdjustorThunk
y3g:_RSAManaged_get_PublicOnly_m595121416
Lg:_localtime_r
Y2a:__ZN22RenderingCommandBuffer13GetAndCheckRTE24BuiltinRenderTextureTypeRKN9ShaderLab16FastPropertyNameEPKcPP13RenderTexture
SY:__ZN4FMOD5Sound11getDefaultsEPfS1_S1_Pi
Jxi:_UTF32Decoder_GetChars_m1925558948
Ng:_strftime
sqa:__ZN7Texture33SetStoredColorSpaceNoDirtyNoApplyE17TextureColorSpace
fSj:_ResourceSet__ctor_m3618395942
cLf:_Decimal_System_IConvertible_ToDouble_m3125524987_AdjustorThunk
wea:__ZN12FileAccessorD2Ev
q4a:__ZN14VertexDataInfoC2Ev
NXk:__ZN6il2cpp2gc16GarbageCollector14CollectALittleEv
doj:_CanvasRenderer_DisableRectClipping_m4197748798
$_b:__ZL17Transfer_GUIStyleI18StreamedBinaryReadILb1EELb1EEvRK29SerializationCommandArgumentsR31RuntimeSerializationCommandInfo
Mvj:_RectMask2D_IsRaycastLocationValid_m1652308696
Txk:__ZN6il2cpp6icalls8mscorlib6SystemL9IsPrivateEPK12PropertyInfo
vZj:_X501_ToString_m1148552872
UQd:__ZNK5physx18PxcConvexTriangles16getPolygonNormalEj
d9:__ZN9shadertag10InitializeEv
i6a:__ZN13BatchRenderer20RenderSingleWithPassER17ShaderPassContextPK18SharedMaterialDataP6ShaderPN9ShaderLab4PassEiPKNS7_10GrabPassesEjib15BatchBreakCause
Xje:__ZN5physx24NpPtrTableStorageManager8canReuseEjj
_Cb:__ZN15QualitySettings14QualitySetting8TransferI24GenerateTypeTreeTransferEEvRT_
dFd:__ZN5physx2Sc27ConstraintProjectionManager33processConstraintForGroupBuildingEPNS0_13ConstraintSimERNS0_20ScratchAllocatorListIS3_Lj64EEE
AEe:__Z28Font_Get_Custom_PropMaterialP12Il2CppObject
o3k:__ZN6il2cpp6icalls8mscorlib6System9Threading16NativeEventCalls19ResetEvent_internalE12Il2CppIntPtr
RGf:_Convert_ToSingle_m835189399
ulc:__ZN22BlockMemoryCacheWriter14LockCacheBlockEjPPhS1_
iDd:__ZN5physx2Cm29ConstraintImmediateVisualizer19visualizeDoubleConeERKNS_11PxTransformEfb
g0l:__ZL60MovedFromAttribute_t481952341_CustomAttributesCacheGeneratorP21CustomAttributesCache
jLc:__Z22TransferField_NonArrayI8JSONRead27Converter_SimpleNativeClassI8GUIStyleEEvRK23StaticTransferFieldInfoR31RuntimeSerializationCommandInfoRT0_
uPc:__ZN5physx6shdfnd5ArrayINS_13PxExtendedBoxENS0_19ReflectionAllocatorIS2_EEE8recreateEj
wWd:__ZN5physx20ProcessBPResultsTask11runInternalEv
I6c:__ZN5physx6shdfnd5ArrayIPvNS0_19ReflectionAllocatorINS_2Cm5BlockIS2_Lj16EEEEEE4copyINS0_15InlineAllocatorILj256ES7_EEEEvRKNS1_IS2_T_EE
rh:_llvm_eh_typeid_for
ijc:__Z13RegisterClassI10GameObjectEvv
DAm:_glGetUniformLocation__wrapper
ili:_RemotingServices_FindInterfaceMethod_m2125212568
Lsj:_Event_Internal_Use_m1176479148
MD:__ZNK23AnimationPlayableOutput7GetTypeEv
LFd:__ZN5physx7NpScene19getActiveTransformsERjh
$jg:_StreamWriter__cctor_m1229272693
z2c:__ZN5physx2Sc10NPhaseCore39pool_deleteParticleElementRbElementPairEPNS0_35ParticleElementRbElementInteractionEjj
wOf:_Enum_System_IConvertible_ToSByte_m779472798
IPd:__ZN5physx6shdfnd8internal8HashBaseIjjNS0_4HashIjEENS1_11HashSetBaseIjS4_NS0_9AllocatorELb0EE6GetKeyES6_Lb0EE6createERKjRb
W0b:__Z18Transfer_BlittableI18StreamedBinaryReadILb0EELb1E8Vector4fEvRK29SerializationCommandArgumentsR31RuntimeSerializationCommandInfo
d3i:_TypeBuilder_GetElementType_m1881206953
MLh:_Dictionary_2_U3CCopyToU3Em__0_m2023886030_gshared
PCm:_glBindVertexArray__wrapper
rce:__ZN5physx6shdfnd5ArrayINS_11RTreeNodeNQENS0_19ReflectionAllocatorIS2_EEE19resizeUninitializedEj
u3c:__ZNK5physx2Sc16InteractionScene18getLLIslandManagerEv
Bqi:_SerializationInfo__ctor_m2923079689
bva:__ZN8Material8TransferI14SafeBinaryReadEEvRT_
rQd:__ZN5physx17PxcNpMemBlockPool34acquireExceptionalConstraintMemoryEj
Nyb:__ZN12CubemapArray17UploadToGfxDeviceEv
C4f:_PlayableExtensions_SetInputCount_TisPlayable_t459825607_m2852645797_gshared
Ybg:_Int32_JumpOverWhite_m208298144
DRd:__ZN5physxL23PxcSweepConvexTrianglesERKNS_11PxsCCDShapeES2_RKNS_11PxTransformES5_S5_S5_fRNS_6PxVec3ES7_RNS_10PxcNpCacheERNS_18PxcNpThreadContextERKNS_2Cm23FastVertex2ShapeScalingERNS_2Gu9TriangleVEf
cod:__ZNK5physx7NpShape16getPlaneGeometryERNS_15PxPlaneGeometryE
xei:__Z53RuntimeInvoker_Int32_t2950945753_UIVertex_t4057497605PFvvEPK10MethodInfoPvPS4_
FBm:_emscripten_glGetUniformiv__wrapper
u$k:__ZN6il2cpp2vm13ManagedObject14QueryInterfaceERK10Il2CppGuidPPv
Bce:__ZN5physx27InternalTriangleMeshBuilder14fillRemapTableEv
tT:__ZN11AudioSource4StopEb
Vad:__ZN5physx6shdfnd8PoolBaseINS_13NpRigidStaticENS0_19ReflectionAllocatorIS2_EEE17releaseEmptySlabsEv
VTb:__ZN14SafeBinaryRead21TransferSTLStyleArrayI13dynamic_arrayI10Matrix4x4fLj4EEEEvRT_17TransferMetaFlags
mpa:__Z25GetSplashScreenBackgroundRK5RectTIfE
hka:__ZN14dense_hash_mapIPKcPK4RTTIN11TypeManager23ConstCharPtrHashFunctorENS5_19ConstCharPtrEqualToE13stl_allocatorINSt3__24pairIKS1_S4_EEL18MemLabelIdentifier6ELi16EEEixERSB_
uQe:__ZN13RuntimeStaticI19UnityConnectServiceLb0EE16StaticInitializeEPv
JVa:__ZN18GlslGpuProgramGLESD2Ev
Djb:__ZN13RenderTexture14SetVolumeDepthEi
Rie:__ZThn116_NK5physx7profile8ZoneImplINS_28PxProfileNameProviderForwardEE10hasClientsEv
MZd:__ZN5physx2Gu20pcmContactCapsuleBoxERKNS0_13GeometryUnionES3_RKNS_11PxTransformES6_RKfRNS0_5CacheERNS0_13ContactBufferE
t0h:__Z86RuntimeInvoker_Void_t1185182177_UInt16_t2177724958_SByte_t1669577662_SByte_t1669577662PFvvEPK10MethodInfoPvPS4_
PLc:__ZN10Matrix4x4f8TransferI8JSONReadEEvRT_
oUi:_WebSocketException__ctor_m807672825
qvj:_PositionAsUV1_ModifyMesh_m4231919476
Pzf:_Hashtable__ctor_m1941859523
vgg:_MonoIO_DeleteFile_m3839141322
Vaa:__ZN17PersistentManager18ReadObjectThreadedEi
WMa:__ZN25TransformFeedbackSkinning31CleanupTransformFeedbackShadersEv
Q$k:__ZN6il2cpp6icalls8mscorlib6System7Runtime16CompilerServices14RuntimeHelpers15InitializeArrayEP11Il2CppArray12Il2CppIntPtr
l5a:__Z22scripting_object_unbox18ScriptingObjectPtr
jre:__ZNK20TextRenderingPrivate8FontImpl19GetCharacterAdvanceEjijfPj
WYf:_Array_InternalArray__ICollection_Add_TisUriScheme_t722425697_m3142345403_gshared
cEb:__ZN10VertexData8TransferI18StreamedBinaryReadILb0EEEEvRT_
Jad:__ZN5physx2Sc5Scene9addStaticERNS0_10StaticCoreEPKPvjj
Rng:_MonoType_get_Assembly_m4290914179
DM:__ZN6Avatar8TransferI19StreamedBinaryWriteILb0EEEEvRT_
pqf:_Array_Reverse_m816310962
Pjb:__ZN14PreloadManager16UpdatePreloadingEv
Qvb:__ZN14SafeBinaryRead21TransferSTLStyleArrayI19StaticArrayTransferIiLi4EEEEvRT_17TransferMetaFlags
rMd:__ZN5physx2Sc5Scene9addShapesEPKPvjjRNS0_8RigidSimEPNS_12PxsRigidBodyERPNS0_8ShapeSimEPNS_9PxBounds3E
FLj:_InternalEnumerator_1_System_Collections_IEnumerator_get_Current_m4088805473_gshared
CYd:__ZN5physx23PxcPCMContactConvexMeshERKNS_2Gu13GeometryUnionES3_RKNS_11PxTransformES6_RKfRNS_10PxcNpCacheERNS0_13ContactBufferE
Uob:__ZNK21UnityDefaultAllocatorI17LowLevelAllocatorE8ContainsEPKv
Q8k:_GameObject_GetComponents_m3948232783
psi:_RuntimeTypeHandle_Equals_m2857439487
Ai:_emscripten_get_main_loop_timing
XTj:_SafeHandle_Finalize_m3866180675
mQk:_il2cpp_z_inflate_fast
ZCb:__ZN24GenerateTypeTreeTransfer21TransferSTLStyleArrayINSt3__26vectorIN15QualitySettings14QualitySettingENS1_9allocatorIS4_EEEEEEvRT_17TransferMetaFlags
Cig:_MemoryStream_ToArray_m3911744835
Xzh:_Enumerator_System_Collections_IDictionaryEnumerator_get_Entry_m859540448_AdjustorThunk
XKb:__ZNSt3__26vectorI9InputAxisNS_9allocatorIS1_EEE6resizeEj
gDi:_Type_GetHashCode_m1947148725
x$k:__ZN6il2cpp2vm13ManagedObject7GetIidsEPjPP10Il2CppGuid
p6a:__ZN13BatchRendererC2ER15RenderLoopStatsRK15RenderNodeQueuebbb
_Wh:__Z91RuntimeInvoker_Void_t1185182177_RuntimeObject_RuntimeObject_RuntimeObject_SByte_t1669577662PFvvEPK10MethodInfoPvPS4_
F8b:__ZNK2UI13RectTransform22GetTypeVirtualInternalEv
tq:getTempRet0
MYd:__ZN5physx2Gu33MultiplePersistentContactManifold24addManifoldContactPointsEPNS0_21MeshPersistentContactEjPPNS0_15PCMContactPatchEjRKNS_6shdfnd3aos6FloatVESB_h
uuh:_SocketException__ctor_m480722159
i6e:_BaseRaycaster_OnEnable_m2678466030
jzh:_Enumerator_get_CurrentKey_m627428048_AdjustorThunk
K2f:_Array_Sort_TisVector4_t3319028937_m2797285308_gshared
Ofh:_HandshakeMessage_Update_m2417837686
iMk:__ZN6il2cpp6icalls8mscorlib6System9ThreadingL21lookup_cached_cultureEP12Il2CppThreadi
Tcb:__ZN18DeferredRenderLoopD2Ev
Mra:__ZNK16TypeTreeIterator4NameEv
Wda:__ZN15FileSystemEntry3SetEPKc
F3d:__ZN5physx6shdfnd5ArrayIPNS_13PxcNpMemBlockENS0_19ReflectionAllocatorIS3_EEE6resizeEjRKS3_
CPg:_ReadOnlyCollection_1_System_Collections_Generic_IListU3CTU3E_Insert_m568455025_gshared
VU:__ZN20SoundChannelInstance15ParameterBuffer5ApplyEPN4FMOD7ChannelE
eoh:_IPv6Address__ctor_m4117281080
gre:__ZN20TextRenderingPrivate19NativeTextGenerator9InsertTabEv
gsm:_sbrk
cqg:_Enumerator_VerifyState_m3474272061_AdjustorThunk
xie:__ZN5physx7profile8ZoneImplINS_28PxProfileNameProviderForwardEE21setProfileZoneManagerEPNS_20PxProfileZoneManagerE
kNe:__ZN11UnityEngine15PlatformWrapper24GetRuntimePlatformStringEv
jj:_glIsEnabled
CZc:__ZN5physx3Cct17CapsuleController15setFootPositionERKNS_14PxExtendedVec3E
_Wc:__ZN5physx2Gu33PCMCapsuleVsMeshContactGeneration13generateEEMTDERKNS_6shdfnd3aos5Vec3VES6_RKNS3_6FloatVES6_jS6_S6_PNS0_21MeshPersistentContactERj
a1i:_DerivedType__ctor_m1853298054
FPb:__Z25scripting_class_get_image17ScriptingClassPtr
k0e:_SecurityException__ctor_m836898292
Psg:_List_1_RemoveAt_m2730968292_gshared
nj:_emscripten_glDrawElementsInstanced
DC:__ZN26AnimatorControllerPlayable27SetupStateMachineBehavioursEv
nrj:_StateChanged_BeginInvoke_m1110082402
Znf:_LayoutGroup_get_preferredWidth_m3816902260
zFa:__ZN18JobBatchDispatcherD2Ev
A8b:__ZN9Transform17MainThreadCleanupEv
a2k:_GC_clear_hdr_marks
xze:_cff_fd_select_get
YBm:_emscripten_glTexParameteri__wrapper
sBj:_Text_set_resizeTextForBestFit_m4095249125
hN:__Z13RegisterClassI18AnimatorControllerEvv
bwh:_OidEnumerator_MoveNext_m3138911739
yj:_emscripten_glGetShaderiv
XV:__ZN4FMOD6System10getVersionEPj
A4d:__ZN5physx2Sc7BodySim10sleepCheckEffb
hFe:__ZN2UI6Canvas23VirtualRedirectTransferER24GenerateTypeTreeTransfer
pzj:_Selectable_set_animationTriggers_m2970345687
hec:__ZZN19SkinnedMeshRenderer15InitializeClassEvEN47PostLateUpdateUpdateAllSkinnedMeshesRegistrator7ForwardEv
Qpe:__ZN13TextRendering4Font13AwakeFromLoadE17AwakeFromLoadMode
JQf:_CompareInfo_LastIndexOf_m2688553706
jDm:_emscripten_glCullFace__wrapper
BMk:__ZNSt3__213__vector_baseIN6il2cpp2vm22EmbeddedResourceRecordENS_9allocatorIS3_EEED2Ev
QJa:__ZN9GfxDevice21ReleaseSharedMeshDataEP14SharedMeshData
X8e:_MouseState__ctor_m1467839005
qRi:_Uri_IsDomainAddress_m2867513594
MLb:__ZNSt3__27__sort5IRNS_6__lessINS_4pairIPKN5Unity4TypeE7Hash128EES8_EEPS8_EEjT0_SC_SC_SC_SC_T_
Zff:_Dropdown_CreateItem_m2954407740
h1k:_GC_unreachable_finalize_mark_proc
Rrj:_Display_GetSystemExtImpl_m1142438950
mrh:_X509Chain_ProcessCrlExtensions_m236234529
F2k:_maybe_finalize
mXf:_Array_InternalArray__IndexOf_TisLabelData_t360167391_m1826525656_gshared
pxc:__Z43RectTransform_CUSTOM_INTERNAL_get_anchorMaxP12Il2CppObjectP13Vector2fIcall
djd:__ZN5physx14NpShapeManagerC2Ev
_km:_UnitySynchronizationContext_ExecuteTasks_m2790711442
WEf:_Decimal_Parse_m942471224
Qua:__ZN8Material28UpdateHashesOnPropertyChangeEN9ShaderLab16FastPropertyNameE
mul:__ZL56MethodBuilder_t2807316753_CustomAttributesCacheGeneratorP21CustomAttributesCache
byc:__Z53Register_UnityEngine_SortingLayer_GetLayerValueFromIDv
e9g:_ASN1_GetBytes_m1968380955
Ybl:_GUISettings_get_cursorFlashSpeed_m3364906267
lUi:_HttpBase_readEntityBody_m1145438250
VRb:__Z18Transfer_BlittableI14SafeBinaryReadLb1E8Vector4fEvRK29SerializationCommandArgumentsR31RuntimeSerializationCommandInfo
_La:__ZN13GfxDeviceGLES20SetComputeBufferDataE15ComputeBufferIDPKvjj
xx:__ZN8Animator23VirtualRedirectTransferER19StreamedBinaryWriteILb0EE
hE:__ZN11UnityEngine9Animation32CreateAnimatorGenericBindingsOptERKNS0_20AnimationSetBindingsER9TransformPKN7mecanim9animation14AvatarConstantEPKNS0_21AvatarBindingConstantEbRNS6_6memory9AllocatorER8Animator
sQk:__ZN6il2cpp2vm5Image13ClassFromNameEPK11Il2CppImagePKcS6_
Zsm:dynCall_vdddddd
I5b:__ZN24GenerateTypeTreeTransfer21TransferSTLStyleArrayINSt3__26vectorIN9ShaderLab14SerializedPassENS1_9allocatorIS4_EEEEEEvRT_17TransferMetaFlags
P9:__ZL32MarkLevelGameManagerDependenciesR27GarbageCollectorThreadState
fMa:__ZNK13GfxDeviceGLES26HasActiveRandomWriteTargetEv
Djm:_Time_get_unscaledTime_m1478911891
kwf:_ArrayList_CopyTo_m3962521159
Sql:__ZL54_MemberInfo_t3922476713_CustomAttributesCacheGeneratorP21CustomAttributesCache
rSe:__ZN20UnityWebRequestProtoI19TransportJavaScript16AtomicRefCounter14RedirectHelper14ResponseHelper15DownloadHandler13UploadHandler12HeaderHelper14AsyncOperationE5BeginEv
lym:_glGetActiveUniformsiv__wrapper
_xc:__Z43Register_UnityEngine_Material_EnableKeywordv
YOc:__ZNK5physx3Cct10Controller16getInternalStateERNS_17PxControllerStateE
$ba:__ZN13MonoBehaviour19SetupScriptingCacheE17ScriptingClassPtrP10MonoScript
Fs:__Z20AnimationEventToMonoRK14AnimationEventR18MonoAnimationEvent
uai:__Z106RuntimeInvoker_Void_t1185182177_Single_t1397266774_Single_t1397266774_Single_t1397266774_Int32_t2950945753PFvvEPK10MethodInfoPvPS4_
rba:__ZN17PersistentManager29ReadAndActivateObjectThreadedEiRK26SerializedObjectIdentifierP14SerializedFilebb
L8e:_PointerEventData_get_dragging_m746831934
SCi:_Type_get_TypeHandle_m160082026
rLd:__ZN5physx10PxsContext15setScratchBlockEPvj
lVg:_ReadOnlyCollection_1_System_Collections_IEnumerable_GetEnumerator_m2781605075_gshared
Rtc:__Z52Register_UnityEngine_RectOffset_INTERNAL_CALL_Removev
Lhm:_TextEditor_SelectTextEnd_m304947097
Gia:__ZZN15DirectorManager15InitializeClassEvEN52PreLateUpdateDirectorUpdateAnimationBeginRegistrator7ForwardEv
PQf:_Array_get_swapper_TisCustomAttributeNamedArgument_t287865710_m4254011335_gshared
Ref:_Graphic_RegisterDirtyMaterialCallback_m106898453
Kjl:_Object_FindObjectsOfType_m2898745631
tzg:_List_1_GetEnumerator_m2095602005_gshared
Y1c:__ZN5physx2Cm27getDynamicGlobalPoseAlignedERKNS_11PxTransformES3_S3_RS1_
e5b:__ZNSt3__26vectorIN9ShaderLab14SerializedPassENS_9allocatorIS2_EEE8__appendEj
iae:__ZN5physx6shdfnd5ArrayIPvNS0_19ReflectionAllocatorIN17PxcPoolMallocData10PoolData32EEEE15growAndPushBackERKS2_
w4b:__ZNSt3__26vectorIN9ShaderLab20SerializedSubProgram13BufferBindingENS_9allocatorIS3_EEEC2INS_11__wrap_iterIPS3_EEEET_SB_RKS5_PNS_9enable_ifIXaasr21__is_forward_iteratorISB_EE5valuesr16is_constructibleIS3_NS_15iterator_traitsISB_E9referenceEEE5valueEvE4typeE
lxh:_Comparer_1__cctor_m3540714969_gshared
Fvi:_Encoding_get_ISOLatin1_m2107621369
Chc:__ZZL23RegisterLightPropertiesR22GenericPropertyBindingEN20Wrapper_LightColorb213GetFloatValueEPv
aVi:_Logger_output_m2198400392
Rrm:_bitshift64Ashr
jdm:_RectOffset_ToString_m3907725150
fAb:__ZN9Texture2D23VirtualRedirectTransferER18StreamedBinaryReadILb0EE
nyf:_BitArrayEnumerator__ctor_m2359341397
Irb:__ZNSt3__26__treeINS_12__value_typeIN4core12basic_stringIcNS2_20StringStorageDefaultIcEEEEjEENS_19__map_value_compareIS6_S7_NS_4lessIS6_EELb1EEE13stl_allocatorIS7_L18MemLabelIdentifier6ELi16EEE7destroyEPNS_11__tree_nodeIS7_PvEE
Hca:__ZN16ScriptingManager27NativeTypeForScriptingClassE17ScriptingClassPtr
Qgl:_Logger_Log_m2391612425
TFi:_UInt64_System_IConvertible_ToDateTime_m3434604642
NCi:_Type_get_IsSerializable_m1040556850
xYi:_WebSocket_setClientStream_m1894686314
zwe:_get_sfnt_table
Yac:__Z13RegisterClassI5LightEvv
Oke:__ZN5physx2Gu20registerHeightFieldsEv
jeb:__ZL22ScheduleSceneNodesJobsP25ScheduleSceneNodesJobDataj
WTd:__ZN5physx22concludeContactCoulombERKNS_23PxcSolverConstraintDescERNS_16PxcSolverContextE
nl:_emscripten_set_canvas_size
RYi:_WebSocket_processFragmentFrame_m3897986702
fhf:_Graphic_SetVerticesDirty_m2124914069
pvd:__ZNK5physx15NpParticleFluid12getStiffnessEv
Y5f:_CultureInfo__ctor_m3285927757
quj:_MaskableGraphic_get_rootCanvasRect_m3492154629
B1f:_Array_Resize_TisRaycastResult_t3360306849_m1811054291_gshared
O4b:__ZNSt3__26vectorIN9ShaderLab20SerializedSubProgramENS_9allocatorIS2_EEE8__appendEj
D6:__ZN20DynamicHeapAllocatorI17LowLevelAllocatorE8AllocateEji
UKe:__ZN11UnityEngine9Analytics15UserCustomEvent12ToJsonStringER9JSONWrite
S4j:_Locale_GetText_m2427493201
fBh:_Enumerator_VerifyCurrent_m220886300_AdjustorThunk
R6a:__ZN20DynamicPropertySheet15SetVectorQueuedERKN9ShaderLab16FastPropertyNameERK8Vector4fN19ShaderPropertySheet8SetFlagsE
Kzg:_List_1_get_Item_m2254585396_gshared
iF:__ZN7mecanim9animation22EvaluateAvatarRetargetEPKNS0_14AvatarConstantEPKNS0_11AvatarInputEPNS0_12AvatarOutputEPNS0_12AvatarMemoryEPNS0_15AvatarWorkspaceEb
Twb:__ZN14RenderSettings23VirtualRedirectTransferER19StreamedBinaryWriteILb0EE
bIc:__ZL26Transfer_SimpleNativeClassI9JSONWrite10RectOffsetLb0EEvRK29SerializationCommandArgumentsR31RuntimeSerializationCommandInfo
B1k:_GC_push_conditional
fLe:__ZN21UnityAnalyticsManager23VirtualRedirectTransferER24GenerateTypeTreeTransfer
uPa:__ZN17GenericDynamicVBO10AllocateVBEjR21DynamicVBOChunkHandle
aYd:__ZL27PxcTestFacesSepAxesBackfaceRKN5physx2Gu13PolygonalDataES3_RKNS_2Cm8Matrix34ES7_RKNS4_23FastVertex2ShapeScalingESA_S7_RKNS_6PxVec3ERfRSB_RjPjSG_fSD_
GKf:_DBNull_ToString_m3638608738
TRk:__ZN30dense_hashtable_const_iteratorI10KeyWrapperIP18Il2CppGenericClassES3_N6il2cpp8metadata22Il2CppGenericClassHashEN14dense_hash_setIS3_S6_NS3_14EqualsComparerINS5_25Il2CppGenericClassCompareEEENSt3__29allocatorIS3_EEE8IdentityESA_SD_EppEv
kyf:_BitArray_Clone_m3537018332
dqi:_ObjectRecord_UnchainFixup_m3191243952
Ll:_glMapBufferRange
Zzb:__ZN9Texture2D8TransferI18StreamedBinaryReadILb0EEEEvRT_
Tuc:__Z31Input_CUSTOM_GetMouseButtonDowni
Twc:__Z75Register_UnityEngine_Playables_PlayableHandle_INTERNAL_CALL_IsValidInternalv
_jc:__ZN13PlayableGraph4PlayEv
Cqd:__ZNK5physx7NpCloth23getExternalAccelerationEv
F3e:_String_Format_m3339413201
Ung:_MonoType_get_BaseType_m1098640416
DGa:__ZN13LoadOperation19IntegrateTimeSlicedEi
Fkh:_TlsStream_Read_m3392972801
uVd:__ZN5physx16PxsBroadPhaseMBP9updatePPUEPNS_10PxBaseTaskE
qMa:__ZN13GfxDeviceGLES22DispatchComputeProgramE12ObjectHandleI18ComputeProgram_TagPvE15ComputeBufferIDj
fth:_SocketAsyncResult_CheckIfThrowDelayedException_m1547318945
mwi:_Latin1Encoding_GetString_m254210343
Ys:__ZNK13AnimationClip15GetAverageSpeedEv
QEa:__Z17TransformAABBSlowRK4AABBRK10Matrix4x4fRS_
UAb:__ZN15SerializeTraitsI13dynamic_arrayI7Hash128Lj8EEE19ResizeSTLStyleArrayERS2_i18MemLabelIdentifier
uqf:_Array_combsort_m4052486289
SIk:__ZN13Il2CppHashMapINSt3__24pairIPK9FieldInfoP11Il2CppClassEEj17ReflectionMapHashIS7_ENS0_8equal_toIS7_EENS0_9allocatorINS1_IK10KeyWrapperIS7_EjEEEEEC2EjRKS9_RKSB_
y3b:__ZN9ShaderLab21SerializedShaderState8TransferI14SafeBinaryReadEEvRT_
mPf:_Environment_GetWindowsFolderPath_m1738399646
uAe:_cf2_stack_pushInt
yxd:__ZN5physx6shdfnd8PoolBaseINS_16NpParticleSystemENS0_19ReflectionAllocatorIS2_EEE12allocateSlabEv
Jti:_CryptoConfig_EncodeOID_m2635914623
Yva:__ZN15SerializeTraitsINSt3__24pairIN4core12basic_stringIcNS2_20StringStorageDefaultIcEEEES6_EEE8TransferI24GenerateTypeTreeTransferEEvRS7_RT_
Nzm:b89
Mzm:b88
vym:b81
uym:b80
zTa:__ZN7ApiGLES19CreateSparseTextureEjj14GraphicsFormatiiiiRiS1_S1_
lda:__ZN18ResourceImageGroup7CleanupEv
Jzm:b85
M4c:__ZN5physx2Gu36closestPtPointTetrahedronTesselationEPNS_6shdfnd3aos5Vec3VES4_S4_RjRS3_S6_
Lzm:b87
d4e:_String_CharCopy_m3838781968
pYd:__ZN5physx25PxcPCMContactSphereConvexERKNS_2Gu13GeometryUnionES3_RKNS_11PxTransformES6_RKfRNS_10PxcNpCacheERNS0_13ContactBufferE
nmi:_RemotingSurrogateSelector_GetSurrogate_m3900875713
ihc:__ZN13ProduceHelperI4MeshLb0EE7ProduceE18MemLabelIdentifier18ObjectCreationMode
Pbh:_CertificateValidationCallback_Invoke_m1014111289
Mxb:__ZN8Playable19SetOutputConnectionEPS_i
Spk:__ZN15dense_hashtableINSt3__24pairIK10KeyWrapperIPK11Il2CppClassEPKcEES6_N6il2cpp5utils11PointerHashIS3_EEN14dense_hash_mapIS6_S9_SE_NS6_14EqualsComparerINS0_8equal_toIS5_EEEENS0_9allocatorISA_EEE9SelectKeyESJ_SL_EC2ERKSO_j
zm:_glDeleteShader
SU:__ZN11SoundHandle8Instance15UpdateLoadStateEv
qza:__ZN6prcoreL17RemapGenericFloatI15TexFormatRGHalf16TexFormatRGFloatEEvPKNS_9InnerInfoE
v2f:_Array_Sort_TisUICharInfo_t75501106_m128665067_gshared
HXe:_RSAPKCS1SignatureDeformatter_SetHashAlgorithm_m1602190713
cfh:_Context_set_SentConnectionEnd_m1367645582
uld:__ZN5physx6shdfnd8PoolBaseINS_10NpMaterialENS0_19ReflectionAllocatorIS2_EEE15disposeElementsEv
hIh:_Dictionary_2_CopyToCheck_m45332585_gshared
pqc:__Z27scripting_add_internal_callPKcPKv
I6g:_AppDomain_Load_m4174353770
iTk:__GLOBAL__sub_I_GarbageCollector_cpp
pQc:__ZL21ContactReductionAllInRN5physx2Gu13ContactBufferEjjRKNS_7PxMat33EPKNS_6PxVec3EPKh
M0f:_Array_qsort_TisByte_t1134296376_m726517433_gshared
dAh:_Enumerator_MoveNext_m1556953412_AdjustorThunk
Qx:__ZN26AnimatorControllerPlayable18SetLayerAutoWeightEv
gc:invoke_vffff
uHe:__ZN2UI14CanvasRenderer12SyncMaterialENS0_8SyncFlagE
lkg:_StreamWriter_Write_m1660535366
Ghl:_Matrix4x4_MultiplyPoint3x4_m1691748578_AdjustorThunk
o5k:__ZN6il2cpp2vm9Parameter30GetDefaultParameterValueObjectEPK10MethodInfoPK13ParameterInfoPb
kac:__ZN15dense_hashtableINSt3__24pairIKN4core12basic_stringIcNS2_20StringStorageDefaultIcEEEE10vector_setI4PPtrI11SpriteAtlasENS0_4lessISB_EE13stl_allocatorISB_L18MemLabelIdentifier79ELi16EEEEES6_20StringHash32FunctionIS6_EN14dense_hash_mapIS6_SH_SK_NS0_8equal_toIS6_EESE_ISI_LSF_79ELi16EEE9SelectKeyESN_SO_E12maybe_shrinkEv
gyi:_UTF8Encoding_GetByteCount_m4152118078
I2g:_KeyPairPersistence__CanSecure_m3516574278
cd:invoke_iiiiiiiii
$Ih:_Dictionary_2_make_pair_m3116882385_gshared
yVe:_MD5CryptoServiceProvider_Dispose_m3502499818
obm:_Ray_ToString_m943070480
xJg:_Collection_1_System_Collections_IList_get_Item_m2422562729_gshared
Bw:__ZN14AnimationEvent8TransferI19StreamedBinaryWriteILb0EEEEvRT_
Cv:__ZN7mecanim9animation9DenseClip8TransferI24GenerateTypeTreeTransferEEvRT_
qwe:_UNITY_tt_face_done_kern
Ani:_ObjRef_GetObjectData_m270012899
uEc:__Z59GUIStyle_CUSTOM_Internal_GetNumCharactersThatFitWithinWidth13Il2Cpp_IntPtrP12Il2CppStringf
gGb:__ZN12BoneWeights48TransferI24GenerateTypeTreeTransferEEvRT_
WP:__Z62AnimationPlayableOutput_CUSTOM_INTERNAL_CALL_InternalSetTargetR15HPlayableOutputP12Il2CppObject
zoa:__Z19scripting_gc_enablev
ZRe:__ZN20UnityWebRequestProtoI19TransportJavaScript16AtomicRefCounter14RedirectHelper14ResponseHelper15DownloadHandler13UploadHandler12HeaderHelper14AsyncOperationE9DoRequestEv
i0a:__ZZ23InitPlayerLoopCallbacksvEN41InitializationPlayerUpdateTimeRegistrator7ForwardEv
Gje:__ZN5physx7profile11EventBufferINS_24PxDefaultContextProviderENS_6shdfnd6MutexTINS0_26WrapperReflectionAllocatorIhEEEENS0_14ScopedLockImplIS7_EENS_24PxProfileNullEventFilterEE9stopEventEty
HNj:_InternalEnumerator_1_System_Collections_IEnumerator_get_Current_m3854084659_gshared
$ef:_DefaultControls__cctor_m3473226132
GFb:__ZN14SafeBinaryRead21TransferSTLStyleArrayI13dynamic_arrayI11ColorRGBA32Lj4EEEEvRT_17TransferMetaFlags
Yvf:_ArrayList_EnsureCapacity_m3016383533
xIj:_InternalEnumerator_1_System_Collections_IEnumerator_get_Current_m888718134_gshared
oIj:_InternalEnumerator_1_get_Current_m2894466703_gshared
SIf:_DateTime_FromTicks_m4059645178_AdjustorThunk
FVj:_ConfigHandler_ParseTime_m1787834288
i7b:__ZN9ShaderLab7Program27CreateFromSerializedProgramERKNS_17SerializedProgramE10ShaderTypeiP16PropertyNamesSetPK6Shader
Afm:_SendMouseEvents_SendEvents_m2250241314
j$i:_Assembly_Load_m3487507613
u8b:__ZNSt3__27__sort4IRNS_6__lessIN4core12basic_stringIcNS2_20StringStorageDefaultIcEEEES6_EEPS6_EEjT0_SA_SA_SA_T_
Etm:dynCall_viiiifii
eHk:__ZN6il2cpp2gc19AppendOnlyGCHashMapINSt3__24pairIPK11Il2CppImageP11Il2CppClassEEP22Il2CppReflectionModule17ReflectionMapHashIS9_ENS2_8equal_toIS9_EEEC2Ev
aml:_PlayableHandle_SetDuration_m199990808
Saa:__Z20GetPersistentManagerv
HDe:_UNITY_TT_Set_Var_Design
Qla:__ZN21SystemInfoStringCache16StaticInitializeEPv
Xlh:_NameObjectCollectionBase_FindFirstMatchedItem_m840305173
r3c:__ZN5physx2Sc7BodySim18internalWakeUpBaseEf
XXk:__ZN6il2cpp2gc16GarbageCollector23MakeDescriptorForObjectEPji
iOg:_Collection_1_IsSynchronized_m2291009199_gshared
HOb:__ZNK13MonoBehaviour7GetNameEv
_Aa:__ZN19ScriptingInvocation28AdjustArgumentsToMatchMethodEv
j7j:_IndexedSet_1_Contains_m1525966688_gshared
KY:__Z15_CheckFMODError11FMOD_RESULTPKciS1_
ULk:__ZN6il2cpp6icalls8mscorlib6SystemL16ThrowInvalidCastEPK11Il2CppClassS5_
Eub:__Z20RenderMultipleMeshesRK15RenderNodeQueueRK18RenderMultipleData17ShaderChannelMask
muj:_MaskableGraphic_get_maskable_m1260382606
Ivi:_Latin1Encoding__ctor_m498920120
$Bk:__ZN6il2cpp2vm4Type19GetGenericParameterEPK10Il2CppType
Jjg:_StreamReader_Peek_m2272511193
H8f:_DateTimeFormatInfo_FillAllDateTimePatterns_m2683124783
QIe:__Z51Register_UnityEngine_CanvasGroup_get_blocksRaycastsv
Oog:_NumberFormatter_get_IsFloatingSource_m3714711779
MLc:__ZN8JSONRead21TransferSTLStyleArrayI13dynamic_arrayI11ColorRGBA32Lj4EEEEvRT_18MemLabelIdentifier17TransferMetaFlags
z7d:__ZN5physx13BigConvexData5VLoadERNS_13PxInputStreamE
wDi:_Type_GetConstructor_m1195697116
be:_glBeginQuery
gtl:__ZL104RegionInfo_t1090270226_CustomAttributesCacheGenerator_RegionInfo_t1090270226____DisplayName_PropertyInfoP21CustomAttributesCache
TJ:__ZN18AnimatorController19TransferRuntimeDataI24GenerateTypeTreeTransferEEvRT_
m$k:__ZN6il2cpp2vmL9ends_withEPKcS2_
BNd:__ZN5physx11NodeManager6resizeEj
BAm:b110
b2a:__ZN6Camera12RenderStereoENS_10RenderFlagE8CullFlagPNS_24PerformEyeRenderFunctionE
Qma:__ZN20LocalFileSystemPosix10ToAbsoluteEPKc
uub:__ZN20TierGraphicsSettings8TransferI19StreamedBinaryWriteILb0EEEEvRT_
LAm:b111
Zkj:_AudioClipPlayable_GetPauseDelay_m4002272443_AdjustorThunk
y_k:__ZN6il2cpp2vm13ComObjectBase16DisconnectObjectEj
$Gd:__ZNK5physx7NpScene28getSceneQueryStaticTimestampEv
gn:f0
Pom:_getcwd
qge:__ZNSt3__26vectorI9CollisionNS_9allocatorIS1_EEE21__push_back_slow_pathIKS1_EEvRT_
Zpj:_Component_GetComponent_m2813676312
Dob:__ZN25ThreadsafeLinearAllocatorD2Ev
aPd:__ZN5physx2Sq10AABBPruner11preallocateEj
Yoa:__Z21SendMessageToEveryoneRK17MessageIdentifier11MessageData
Yga:__ZN21BillboardBatchManager16StaticInitializeEPv
VAm:b117
BEf:_DateTime_AbsoluteDays_m4235097773
M7:__ZN12_GLOBAL__N_138ArchiveRedirectFileSystemStaticDestroyEPv
xOh:__Z74RuntimeInvoker_RuntimeObject_RuntimeObject_RuntimeObject_SByte_t1669577662PFvvEPK10MethodInfoPvPS4_
_ef:_DefaultControls_CreateScrollView_m3842770629
Kyb:__ZN12CubemapArray34UpdateFileTextureUploadInstructionEP26FileAssetUploadInstructionj
AEd:__ZN5physx2Sc19ShapeInstancePairLLC2ERNS0_8ShapeSimES3_RNS0_9ActorPairENS_7PxFlagsINS_10PxPairFlag4EnumEtEE
re:_emscripten_glUniform3iv
yTa:__Z23CreateSparseTextureGLES9TextureIDii14GraphicsFormati
Iag:_Guid_CompareTo_m243656946_AdjustorThunk
YPf:_CCMath_mod_m3631663509
XBi:_TimeSpan_Negate_m1889505500_AdjustorThunk
_Sg:_ReadOnlyCollection_1_System_Collections_ICollection_CopyTo_m2715087453_gshared
ggk:_UnityAction_1_Invoke_m3205374586_gshared
$re:__ZNSt3__23mapIN20TextRenderingPrivate7FontRefEP11FT_FaceRec_NS_4lessIS2_EENS_9allocatorINS_4pairIKS2_S4_EEEEEixERS9_
dYa:__ZN17ArchiveFileSystem10AddStorageEP20ArchiveStorageReader
ltd:__ZN5physx2Sc9ClothCore16setStretchConfigENS_22PxClothFabricPhaseType4EnumERKNS_20PxClothStretchConfigE
Gra:__ZN14SafeBinaryRead23IsVersionSmallerOrEqualEi
Ale:_PxCreateFoundation
Fzk:_il2cpp_class_get_assemblyname
Unk:__ZN6il2cpp2vm5Class15GetEnumBaseTypeEP11Il2CppClass
gfh:_Context_set_WriteSequenceNumber_m942577065
Hwh:_X509CertificateEnumerator_Reset_m4026698923
O_k:__ZNK6il2cpp5utils13VmStringUtils23CaseInsensitiveComparerclERKNSt3__212basic_stringIcNS3_11char_traitsIcEENS3_9allocatorIcEEEEPKc
lcf:_CanvasScaler_SetScaleFactor_m3006968999
Tii:__Z78RuntimeInvoker_Boolean_t97287965_Navigation_t3049316579_Navigation_t3049316579PFvvEPK10MethodInfoPvPS4_
rzb:__ZNK9Texture2D16GetNpotTexelSizeEv
Kog:_NumberFormatter_Init_m3576155222
$Pf:_CCMath_div_m3792567336
Qrj:_Display_get_systemWidth_m2297141419
Mwf:_ArrayListWrapper_IndexOf_m3692065720
lme:__ZN13dynamic_arrayItLj2EE6insertEPtPKtS3_
SNk:__ZN6il2cpp2vm9Exception18GetSystemExceptionEv
Uv:__ZN18StreamedBinaryReadILb0EE8TransferINSt3__26vectorIN13AnimationClip12Vector3CurveE13stl_allocatorIS5_L18MemLabelIdentifier25ELi16EEEEEEvRT_PKc17TransferMetaFlags
zPa:__ZN9GfxDevice22GetDefaultVertexBufferE26GfxDefaultVertexBufferTypej
wRf:_Array_InternalArray__ICollection_Contains_TisInt64_t3736567304_m2911357929_gshared
KJg:_Collection_1_Remove_m3022471627_gshared
fpm:___fseeko_unlocked
lpg:_Object_ToString_m1740002499
L$c:__ZN5physx3Cct17CapsuleControllerC2ERKNS_16PxControllerDescERNS_9PxPhysicsEPNS_7PxSceneE
P7e:_ExecuteEvents_GetEventChain_m2404658789
mxa:__Z17BeginSplashScreenv
F1f:_Array_Resize_TisUILineInfo_t4195266810_m3763058392_gshared
QXf:_Array_InternalArray__IndexOf_TisWorkRequest_t1354518612_m2756027586_gshared
t6b:__ZN9ShaderLab16SerializedShader8TransferI19StreamedBinaryWriteILb0EEEEvRT_
Rmk:_TrackableProperty_GetHashCode_m3407865350
AH:__ZN7mecanim9animation18CreateAvatarMemoryEPKNS0_14AvatarConstantERNS_6memory9AllocatorE
Z7g:_ModulusRing__ctor_m2420310199
HEf:_Convert_ToDateTime_m626620011
xAh:_Enumerator_System_Collections_IDictionaryEnumerator_get_Key_m2500634048_AdjustorThunk
sG:__ZN7mecanim8skeleton16SkeletonPoseCopyIN4math4trsXENS2_7affineXEEEvPKNS0_13SkeletonPoseTIT_EEPNS5_IT0_EE
ePa:__ZN18GfxFramebufferGLES18GetFramebufferNameERK20GfxRenderTargetSetup
dph:_IPAddress__ctor_m921977496
Dmf:_InputField_MoveDown_m1455948167
HOk:__ZN6il2cpp6icalls8mscorlib6System2IO6MonoIO11GetFileTypeE12Il2CppIntPtrPi
JCc:__Z30Event_Get_Custom_PropCharacterP12Il2CppObject
Ria:__ZN13PlayableGraph27SchedulePlayableDestructionERK9HPlayable
gmg:_MethodAccessException__ctor_m3542088436
WXc:__ZN5physx6shdfnd5ArrayINS_12PxDebugPointENS0_19ReflectionAllocatorIS2_EEE15growAndPushBackERKS2_
oxm:_glGetFramebufferAttachmentParameteriv__wrapper
BUj:_ChannelServices_GetCurrentChannelInfo_m3041604116
gRe:__Z13RegisterClassI20UnityConnectSettingsEvv
RSb:__Z22scripting_array_length17ScriptingArrayPtr
xkg:_SynchronizedReader_Peek_m148942882
nej:_AnimationOffsetPlayable_SetRotationInternal_m3565349670
vee:__ZN8Collider13AwakeFromLoadE17AwakeFromLoadMode
VXi:_WebSocket_checkHandshakeResponse_m3915429440
pEa:__ZN14SafeBinaryRead20TransferTypelessDataEjPvi
ECd:__ZN5physx6shdfnd13ReadWriteLockC2Ev
AJb:__ZN14SpriteRenderer18UpdateCachedSpriteEb
w$h:__Z82RuntimeInvoker_IntPtr_t_Int32_t2950945753_SByte_t1669577662_RuntimeObject_IntPtr_tPFvvEPK10MethodInfoPvPS4_
VGc:__ZN9rapidjson13GenericReaderINS_4UTF8IcEES2_13JSONAllocatorE10ParseFalseILj1ENS_25GenericInsituStringStreamIS2_EENS_15GenericDocumentIS2_S3_S3_EEEEvRT0_RT1_
pY:__ZN13dynamic_arrayI12SoundChannelLj4EE9push_backERKS0_
A8:__Z19GetActiveColorSpacev
Jve:_UNITY_tt_face_load_kern
f8i:_MonoMethodInfo_GetDeclaringType_m2924452727
h9:__Z6StrCmpPKcS0_
jYf:_Array_InternalArray__ICollection_Add_TisByte_t1134296376_m2816118303_gshared
S7b:__Z21CheckGpuProgramUsable20ShaderGpuProgramType
lXk:__ZN6il2cpp2os9Directory20GetFileSystemEntriesERKNSt3__212basic_stringIcNS2_11char_traitsIcEENS2_9allocatorIcEEEESA_iiPi
Rel:_GUIStyle_set_wordWrap_m3423085392
Yof:_Array_System_Collections_IList_Add_m1063688101
Vhd:__ZN5physx6shdfnd5ArrayIPvNS0_19ReflectionAllocatorINS_2Cm5BlockIhLj128EEEEEE4copyINS0_15InlineAllocatorILj256ES7_EEEEvRKNS1_IS2_T_EE
f5l:__ZL66Navigation_t3049316579_CustomAttributesCacheGenerator_m_SelectOnUpP21CustomAttributesCache
_qe:__ZN20TextRenderingPrivate19NativeTextGenerator5SetupEv
$Ri:_Uri_TryCreate_m385949523
Ald:__ZN5physx6shdfnd8PoolBaseINS_16NpConnectorArrayENS0_19ReflectionAllocatorIS2_EEE15disposeElementsEv
BMb:__ZN12AspectRatios8TransferI18StreamedBinaryReadILb0EEEEvRT_
Jme:__ZN14PhysicsManager19CreatePvdConnectionEv
tGf:_Convert_ToInt64_m3916071102
sjc:__ZN10GameObject14CopyPropertiesERS_
ZEc:__Z44Register_UnityEngine_GUIStyle_get_fixedWidthv
wSf:_Array_InternalArray__ICollection_Remove_TisLink_t544317964_m1280781374_gshared
srf:_BitConverter_DoubleWordsAreSwapped_m1474345095
pwj:__Z14bankers_roundff
kkb:__ZNK13ScreenManager12IsFullScreenEv
dxf:_FixedSizeArrayListWrapper_set_Capacity_m4221053039
Apm:_rand
Rxm:_emscripten_glFramebufferRenderbuffer__wrapper
Jkd:__ZNK5physx12NpConstraint9getActorsERPNS_12PxRigidActorES3_
NAj:_Slider_FindSelectableOnLeft_m1667068522
kYk:__ZN6il2cpp5utils9PathUtils7CombineIcEENSt3__212basic_stringIT_NS3_11char_traitsIS5_EENS3_9allocatorIS5_EEEERKNS0_10StringViewIS5_EERKSA_
FTb:__ZN14SafeBinaryRead21TransferSTLStyleArrayINSt3__26vectorI17AnimationCurveTplIfE13stl_allocatorIS4_L18MemLabelIdentifier1ELi16EEEEEEvRT_17TransferMetaFlags
Rrc:__Z60Register_UnityEngine_AsyncOperation_set_allowSceneActivationv
cae:__ZN5physx6shdfnd8PoolBaseIN17PxcPoolMallocData10PoolData16ENS0_19ReflectionAllocatorIS3_EEE15disposeElementsEv
aee:__ZN9Rigidbody23UpdateInterpolationNodeEv
gZe:_SymmetricAlgorithm_set_IV_m3196220308
Rdb:__Z22PrepareOptimizedPlanesPK5PlaneiPKN4math7_float4E
e5:__ZN11UnityEngine15CloudWebService17WebFileDownloaderINS0_20WebRequestRestClientENS0_23WebRequestRestHeaderMapEE10InitializeERKN4core12basic_stringIcNS5_20StringStorageDefaultIcEEEE
Wga:__ZN17UniqueIDGenerator15CreatePureIndexEv
tFc:__Z59Register_UnityEngine_GUIStyle_Internal_GetCursorFlashOffsetv
ix:__ZN11UnityEngine9Animation28GenericAnimationBindingCache15DidReloadDomainEv
gcl:_GUIStyle_get_normal_m3768217120
CFd:__ZN5physx7NpScene8addActorERNS_7PxActorE
kL:__ZN19StreamedBinaryWriteILb0EE8TransferIN7mecanim9animation23BlendDirectDataConstantEEEvRT_PKc17TransferMetaFlags
ink:__ZN15dense_hashtableINSt3__24pairIK10KeyWrapperIPK22Il2CppGenericParameterEP11Il2CppClassEES6_N6il2cpp5utils11PointerHashIS4_EEN14dense_hash_mapIS6_S9_SE_NS6_14EqualsComparerINS0_8equal_toIS5_EEEENS0_9allocatorISA_EEE9SelectKeyESJ_SL_E14squash_deletedEv
nNb:__ZNSt3__26__treeINS_12__value_typeIN4core12basic_stringIcNS2_20StringStorageDefaultIcEEEE4PPtrI6ObjectEEENS_19__map_value_compareIS6_SA_NS_4lessIS6_EELb1EEE13stl_allocatorISA_L18MemLabelIdentifier51ELi16EEE7destroyEPNS_11__tree_nodeISA_PvEE
f$f:_Array_InternalArray__Insert_TisMark_t3471605523_m2854535880_gshared
Nhc:__ZZL23RegisterLightPropertiesR22GenericPropertyBindingEN18Wrapper_LightRange13SetFloatValueEPvf
fv:__ZN14SafeBinaryRead21TransferSTLStyleArrayI13dynamic_arrayI11KeyframeTplI11QuaternionfELj4EEEEvRT_17TransferMetaFlags
rgl:_JsonUtility_FromJson_m3583248014
Q8:__ZNK9Transform18TransformDirectionERK8Vector3f
X5d:__ZN5physx21PxsBodyTransformVault6updateEv
N6l:__ZL80CanvasScaler_t2767979955_CustomAttributesCacheGenerator_m_ReferencePixelsPerUnitP21CustomAttributesCache
K$g:_PrimalityTests_RabinMillerTest_m1471415870
QPc:__ZL29GeomMTDCallback_CapsuleConvexRN5physx6PxVec3ERfRKNS_10PxGeometryERKNS_11PxTransformES5_S8_
Gtk:__ZN15dense_hashtableINSt3__24pairIK10KeyWrapperIPK11Il2CppClassEPKcEES6_N6il2cpp5utils11PointerHashIS3_EEN14dense_hash_mapIS6_S9_SE_NS6_14EqualsComparerINS0_8equal_toIS5_EEEENS0_9allocatorISA_EEE9SelectKeyESJ_SL_E12resize_deltaEjj
jrm:__ZNK10__cxxabiv120__si_class_type_info27has_unambiguous_public_baseEPNS_19__dynamic_cast_infoEPvi
c8g:_Kernel_LeftShift_m4140742987
Y_i:_Assembly_GetManifestResourceInternal_m1224391897
yPa:__Z30AddDefaultStreamsToMeshBuffersR9GfxDeviceR11MeshBuffersj17ShaderChannelMaskS3_
Ufa:__ZL16GetInterfaceImpl18UnityInterfaceGUID
lok:__ZN6il2cpp2vmL17SetupFieldOffsetsENS0_15FieldLayoutKindEP11Il2CppClassjRKNSt3__26vectorIjNS4_9allocatorIjEEEE
n_k:__ZN6il2cpp6icalls8mscorlib6System15MonoCustomAttrs27GetCustomAttributesInternalEP12Il2CppObjectP20Il2CppReflectionTypeb
hLj:_InternalEnumerator_1_get_Current_m1408339225_AdjustorThunk
oMc:__ZN8JSONRead21TransferSTLStyleArrayI13dynamic_arrayI8Vector3fLj4EEEEvRT_18MemLabelIdentifier17TransferMetaFlags
sNa:__Z24PluginsSetGraphicsDevicePvi18GfxDeviceEventType
xec:__ZN26SkinnedMeshRendererManager22InvalidatePreparationsER10GameObject
lAa:__ZN14PreloadManager35WaitForAllAsyncOperationsToCompleteEv
Uyd:__ZN5physx14NpRigidDynamicC2ERKNS_11PxTransformE
DTc:__Z27sweepCCTBox_HeightFieldGeomRKN5physx10PxGeometryERKNS_11PxTransformERKNS_2Gu3BoxERKNS_6PxVec3EfRNS_10PxSweepHitENS_7PxFlagsINS_9PxHitFlag4EnumEtEEf
qU:__ZL31InitializeAudioScriptingClassesv
G4a:__Z14SortGUIByDepthP10GUIElementS0_
YSi:_CookieCollection_Add_m3519574054
ykl:_Physics_Raycast_m3906114327
wml:_PlayableOutputHandle_IsValid_m4106208918
$G:__ZN12_GLOBAL__N_120ProcessRootMotionMixER33AnimationPlayableEvaluationOutputR35AnimationPlayableEvaluationConstantR32AnimationPlayableEvaluationInputS1_f
Lyj:_ScrollRect_UpdateOneScrollbarVisibility_m1785426292
jSi:_UriParser__cctor_m3655686731
yPc:__ZN5physx3Cct9SweepTest18updateTouchedGeomsEPKNS0_30InternalCBData_FindTouchedGeomERKNS0_13UserObstaclesERKNS_17PxExtendedBounds3ERKNS_19PxControllerFiltersERKNS_6PxVec3E
Hof:_LayoutRebuilder_U3Cs_RebuildersU3Em__0_m589488547
Nje:_PxCloseExtensions
$ij:_AnimatorStateInfo_IsTag_m4246855624
Ana:__ZNK20LocalFileSystemPosix21GetAvailableDiskSpaceEPKcRy
Tla:__ZNSt3__26__treeIiNS_4lessIiEENS_9allocatorIiEEE7destroyEPNS_11__tree_nodeIiPvEE
cJa:__ZNK9GfxDevice14GetWorldMatrixEv
rAj:_Slider_get_value_m739683640
egb:__Z19scripting_array_new17ScriptingClassPtrjj
gGf:_Convert_ToInt32_m2128774575
iY:__ZN11SoundHandle13CreateChannelEb
qej:_AnimationOffsetPlayable__cctor_m94461170
GAb:__ZN14SafeBinaryRead21TransferSTLStyleArrayI13dynamic_arrayI12LightmapDataLj4EEEEvRT_17TransferMetaFlags
H9j:_Ext_Reverse_TisRuntimeObject_m3234066066_gshared
V4b:__ZNSt3__26vectorIN9ShaderLab20SerializedSubProgram16TextureParameterENS_9allocatorIS3_EEE6assignIPS3_EENS_9enable_ifIXaasr21__is_forward_iteratorIT_EE5valuesr16is_constructibleIS3_NS_15iterator_traitsISA_E9referenceEEE5valueEvE4typeESA_SA_
ksk:__ZN13Il2CppHashMapIN6il2cpp5utils13dynamic_arrayIPK10Il2CppTypeLj4EEEPFvvENS0_8metadata19Il2CppSignatureHashENS9_22Il2CppSignatureCompareENSt3__29allocatorINSC_4pairIK10KeyWrapperIS6_ES8_EEEEEC2EjRKSA_RKSB_
MHk:__ZN15dense_hashtableINSt3__24pairIK10KeyWrapperIPK22Il2CppGenericParameterEPK24MonoGenericParameterInfoEES6_N6il2cpp5utils11PointerHashIS4_EEN14dense_hash_mapIS6_SA_SF_NS6_14EqualsComparerINS0_8equal_toIS5_EEEENS0_9allocatorISB_EEE9SelectKeyESK_SM_E15set_deleted_keyERKSB_
dti:_SByte_TryParse_m2431806379
y9b:__ZN6prcoreL11inner_clearILj2EEEvPhjjj
KTe:_DSACryptoServiceProvider_get_KeySize_m786836990
Zsd:__ZNK5physx2Sc9ClothCore20getNbCollisionPlanesEv
ph:_emscripten_exit_fullscreen
sMd:__ZN5physx6shdfnd5ArrayINS_9PxBounds3ENS0_15InlineAllocatorILj192ENS0_19ReflectionAllocatorIS2_EEEEE8recreateEj
b8d:__ZNK5physx13GuMeshFactory17getNbHeightFieldsEv
t6f:_Object_MemberwiseClone_m1474068832
ZVk:__ZN6il2cpp6icalls8mscorlib6System6String19InternalAllocateStrEi
iMc:__Z29Transfer_Blittable_ArrayFieldI8JSONRead11QuaternionfEvRT_R9ArrayInfoRK23StaticTransferFieldInfo
Ipf:_Array_SetValue_m282347242
oPd:__ZNK5physx2Gu12OBBAABBTestsILb1EEclENS_6shdfnd3aos5Vec3VES5_
Fsc:__Z45Register_UnityEngine_Camera_get_targetDisplayv
Qgc:__ZNK24RendererAnimationBinding15GenerateBindingERKN4core12basic_stringIcNS0_20StringStorageDefaultIcEEEEbRN11UnityEngine9Animation14GenericBindingE
Kph:_IPv6Address__ctor_m3704187391
Jtb:__Z15GetFlareManagerv
TOc:__ZN5physx3Cct9SweepTestD2Ev
jal:_GUI_get_changed_m3692887427
fE:__ZN8Animator13GetAvatarRootEv
gkm:_Transform_get_localPosition_m265057664
R4:__ZN19CloudServiceHandler10QueueEventEPN11UnityEngine15CloudWebService14CloudEventInfoE
A7g:_BigInteger_get_Rng_m3283260184
Wfk:_InvokableCall_1_Invoke_m873932240_gshared
bH:__ZN7mecanim9animation16EvaluateAvatarDXEPKNS0_14AvatarConstantEPKNS0_11AvatarInputEPNS0_12AvatarMemoryEPNS0_15AvatarWorkspaceEPNS0_12AvatarOutputE
G9e:_RaycastResult_ToString_m2678663776_AdjustorThunk
blj:_AudioClipPlayable_Seek_m2712115426_AdjustorThunk
b5f:_Array_InternalArray__get_Item_TisKeyValuePair_2_t2530217319_m2886833132_gshared
Dyj:_ScrollRect_OnEndDrag_m3202230060
mzc:__Z34Transform_CUSTOM_SetAsFirstSiblingP12Il2CppObject
FSi:_Ext_DecompressToArray_m1187738944
smf:_InputField_Delete_m3471899192
ioi:_RemotingConfiguration_get_ProcessId_m2180277012
Lwa:__ZN17PersistentManager40GlobalToLocalSerializedFileIndexInternalERK26SerializedObjectIdentifier
f2:__ZN11UnityEngine15CloudWebService17SessionEventQueue14ParseEventDataERKN4core12basic_stringIcNS2_20StringStorageDefaultIcEEEE
jkd:__ZN12GeomQueryAnyIN5physx10PxSweepHitEE7geomHitERKNS0_2Sq17SceneQueryManagerERKNS0_15MultiQueryInputERKNS3_9ShapeDataERKNS0_10PxGeometryERKNS0_11PxTransformENS0_7PxFlagsINS0_9PxHitFlag4EnumEtEEjPS1_fbPNS0_9PxBounds3E
eCh:_Transform_1_BeginInvoke_m4058251461_gshared
JNa:__ZN13TranslateGLES4InitERK12GraphicsCaps16GfxDeviceLevelGL
Qhm:_TextEditor_SelectGraphicalLineStart_m771614311
VRc:__ZN43CapsuleHeightfieldContactGenerationCallback7onEventEjPj
V$:__Z60AudioClipPlayable_CUSTOM_INTERNAL_CALL_GetPauseDelayInternalR9HPlayable
Ehe:__ZThn4_N12MemoryStream4readEPvj
Kdg:_Int64_System_IConvertible_ToUInt16_m848637338_AdjustorThunk
VLe:__Z32CustomEventData_CUSTOM_AddUInt32P12Il2CppObjectP12Il2CppStringj
MRi:_Uri_get_PathAndQuery_m2396197970
$Wf:_Array_InternalArray__IndexOf_TisLink_t544317964_m455584088_gshared
$Nb:__ZNSt3__26vectorIN30RuntimeInitializeOnLoadManager15ClassMethodInfoE13stl_allocatorIS2_L18MemLabelIdentifier12ELi16EEE8__appendEj
XDg:_Enumerator_get_Current_m2282646120_AdjustorThunk
ndc:__ZN13ProduceHelperI10TagManagerLb0EE7ProduceE18MemLabelIdentifier18ObjectCreationMode
V5l:__ZL66Selectable_t3250028441_CustomAttributesCacheGenerator_m_TransitionP21CustomAttributesCache
_5k:__ZN6il2cpp2os6Memory12AlignedAllocEjj
M7h:__Z81RuntimeInvoker_Void_t1185182177_RuntimeObject_SByte_t1669577662_Int32_t2950945753PFvvEPK10MethodInfoPvPS4_
ABj:_Text_set_alignByGeometry_m3828822280
U$k:__ZN6il2cpp8metadataL7CompareEPK10Il2CppTypeS3_
Tkh:_HybridDictionary__ctor_m1681134385
Cyb:__ZN12CubemapArray23VirtualRedirectTransferER17RemapPPtrTransfer
fCi:_TimeSpan_op_LessThan_m1594498345
Dpc:__ZL27GetComponentsImplementationILb0ELi0EEbR10GameObjectbRK17CompareParametersRK39GetComponentsImplementation_ReturnValue
Pcm:_Rect_ToString_m2230825896
oPb:__ZN9Scripting36IsSystemCollectionsGenericDictionaryE17ScriptingClassPtr
Jlm:_Vector3_get_normalized_m1684899259_AdjustorThunk
Vid:__ZN5physx12NpConstraint12actorDeletedEPNS_12PxRigidActorE
Qda:__ZL16ReadTypeTreeImplILb0EEbR8TypeTreeRK16TypeTreeIteratorRPKhS6_i
HLi:_Interval_Contains_m110351300_AdjustorThunk
$Ff:_Convert_ToInt32_m3048308591
rL:__ZN25RuntimeAnimatorControllerD2Ev
dxc:__Z28PlayableOutputValidityChecksRK15HPlayableOutput
WC:__ZN27AnimationLayerMixerPlayable16SetLayerMaskCopyEjRKN7mecanim6bitsetILj70EEEPKNS0_8skeleton12SkeletonMaskE
bKf:_DateTimeOffset_Equals_m3030958070
F1c:__ZN5physx2Sc8ShapeSim18reinsertBroadPhaseEv
ixb:__ZNK22BuiltinResourceManager21GetResourceInstanceIDEPKN5Unity4TypeERKN4core12basic_stringIcNS4_20StringStorageDefaultIcEEEE
Otc:__Z42Register_UnityEngine_RectOffset_set_bottomv
Emk:_AnalyticsTracker_BuildParameters_m43920649
uP:__Z92Register_UnityEngine_Animations_AnimationClipPlayable_INTERNAL_CALL_GetAnimationClipInternalv
l8f:_DateTimeFormatInfo_GetMonthName_m2034512315
f7a:__ZN28LightProbeProxyVolumeContext8CopyFromERKS_
wTg:_ReadOnlyCollection_1_System_Collections_Generic_IListU3CTU3E_Insert_m2489506856_gshared
Ifb:__ZN23TransformChangeDispatch32QueueTransformChangeIfHasChangedER18TransformHierarchy
AZg:_SimpleCollator_ToDashTypeValue_m6184468
K3h:__Z105RuntimeInvoker_RuntimeObject_Vector3_t3722313464_Vector3_t3722313464_Single_t1397266774_Int32_t2950945753PFvvEPK10MethodInfoPvPS4_
PSa:__ZN7ApiGLES18DeleteRenderbufferERj
p5c:__ZN5physx6shdfnd5ArrayIPvNS0_15InlineAllocatorILj256ENS0_19ReflectionAllocatorINS_16NpConnectorArrayEEEEEE15growAndPushBackERKS2_
DRa:__ZL23ProgramUniformMatrix4fvPK7ApiGLESjiihPKv
kIa:__ZN7ApiGLES13CreateTextureEjj14GraphicsFormatiiiii
rhc:__ZN13ProduceHelperI11LightProbesLb0EE7ProduceE18MemLabelIdentifier18ObjectCreationMode
zqf:_Array_new_gap_m262136975
$Wd:__ZN5physx14SingleAABBTaskC2Ev
D4b:__ZN9ShaderLab20SerializedSubProgram15MatrixParameter8TransferI14SafeBinaryReadEEvRT_
Fpc:__ZL27GetComponentsImplementationILb0ELi1EEbR10GameObjectbRK17CompareParametersRK39GetComponentsImplementation_ReturnValue
eJi:_X509Store__ctor_m275383717
f_g:_SimpleCollator_LastIndexOfOrdinalIgnoreCase_m2984667899
RCe:_Round_Down_To_Grid
Csa:__ZN13RenderTexture7ReleaseEv
cHb:__ZN10MeshFilter23VirtualRedirectTransferER14SafeBinaryRead
mHb:__ZN12MeshRenderer17MainThreadCleanupEv
Ynk:__ZN6il2cpp2vmL10InitLockedEP11Il2CppClassRKNS_2os12FastAutoLockE
Frc:__Z36AsyncOperation_Get_Custom_PropIsDoneP12Il2CppObject
vVa:__ZN22CreateGpuProgramOutput12CreateParamsEv
m7i:_MethodBase_GetMethodFromHandle_m286788163
ITg:_ReadOnlyCollection_1_System_Collections_IList_Insert_m177536056_gshared
Mfd:__ZNK5physx18NpArticulationLink11getChildrenEPPNS_18PxArticulationLinkEj
$Ij:_InternalEnumerator_1_System_Collections_IEnumerator_get_Current_m548105685_gshared
BNa:__ZNK14GfxContextGLES13GetDefaultFBOEv
ctf:_Byte_System_IConvertible_ToType_m2251112646
vdl:_GUIStyleState_ProduceGUIStyleStateFromDeserialization_m3019693491
D9h:__Z81RuntimeInvoker_Char_t3634460470_RuntimeObject_Int32_t2950945753_Int16_t2552820387PFvvEPK10MethodInfoPvPS4_
u3d:__Z15atomIntegrationfPKPN5physx11PxsBodyCoreEPKPNS_12PxsRigidBodyEjPKNS_2Cm13SpatialVectorEPNS_13PxcSolverBodyEPNS_17PxcSolverBodyDataEPS9_RjSH_
WIf:_DateTime_get_Hour_m4153505178_AdjustorThunk
k$e:_Evidence_Equals_m1478353107
GBd:__ZN5physx13NpRigidStatic11createShapeERKNS_10PxGeometryEPKPNS_10PxMaterialEtNS_7PxFlagsINS_11PxShapeFlag4EnumEhEE
Slc:__Z13GetImagePixelI10ColorRGBAfET_PKhii13TextureFormat15TextureWrapModeS5_ii
ixg:_List_1_System_Collections_IList_set_Item_m1842844683_gshared
q8j:_ObjectPool_1__ctor_m2535233435_gshared
mLk:__ZN6il2cpp2vm6Thread49CheckCurrentThreadForInterruptAndThrowIfNecessaryEv
Rjm:_TouchScreenKeyboard_Open_m1573053638
ZOf:_Enum_ToObject_m1136033697
Mua:__ZNSt3__23mapIN9ShaderLab16FastPropertyNameEN18UnityPropertySheet11UnityTexEnvENS_4lessIS2_EENS_9allocatorINS_4pairIKS2_S4_EEEEEixERS9_
lIa:__ZNK13TranslateGLES25GetTextureTargetDimensionEj
r9c:__ZN5physx11NpAggregate22removeActorAndReinsertERNS_7PxActorEb
VQg:_ReadOnlyCollection_1_System_Collections_IList_Remove_m1842121503_gshared
Wae:__ZZL19ExtractHullPolygonsRjRN5physx2Gu9ContainerERKNS0_17ConvexHullBuilderEPS2_S3_EN5Local9FloodFillES3_PKNS0_11AdjTriangleEjPb
_Vk:__ZN6il2cpp6icalls8mscorlib6System6String13InternalSplitEP12Il2CppStringP11Il2CppArrayii
Dgg:_File_OpenRead_m2936789020
Gyc:__Z47Texture2D_CUSTOM_INTERNAL_CALL_GetPixelBilinearP12Il2CppObjectffR10ColorRGBAf
kCf:_Enumerator_get_Entry_m3561948123
n8h:__Z94RuntimeInvoker_Void_t1185182177_RuntimeObject_PlayableGraph_t3515989261_RuntimeObject_IntPtr_tPFvvEPK10MethodInfoPvPS4_
oj:_emscripten_glVertexAttrib4f
xkl:_Physics_Raycast_m2500195530
glm:_Vector2_ToString_m592043461
r7b:__ZNSt3__26vectorIN20GpuProgramParameters14ConstantBufferENS_9allocatorIS2_EEE8__appendEj
Cwh:_X509CertificateCollection_AddRange_m3683116910
crj:_Native__cctor_m1512421093
Vsh:_Socket_BeginReceive_m2439065097
$dk:_Predicate_1_Invoke_m2315049893_gshared
To:FUNCTION_TABLE_vf
aVj:_SinkProviderData__ctor_m1624738837
$bd:__ZN5physx14NpArticulation26setMaxProjectionIterationsEj
a$c:__ZN5physx3Cct15ObstacleContext14removeObstacleEj
C0i:_CustomAttributeTypedArgument_Equals_m2261980307
gC:__ZN7mecanim12statemachine24CreateStateMachineMemoryEPKNS0_20StateMachineConstantERNS_6memory9AllocatorE
CLa:__ZN9GfxDevice18SetGlobalDepthBiasEff
Swk:__ZN6il2cpp6icalls8mscorlib6System8MonoType12get_AssemblyEP20Il2CppReflectionType
Jle:__ZN15CapsuleCollider9SetCenterERK8Vector3f
Cj:_emscripten_glGetPointerv
J3f:_Dictionary_2_Do_CopyTo_TisKeyValuePair_2_t3842366416_TisRuntimeObject_m1564656153_gshared
SG:__ZN8Animator22ApplyBuiltinRootMotionEv
sie:__ZN5physx7profile8ZoneImplINS_28PxProfileNameProviderForwardEE17handleBufferFlushEPKhj
o9c:__ZN5physx2Sc5ActorC2ERNS0_16InteractionSceneEhNS0_14IslandNodeInfo4TypeE
qog:_MulticastDelegate_KPM_m22863605
nMj:_InternalEnumerator_1_get_Current_m1897120917_AdjustorThunk
Ong:_MonoType_ReorderParamArrayArguments_m2458683451
Cpi:_FormatterConverter_ToInt16_m4282804414
LWh:__Z81RuntimeInvoker_Void_t1185182177_Int64_t3736567304_RuntimeObject_Int64_t3736567304PFvvEPK10MethodInfoPvPS4_
HGi:_UIntPtr__ctor_m698924671
kaf:_StandaloneInputModule_ProcessTouchPress_m4019232747
ygg:_FileStream__ctor_m3151488352
yqf:_Array_swap_m547389985
Ytd:__ZN5physx15NpActorTemplateINS_7PxClothEED2Ev
KFi:_UInt32_ToString_m2420423038
dug:_List_1_System_Collections_IList_Add_m634558835_gshared
chg:_FileStream_get_Length_m426703983
Bsd:__ZN5physx2Sc9ClothCore16setRestPositionsEPKNS_6PxVec4E
PAi:_WaitCallback_Invoke_m1820972147
b4a:__Z27ConvertSubMeshesToTrianglesR13dynamic_arrayI7SubMeshLj4EERS_ItLj2EE
KBc:__ZN5IMGUI14GUIWindowStateD2Ev
ZT:__ZN12AudioManager5ResetEv
cgl:_Input_get_touchSupported_m461932327
CG:__ZN7mecanim5human14RetargetToTDoFEPKNS0_5HumanEPNS0_9HumanPoseEPNS_8skeleton13SkeletonPoseTIN4math4trsXEEESB_
hYk:__ZN6il2cpp6icalls8mscorlib6System11Environment20GetWindowsFolderPathEi
SA:__ZN7mecanim5human18HumanPoseBlendNodeERNS0_9HumanPoseEPS1_f
Hye:_UNITY_FT_RoundFix
A7b:__ZN9ShaderLab20SerializedSubProgram15AddTextureParamEPKcii16TextureDimension
a3k:_GC_is_heap_ptr
MTc:__ZNK5physx2Gu15HeightFieldUtil12traceSegmentI24ConvexVsHeightfieldSweepLb0ELb0ELb1EEEvRKNS_6PxVec3ES6_PT_PS5_
t0g:_ASN1_DecodeTLV_m1200977460
iZ:__ZNK18AudioMixerPlayable11DerivesFromE17ScriptingClassPtr
F7d:__ZNK5physx12PxConvexMesh19getConcreteTypeNameEv
ATg:_ReadOnlyCollection_1_System_Collections_Generic_IListU3CTU3E_set_Item_m1584697503_gshared
oHb:__ZNK12MeshRenderer22GetTypeVirtualInternalEv
Tuf:_Char_System_IConvertible_ToUInt32_m3901815580
Awj:_Scrollbar_set_onValueChanged_m346467699
lUc:__ZN5physx2Gu19gjkLocalPenetrationINS0_9TriangleVENS0_17ShrunkConvexHullVEEEjRKT_RKT0_RKNS_6shdfnd3aos6FloatVERNSB_5Vec3VESG_SG_RSC_PhSI_Rhb
sZh:__Z157RuntimeInvoker_Int32_t2950945753_RuntimeObject_Int32_t2950945753_Int32_t2950945753_Int32_t2950945753_SByte_t1669577662_SByte_t1669577662_Int32U26_t1369213839PFvvEPK10MethodInfoPvPS4_
CW:__ZN4FMOD6System17setSoftwareFormatEi17FMOD_SOUND_FORMATii18FMOD_DSP_RESAMPLER
Bij:_AnimatorControllerPlayable_PlayInternal_m2689832137
D1c:__ZN5physx2Sc13ShapeIterator4initERKNS0_8ActorSimE
dva:__ZN14SafeBinaryRead19TransferSTLStyleMapINSt3__23mapIN4core12basic_stringIcNS3_20StringStorageDefaultIcEEEES7_NS1_4lessIS7_EE13stl_allocatorINS1_4pairIKS7_S7_EEL18MemLabelIdentifier1ELi16EEEEEEvRT_17TransferMetaFlags
bHe:__ZN2UI6Canvas27UpdateEventIndexesRecursiveERi
sdc:__ZN14SpriteRenderer12CleanupClassEv
l2:__ZN11UnityEngine15CloudWebService16SessionContainer21PrepareDataErrorEventERN4core12basic_stringIcNS2_20StringStorageDefaultIcEEEE
Iue:_UNITY_FT_Outline_New
Qvf:_ArrayList_set_Item_m2003485935
uSj:_SatelliteContractVersionAttribute__ctor_m3630863995
t9e:_MouseButtonEventData_PressedThisFrame_m1060658845
sZb:__Z19TransferField_ArrayI19StreamedBinaryWriteILb0EE27Converter_SimpleNativeClassI8GUIStyleEEvRK23StaticTransferFieldInfoR31RuntimeSerializationCommandInfoRT0_
mRg:_ReadOnlyCollection_1_System_Collections_Generic_IListU3CTU3E_RemoveAt_m3969985996_gshared
Bnd:__ZN5physx14NpArticulationC2Ev
Xfm:_SortingLayer_GetLayerValueFromID_m1500421328
jif:_GraphicRegistry_GetGraphicsForCanvas_m4219276355
Js:__ZL32CleanupAnimationScriptingClassesv
KJc:__Z35Transfer_Blittable_FixedBufferFieldI8JSONReadiEvRK29SerializationCommandArgumentsR31RuntimeSerializationCommandInfo
Bvk:__ZNSt3__213__vector_baseIN6il2cpp2os19SocketHandleWrapperENS_9allocatorIS3_EEED2Ev
tZ:__ZNK19AudioPlayableOutput11DerivesFromE17ScriptingClassPtr
Uql:__ZL48_Type_t3588564251_CustomAttributesCacheGeneratorP21CustomAttributesCache
RUi:_WebHeaderCollection_getHeaderInfo_m2278129060
Lc:invoke_viiffi
tkb:__ZN13sorted_vectorINSt3__24pairIN4core12basic_stringIcNS2_20StringStorageDefaultIcEEEEPK17MessageIdentifierEEN10vector_mapIS6_S9_NS0_4lessIS6_EENS0_9allocatorISA_EEE13value_compareESF_E10insert_oneERKSA_
dbj:_UnityAnalyticsHandler__ctor_m183110035
QBi:_TimeSpan_FromHours_m1109641064
t5b:__Z14resize_trimmedINSt3__26vectorIN9ShaderLab18SerializedPropertyENS0_9allocatorIS3_EEEEEvRT_j
PEd:__ZN5physx6shdfnd8PoolBaseINS_2Sc9ActorPairENS0_19ReflectionAllocatorIS3_EEE12allocateSlabEv
otk:__ZN6il2cpp2vm13MetadataCache38GetMethodInfoFromMethodDefinitionIndexEi
o6e:_EventSystem_set_current_m38955169
uwc:__Z39MonoBehaviour_CUSTOM_GetScriptClassNameP12Il2CppObject
cMi:_CostDelegate_EndInvoke_m2797921932
VDb:__ZN10VertexData8TransferI24GenerateTypeTreeTransferEEvRT_
iJb:__ZN19SkinnedMeshRenderer16UpdateCachedMeshEv
xDf:_Double_IsInfinity_m820013146
fkm:_TrackedReference_GetHashCode_m1270858212
DYk:__ZN13Il2CppHashMapIPK19Il2CppGenericMethodP10MethodInfoN6il2cpp8metadata23Il2CppGenericMethodHashENS6_26Il2CppGenericMethodCompareENSt3__29allocatorINS9_4pairIK10KeyWrapperIS2_ES4_EEEEEC2EjRKS7_RKS8_
fyi:_UTF8Encoding_InternalGetByteCount_m2120178851
pdb:__ZL10CullLightsRK22SceneCullingParametersR11CullResults
OSi:_CookieCollection_splitCookieHeaderValue_m986713822
QHf:_Convert_ToUInt64_m3170916409
jcl:_GUIStyleState_GetGUIStyleState_m2565005256
bC:__ZN7mecanim12statemachine20GetBlendTreeConstantERKNS0_13StateConstantEi
SFd:__ZN5physx7NpScene21setDominanceGroupPairEhhRKNS_20PxDominanceGroupPairE
ydg:_Int64_System_IConvertible_ToInt16_m4062196970_AdjustorThunk
jog:_MonoType_GetGenericTypeDefinition_m3201894896
Ekc:__Z40GetTemporaryCachePathApplicationSpecificv
LJa:__ZN9GfxDevice16EndAsyncJobFrameEv
Cve:_UNITY_tt_face_load_hhea
wl:___syscall3
zl:___syscall6
Bl:___syscall4
k3:__ZN11UnityEngine15CloudWebService20WebRequestRestClient17GetResponseStatusEv
pmi:_ReturnMessage__ctor_m2352989078
VTk:__ZN6il2cpp2vm3RCW14QueryInterfaceILb1EEEP14Il2CppIUnknownP15Il2CppComObjectRK10Il2CppGuid
qeh:_TlsServerCertificateRequest__ctor_m1334974076
vNc:__ZN27PerformanceReportingManager23VirtualRedirectTransferER14SafeBinaryRead
cGf:_Convert_ToInt32_m1613163543
huj:_MatEntry__ctor_m1949610076
Tpc:__ZN9Scripting25BroadcastScriptingMessageER10GameObjectPKc18ScriptingObjectPtr
Ql:_emscripten_glShaderBinary
REi:_UInt16_ToString_m760649087
ona:__ZNK20LocalFileSystemPosix6ExistsERK13FileEntryData
u7c:__ZN5physx35NpArticulationJointGetBodiesFromScbERNS_3Scb17ArticulationJointERPNS0_4BodyES5_
fz:__ZN7mecanim5human19MaskHasLeftFootGoalERKNS_6bitsetILj70EEE
_6d:__ZNK5physx2Sc15ClothFabricCore16getTetherLengthsEPfj
cGc:__Z23TransferScriptingObjectI8JSONReadEvRT_18ScriptingObjectPtr17ScriptingClassPtrPK15MonoScriptCache
yKe:__Z58Register_UnityEngine_Canvas_GetETC1SupportedCanvasMaterialv
eCi:_TimeSpan_op_Inequality_m2467851530
F$b:__ZN17AnimationCurveTplIfE8TransferI18StreamedBinaryReadILb1EEEEvRT_
A2f:_Array_Sort_TisUIVertex_t4057497605_m3996333845_gshared
AOe:__ZN18UnityConnectClientD2Ev
Ose:__ZN20TextRenderingPrivate25ReadFontFileAndAddToCacheERKN4core12basic_stringIcNS0_20StringStorageDefaultIcEEEE
Csi:_SByte_System_IConvertible_ToDouble_m2381680501
Sqf:_Swapper_BeginInvoke_m1688449973
YYi:_WebSocket_processUnsupportedFrame_m3037121873
HKd:__ZN5physx2Sc13ConstraintSim8getForceERNS_6PxVec3ES3_
W_h:__Z81RuntimeInvoker_Void_t1185182177_RuntimeObject_Int32_t2950945753_Int64_t3736567304PFvvEPK10MethodInfoPvPS4_
bM:__ZN7mecanim5human5HumanC2Ev
qXh:__Z86RuntimeInvoker_Boolean_t97287965_Int16_t2552820387_Int16_t2552820387_Int32_t2950945753PFvvEPK10MethodInfoPvPS4_
APc:__ZN5physx15PxGeometryQuery18computePenetrationERNS_6PxVec3ERfRKNS_10PxGeometryERKNS_11PxTransformES6_S9_
Xej:_AnimatorControllerPlayable_GetFloatString_m1449390567
JNe:__ZN11UnityEngine15PlatformWrapper30GetGraphicsDriverLibraryStringEv
hsi:_RuntimeMethodHandle_Equals_m3301340296_AdjustorThunk
x1f:_Array_Resize_TisAnimatorClipInfo_t3156717155_m3215314758_gshared
fne:__ZN5Unity12PhysicsQueryC2Ev
K0b:__Z18Transfer_BlittableI18StreamedBinaryReadILb0EELb0E4AABBEvRK29SerializationCommandArgumentsR31RuntimeSerializationCommandInfo
Bcm:_Rect_Contains_m2308869928_AdjustorThunk
QM:__ZN16MecanimAnimation24DeleteAnimatedPropertiesERP26IAnimatedPropertyEvaluator
C1a:__Z14DrawGUITextureRK5RectTIfEP7Texture11ColorRGBA32P8Materiali
mYi:_WebSocket_releaseCommonResources_m1276114624
PYh:__Z64RuntimeInvoker_RuntimeObject_SByte_t1669577662_Int32_t2950945753PFvvEPK10MethodInfoPvPS4_
iRg:_ReadOnlyCollection_1_System_Collections_Generic_ICollectionU3CTU3E_Add_m2686599243_gshared
FF:__ZN9BlobWrite8TransferI22OffsetPtrArrayTransferIKN4math7_float4EEEEvRT_PKc17TransferMetaFlags
Zra:__ZN15TextureSettings8TransferI24GenerateTypeTreeTransferEEvRT_
wJc:__ZN9JSONWrite8TransferI4AABBEEvRT_PKc17TransferMetaFlags
lZa:__ZN25MultiBlocksMemoryFileData9SetLengthEy
PKj:_InternalEnumerator_1_get_Current_m3191242573_AdjustorThunk
f4d:__ZNK18ScBeforeSolverTask7getNameEv
E3f:_Dictionary_2_Do_ICollectionCopyTo_TisRuntimeObject_m1855083806_gshared
w5j:_Aes__ctor_m178909601
hzb:__ZNK9Texture2D20GetRuntimeMemorySizeEv
pTd:__ZN5physx14solve1D4_BlockEPKNS_23PxcSolverConstraintDescEjRNS_16PxcSolverContextE
Zm:_emscripten_glUniform2iv
ZPc:__ZL33GeomMTDCallback_ConvexHeightFieldRN5physx6PxVec3ERfRKNS_10PxGeometryERKNS_11PxTransformES5_S8_
Mre:_UNITY_FT_Outline_Transform
A4f:_Mesh_SetUvsImpl_TisVector2_t2156229523_m984389559_gshared
Ayc:__Z60Register_UnityEngine_Sprites_DataUtility_Internal_GetMinSizev
zok:__ZN6il2cpp2vm5Class10GetMethodsEP11Il2CppClassPPv
$8a:__Z30AddDefaultStreamsToMeshBuffersR9GfxDeviceR11MeshBuffersRK16DrawBuffersRange17ShaderChannelMaskS6_
sSa:__ZN7ApiGLES17DeleteFramebufferERN2gl6HandleILNS0_10ObjectTypeE9EEES3_
yUa:__ZN15UniformTFMethod13MapBoneBufferEj
dGe:__ZN2UI14CanvasRendererD2Ev
t5f:_Array_InternalArray__get_Item_TisParameterModifier_t1461694466_m29553316_gshared
W6i:_FieldInfo_internal_from_handle_type_m3256989094
Qdg:_Int64_CompareTo_m1928360444_AdjustorThunk
wYd:__ZN5physx26PxcPCMContactCapsuleConvexERKNS_2Gu13GeometryUnionES3_RKNS_11PxTransformES6_RKfRNS_10PxcNpCacheERNS0_13ContactBufferE
GIk:__ZN15dense_hashtableINSt3__24pairIK10KeyWrapperINS1_IPK9EventInfoP11Il2CppClassEEEjEES9_17ReflectionMapHashIS8_EN14dense_hash_mapIS9_jSD_NS9_14EqualsComparerINS0_8equal_toIS8_EEEENS0_9allocatorISB_EEE9SelectKeyESI_SK_E15set_deleted_keyERKSB_
ioa:__Z9SetupArgviPPKc
uGf:_Convert_ToInt64_m2075031821
KGc:__ZN9rapidjson13GenericReaderINS_4UTF8IcEES2_13JSONAllocatorE11ParseObjectILj0ENS_19GenericStringStreamIS2_EENS_15GenericDocumentIS2_S3_S3_EEEEvRT0_RT1_
cBm:_glTexParameteri__wrapper
sad:__ZN5physx10PxsContext17addParticleSystemEPNS_15PxsParticleDataERKNS_26PxvParticleSystemParameterEb
o8c:__ZN5physx3Scb5Scene13addRigidNoSimINS0_4BodyELb1ELb1EEEvRT_RNS0_13ObjectTrackerE
Dyb:__ZN12CubemapArray23VirtualRedirectTransferER24GenerateTypeTreeTransfer
uea:__ZN12FileAccessor4OpenER15FileSystemEntry14FilePermission16FileAutoBehavior
kXk:__ZN6il2cpp2os9Directory6CreateERKNSt3__212basic_stringIcNS2_11char_traitsIcEENS2_9allocatorIcEEEEPi
jVc:__ZL19sweepBoxVsTrianglesjPKN5physx10PxTriangleERKNS_2Gu3BoxERKNS_6PxVec3EfRNS_10PxSweepHitENS_7PxFlagsINS_9PxHitFlag4EnumEtEEbPKj
Hfb:__ZN23TransformChangeDispatch32QueueTransformChangeIfHasChangedERK15TransformAccess
V3:__ZNSt3__24listIP19CloudServiceHandler13stl_allocatorIS2_L18MemLabelIdentifier86ELi16EEE6removeERKS2_
Buh:_TcpClient_Connect_m1569041472
_he:__ZN9Rigidbody18AddForceAtPositionERK8Vector3fS2_i
U_i:_Assembly_get_FullName_m293988418
ZBf:_SortedList_set_Capacity_m509376950
bEc:__Z31GUIStyle_CUSTOM_SetFontInternalP12Il2CppObjectS0_
B:tempValue
L6k:__ZN6il2cpp8metadata24Il2CppGenericContextHash4HashEPK20Il2CppGenericContext
vKj:_InternalEnumerator_1_get_Current_m356936020_AdjustorThunk
LMg:_Collection_1_CheckWritable_m1583234367_gshared
ddg:_Int32_ToString_m141394615_AdjustorThunk
waa:__Z29scripting_class_from_fullnamePKcS0_S0_
qij:_AnimatorControllerPlayable_PlayInternal_m2844371131
v2g:_SmallXmlParser_UnexpectedEndError_m1914362401
BC:__ZN26AnimatorControllerPlayable18DeallocateBindingsEv
gQc:__ZN5physx2Gu29ConvexVsMeshContactGeneration20generateLastContactsEv
y3h:__Z85RuntimeInvoker_Boolean_t97287965_Ray_t3785851493_Single_t1397266774_Int32_t2950945753PFvvEPK10MethodInfoPvPS4_
pwe:_UNITY_FT_Stream_ReadAt
Cvd:__ZN5physx2Sc17ParticleSystemSim16getParticleStateEv
l3d:__ZN5physx6shdfnd5ArrayINS_25PxsCompoundContactManagerENS0_19ReflectionAllocatorIS2_EEE8recreateEj
dBi:_TimeSpan__ctor_m1896986612_AdjustorThunk
uR:__Z87Register_UnityEngine_Animations_AnimatorControllerPlayable_INTERNAL_CALL_GetFloatStringv
zsk:__ZN15dense_hashtableINSt3__24pairIK10KeyWrapperIN6il2cpp5utils13dynamic_arrayIPK10Il2CppTypeLj4EEEEPFvvEEESA_NS3_8metadata19Il2CppSignatureHashEN14dense_hash_mapISA_SD_SG_NSA_14EqualsComparerINSF_22Il2CppSignatureCompareEEENS0_9allocatorISE_EEE9SelectKeyESK_SM_E9set_valueEPSE_RKSE_
a$g:_ArgumentException__ctor_m1216717135
uTj:_GCHandle_op_Explicit_m976572069
_wg:_List_1_System_Collections_IList_Contains_m3860993176_gshared
hWd:__ZN5physx14PxsAABBManagerC2ERNS_2Cm13EventProfilerERNS_19PxcScratchAllocatorE
g$:__ZN11AudioModule22CreateAudioClipFromWWWEP10IWWWStreamPKcbbi
Tqi:_ObjectRecord_get_IsUnsolvedObjectReference_m1163921033
VEi:_UInt32_System_IConvertible_ToBoolean_m1763673183_AdjustorThunk
$He:__Z13RegisterClassIN2UI11CanvasGroupEEvv
A9b:__ZN6prcoreL11inner_clearILj4EEEvPhjjj
Zf:_emscripten_glClear
lSf:_Array_InternalArray__ICollection_Remove_TisByte_t1134296376_m2266787817_gshared
sab:__ZN15SHConstantCacheC2ER13BatchRendererR15RenderLoopStats
u2k:_GC_initialize_offsets
Qia:__ZNK8Playable6HandleEv
Uzj:_SetPropertyUtility_SetColor_m2229203028
Fzh:_Enumerator_MoveNext_m481679286_gshared
dab:__Z30SetupBakedOcclusionForGeometrybRK26SharedLightmapSettingsDataRK15LightmapIndicesR17ShaderPassContext
Dca:__ZN14MessageHandler28MessageIDToMessageIdentifierEi
qEb:__ZNK11SpriteAtlas20GetRuntimeRenderDataEPK6Sprite
lgg:_FileSystemInfo__ctor_m3035148496
wcg:_Int32_System_IConvertible_ToDecimal_m2190376994_AdjustorThunk
sA:__ZN7mecanim14ValueArrayCopyILb0EEEvPKNS_10ValueArrayEPS1_
cQ:__Z51Register_UnityEngine_Animator_get_hasBoundPlayablesv
oe:emscriptenWebGLGetUniform
Bp:FUNCTION_TABLE_iiiiiiiiiii
nXc:__ZN5physx2Gu19sweepCapsuleCapsuleERKNS0_7CapsuleES3_RKNS_6PxVec3EfRfRS4_S8_jRt
Coj:_CapsuleCollider_set_center_m3089889343
afb:__ZL10CleanUpJobP20CullingGroupsJobData
Hfg:_DirectoryInfo_get_Exists_m3142069876
bHb:__ZN10MeshFilter23VirtualRedirectTransferER24GenerateTypeTreeTransfer
y7d:__ZN5physx13BigConvexData4LoadERNS_13PxInputStreamE
t1a:__ZN13RenderManager15BatchModeUpdateEv
hRf:_Array_InternalArray__ICollection_Contains_TisKeyValuePair_2_t4237331251_m138928983_gshared
oyh:_Enumerator_VerifyState_m1545185457_AdjustorThunk
qrh:_X509Chain_get_CertificateAuthorities_m804805415
yDb:__ZN14SafeBinaryRead21TransferSTLStyleArrayI13dynamic_arrayI8Vector2fLj4EEEEvRT_17TransferMetaFlags
Kwa:__ZN17PersistentManager51InstanceIDToLocalSerializedObjectIdentifierInternalEiR31LocalSerializedObjectIdentifier
xhd:__ZN5physx2Sc8ActorSim24postDominanceGroupChangeEv
TBc:__ZN8GUIState12GetControlIDEi9FocusType
Sd:_glVertexAttribIPointer
ywi:_StringBuilder_ToString_m3317489284
FWj:_Context_AllocateNamedDataSlot_m103537862
umc:__ZNK6Sprite10GetPaddingE20SpriteRenderDataMode
pid:__ZN5physx2Cm8PtrTable5clearERNS0_22PtrTableStorageManagerE
WSf:_Array_InternalArray__ICollection_Remove_TisUInt32_t2560061978_m733727733_gshared
xti:_CryptographicException__ctor_m503735289
Aoj:_CapsuleCollider_get_center_m2493090254
Z_c:__ZN5physx3Cct15ObstacleContext7releaseEv
VSd:__ZN5physx27solveFrictionBlockWriteBackEPKNS_23PxcSolverConstraintDescEjRNS_16PxcSolverContextEPNS_25PxcThresholdStreamElementEjPi
nli:_RemotingConfiguration_get_ApplicationName_m593755586
QOh:__Z93RuntimeInvoker_Boolean_t97287965_Int32_t2950945753_SByte_t1669577662_ExceptionU26_t3600731591PFvvEPK10MethodInfoPvPS4_
wgm:_DataUtility_Internal_GetMinSize_m2954368021
nmk:_MathfInternal__cctor_m3796400441
owe:_UNITY_ft_glyphslot_alloc_bitmap
ZJh:_Dictionary_2_GetObjectData_m3463318060_gshared
nih:_RSASslSignatureDeformatter_SetHashAlgorithm_m895570787
lTk:__ZN14dense_hash_mapI10KeyWrapperIP12Il2CppObjectEN6il2cpp2gc9CachedCCWENS4_5utils11PointerHashIS1_EENS3_14EqualsComparerINSt3__28equal_toIS2_EEEENSB_9allocatorINSB_4pairIKS3_S6_EEEEEC2EjRKS9_RKSE_
G_j:_X509CrlEntry__ctor_m4013514048
scc:__ZZN2UI13RectTransform15InitializeClassEvEN31FunctorImpl_62kTransformChanged4CallEPviR11MessageData
O7h:__Z87RuntimeInvoker_Color_t2555686324_Color_t2555686324_Color_t2555686324_Single_t1397266774PFvvEPK10MethodInfoPvPS4_
Kxe:_ft_raster1_render
Bxc:__Z57Register_UnityEngine_RectTransform_INTERNAL_set_anchorMaxv
Lem:_RenderTexture_Internal_GetWidth_m3496340582
Fhl:_Matrix4x4_MultiplyPoint3x4_m1691748578
Gug:_List_1_CheckIndex_m2109147658_gshared
tqm:__ZNKSt3__221__basic_string_commonILb1EE20__throw_length_errorEv
a1j:_EqualityComparer_1_System_Collections_IEqualityComparer_Equals_m245992594_gshared
Nj:_JS_SystemInfo_GetMemory
fzj:_Selectable_get_allSelectables_m868218263
hZi:_WebSocket_send_m253119507
pXf:_Array_InternalArray__IndexOf_TisParameterModifier_t1461694466_m1227120810_gshared
cTa:__ZN18GfxFramebufferGLES13ReadbackImageER14ImageReferenceiiiiii
RJi:_FactoryCache__ctor_m206337971
Bni:_SerializationInfo_SetType_m3923964808
fya:__ZN6prcoreL12RemapGenericI17TexFormatARGB888815TexFormatRGB565EEvPKNS_9InnerInfoE
hV:__ZN4FMOD7Channel19setReverbPropertiesEPK29FMOD_REVERB_CHANNELPROPERTIES
Fjg:_StreamReader_Dispose_m156389394
bca:__ZN13MonoBehaviour22GetScriptFullClassNameEv
KWe:_RIPEMD160Managed_JJ_m112143231
s3d:__ZN5physx6shdfnd4sortIPNS_15PxsContactPatchENS_27SortBoundsPredicateManifoldENS0_19ReflectionAllocatorIS3_EEEEvPT_jRKT0_RKT1_j
_Ca:__ZN20SphericalHarmonicsL211AddWeightedERKS_f
aSh:__Z82RuntimeInvoker_RuntimeObject_Int64_t3736567304_Int64_t3736567304_Int64_t3736567304PFvvEPK10MethodInfoPvPS4_
kqj:_Component_get_tag_m3111332171
TVb:__Z19TransferField_ArrayI17RemapPPtrTransfer27Converter_SimpleNativeClassI8GUIStyleEEvRK23StaticTransferFieldInfoR31RuntimeSerializationCommandInfoRT0_
xGc:__ZN9JSONWrite8TransferI10ColorRGBAfEEvRT_PKc17TransferMetaFlags
s_c:__ZN5physx3Cct26CharacterControllerManager16createControllerERKNS_16PxControllerDescE
xca:__Z25scripting_method_get_name18ScriptingMethodPtr
Kxc:__Z35Register_UnityEngine_Resources_Loadv
yih:_SslCipherSuite_ComputeKeys_m661027754
sUb:__Z19TransferField_ArrayI14SafeBinaryRead16Converter_StringEvRK23StaticTransferFieldInfoR31RuntimeSerializationCommandInfoRT0_
QLf:_Decimal_Equals_m2486655999
w2k:_GC_exit_check
DPg:_ReadOnlyCollection_1_System_Collections_Generic_ICollectionU3CTU3E_Remove_m1100818788_gshared
nXi:_PayloadData__cctor_m1032380990
Ot:__ZN7mecanim9animation9DenseClip8TransferI14SafeBinaryReadEEvRT_
$Qc:__ZNK5physx2Gu15OBBTriangleTest10obbTriTestERKNS_6PxVec3ES4_S4_
kij:_AnimatorControllerPlayable_PlayInFixedTime_m3833898112
T8i:_MonoField_ToString_m2518484388
s1g:_DSAManaged_get_Random_m923751780
JCh:_Transform_1_Invoke_m2385719192_gshared
AKi:_Interpreter_PopulateGroup_m4042796257
mDi:_Type_GetProperty_m3414567179
wF:__ZN9BlobWrite8TransferI22OffsetPtrArrayTransferI9OffsetPtrIN7mecanim12statemachine18StateMachineMemoryEEEEEvRT_PKc17TransferMetaFlags
Rte:_UNITY_ft_smooth_renderer_class_pic_free
yZ:__ZN19AudioPlayableOutput22OnConnectionHashChangeEv
bKg:_Collection_1_System_Collections_IList_IndexOf_m3894953546_gshared
QYj:_PKCS12_get_Certificates_m26161562
Glh:_NameObjectCollectionBase_Init_m2525481323
FZk:__ZN6il2cpp2vm6String8NewUtf16EPKDsi
vsi:_SByte_System_IConvertible_ToByte_m2268214252_AdjustorThunk
JWk:__ZN6il2cpp2os10ThreadImpl12QueueUserAPCEPFvPvES2_
tQi:_RegularExpression__ctor_m119502265
Ure:__ZN20TextRenderingPrivate15DynamicFontData36GetFaceForCharacterIfAvailableInFontERKNS_7FontRefERKNSt3__26vectorI4PPtrIN13TextRendering4FontEE13stl_allocatorIS9_L18MemLabelIdentifier34ELi16EEEEj
jRg:_ReadOnlyCollection_1_System_Collections_Generic_ICollectionU3CTU3E_Clear_m522482168_gshared
huh:_SocketAsyncResult_Complete_m3054928721
ski:_ConstructionCall_InitMethodProperty_m2021094586
UWc:__ZNK5physx2Gu15HeightFieldUtil12traceSegmentI25CapsuleTraceSegmentReportLb0ELb0ELb1EEEvRKNS_6PxVec3ES6_PT_PS5_
jDe:_UNITY_FT_Hypot
vXd:__ZN5physx10PxsContext23prepareCMDiscreteUpdateEPNS_10PxBaseTaskE
$cc:__ZN8RendererC2E12RendererType18MemLabelIdentifier18ObjectCreationMode
U6l:__ZL74CanvasScaler_t2767979955_CustomAttributesCacheGenerator_m_DefaultSpriteDPIP21CustomAttributesCache
Shd:__ZN5physx6shdfnd5ArrayIPvNS0_19ReflectionAllocatorINS_2Cm5BlockIhLj256EEEEEE4copyINS0_15InlineAllocatorILj256ES7_EEEEvRKNS1_IS2_T_EE
hg:_emscripten_glGetError
pHk:__ZN15dense_hashtableINSt3__24pairIK10KeyWrapperIPK14Il2CppAssemblyEPK22Il2CppMonoAssemblyNameEES6_N6il2cpp5utils11PointerHashIS4_EEN14dense_hash_mapIS6_SA_SF_NS6_14EqualsComparerINS0_8equal_toIS5_EEEENS0_9allocatorISB_EEE9SelectKeyESK_SM_E14squash_deletedEv
D2g:_SmallXmlParser__ctor_m202236734
VV:__Z14FMOD_FILE_SeekPvjS_
wld:__ZN5physx6shdfnd8PoolBaseINS_11NpAggregateENS0_19ReflectionAllocatorIS2_EEE15disposeElementsEv
sif:_LayoutGroup__ctor_m2162961217
gWc:__ZThn4_N16RayRTreeCallbackILi1ELb1EE14processResultsEjPj
Agb:__ZNK13RenderTexture32CalculateNeedsInvertedProjectionEv
N_c:__ZN5physx2Gu17RadixSortBuffered4SortEPKfj
pg:emscriptenWebGLGet
Iea:__Z19CanReplaceComponentRN5Unity9ComponentEPKNS_4TypeEPN4core12basic_stringIcNS5_20StringStorageDefaultIcEEEE
Ilg:_UnmanagedMemoryStream_Flush_m1540584491
tag:_GuidParser_ParseGuid2_m1914838819
Tfc:__ZN12CubemapArray11InitTextureEiii13TextureFormatb
xya:__ZN6prcoreL18BlitIntegerToFloatERK14ImageReferenceRS0_
g6k:__ZN6il2cpp2vm9LastError31InitializeLastErrorThreadStaticEv
npc:__Z17GetSceneBuildInfoRKN4core12basic_stringIcNS_20StringStorageDefaultIcEEEEiR14SceneBuildInfo
XGf:_Convert_ToSingle_m3983149863
NEj:_InternalEnumerator_1_System_Collections_IEnumerator_get_Current_m55999184_gshared
qhf:_Graphic_get_depth_m815589653
B4c:__ZN27ConvexVsMeshOverlapCallbackC2ERKN5physx2Gu10ConvexMeshERKNS0_11PxMeshScaleERKNS0_2Cm23FastVertex2ShapeScalingERKNS0_11PxTransformESE_bRKNS1_3BoxE
dYg:_Func_2_BeginInvoke_m3203555673_gshared
dG:__ZN7mecanim5human13HumanFixTwistEPKNS0_5HumanEPNS_8skeleton13SkeletonPoseTIN4math4trsXEEES9_iiRKf
K9a:__ZL24AssignProjectorQueuesJobP30AssignProjectorQueuesJobHeader
yhm:_TextEditor_MoveTextEnd_m3937039734
Qfj:_AnimatorControllerPlayable_SetTrigger_m1884134869
Fsk:__ZN15dense_hashtableINSt3__24pairIK10KeyWrapperIN6il2cpp5utils13dynamic_arrayIPK10Il2CppTypeLj4EEEEPFvvEEESA_NS3_8metadata19Il2CppSignatureHashEN14dense_hash_mapISA_SD_SG_NSA_14EqualsComparerINSF_22Il2CppSignatureCompareEEENS0_9allocatorISE_EEE9SelectKeyESK_SM_E4swapERSP_
Fbg:_Int16_System_IConvertible_ToUInt32_m3410279543
x7b:__ZN9ShaderLab20SerializedSubProgram14SetConstBufferEPKci
xIb:__Z22SkinVerticesGenericCPUILi2ELb1ELb0EEvPKhiiiiPhiPKvS4_
SAk:__ZN6il2cpp2os4File5CloseEPNS0_10FileHandleEPi
xdm:_RectTransform_INTERNAL_set_anchoredPosition_m3924630850
rZi:_WebSocket_U3CcheckProtocolsU3Eb__9_m746499225
one:__ZN13PhysicsModule17SetRigidBodyStateER9RigidbodyRKN8IPhysics14RigidBodyStateE
Kze:_cf2_getStdVW
zEi:_UInt16_CompareTo_m2664746316_AdjustorThunk
hJg:_Collection_1_IsSynchronized_m2775206130_gshared
xOd:__ZN5physx2Sq12BucketPruner11shiftOriginERKNS_6PxVec3E
rLc:__Z29Transfer_Blittable_ArrayFieldI8JSONReadjEvRT_R9ArrayInfoRK23StaticTransferFieldInfo
R7c:__ZN5physx6shdfnd5ArrayIPNS_2Sc16ArticulationCoreENS0_19ReflectionAllocatorIS4_EEE15growAndPushBackERKS4_
C2k:_GC_check_finalizer_nested
Wg:__setLetterbox
yyj:_ScrollRect_OnScroll_m3861066534
T1d:__ZN5physx19normalizePartitionsERNS_6shdfnd5ArrayIjNS0_19ReflectionAllocatorIjEEEEPNS_23PxcSolverConstraintDescEPKNS_13PxcSolverBodyEjjS5_
FRf:_Array_InternalArray__ICollection_Contains_TisResourceCacheItem_t51292791_m2991582559_gshared
l0l:__ZL72FormerlySerializedAsAttribute_t2859083114_CustomAttributesCacheGeneratorP21CustomAttributesCache
WRc:__ZN18ContactCapsuleMesh20processTriangleCacheILj16EEEbRN5physx2Gu13TriangleCacheIXT_EEE
mNi:_PatternCompiler_EmitFastRepeat_m3012952683
ZFb:__ZNSt3__26vectorI17BlendShapeChannelNS_9allocatorIS1_EEE6assignINS_11__wrap_iterIPS1_EEEENS_9enable_ifIXaasr21__is_forward_iteratorIT_EE5valuesr16is_constructibleIS1_NS_15iterator_traitsISA_E9referenceEEE5valueEvE4typeESA_SA_
T1a:__ZN11TimeManager11GetRealtimeEv
y3c:__ZN5physx2Sc16InteractionScene25removeFromActiveActorListERNS0_5ActorE
WRe:__ZN20UnityWebRequestProtoI19TransportJavaScript16AtomicRefCounter14RedirectHelper14ResponseHelper15DownloadHandler13UploadHandler12HeaderHelper14AsyncOperationE26Job_ExecuteUnityWebRequestEPS8_
gW:__ZN29AudioEffectInternalDefinitionC2EP26UnityAudioEffectDefinitionb
VVg:_ReadOnlyCollection_1_System_Collections_IList_Remove_m2434650390_gshared
SEi:_UInt16_ToString_m3056878594_AdjustorThunk
W$c:__ZN5physx3Ext21InertiaTensorComputer6rotateERKNS_7PxMat33E
Del:_GUIStyle_Internal_CalcSizeWithConstraints_m287899535
rCk:__ZNSt3__2plIcNS_11char_traitsIcEENS_9allocatorIcEEEENS_12basic_stringIT_T0_T1_EERKS9_PKS6_
Y0d:__ZN5physx22PxcDiscreteNarrowPhaseERNS_18PxcNpThreadContextERNS_13PxcNpWorkUnitE
UDa:_stbir_resize
BWf:_Array_IndexOf_TisCustomAttributeTypedArgument_t2723150157_m3158556463_gshared
hPf:_Environment_GetOSVersionString_m407782784
N4e:_DecoderExceptionFallback_Equals_m1082173956
Xbj:_UnityAnalyticsHandler_InternalDestroy_m3155597353
vYd:__ZN5physx23PxcPCMContactCapsuleBoxERKNS_2Gu13GeometryUnionES3_RKNS_11PxTransformES6_RKfRNS_10PxcNpCacheERNS0_13ContactBufferE
LYa:__Z37ReadDirectoryInfo_UnityWebAndUnityRawR12FileAccessorRKN20ArchiveStorageHeader6HeaderERNS1_13DirectoryInfoE
b9:__ZNSt3__26__treeINS_12__value_typeIPKciEENS_19__map_value_compareIS3_S4_15compare_tstringIS3_ELb1EEENS_9allocatorIS4_EEE7destroyEPNS_11__tree_nodeIS4_PvEE
T_f:_Array_InternalArray__Insert_TisIntPtr_t_m189626842_gshared
odg:_Int64_System_IConvertible_ToByte_m375085029_AdjustorThunk
ZEj:_InternalEnumerator_1_System_Collections_IEnumerator_get_Current_m2062365953_AdjustorThunk
t0f:_Array_InternalArray__set_Item_TisAnimatorClipInfo_t3156717155_m21807017_gshared
jWe:_RijndaelManaged_CreateEncryptor_m263736311
dPe:__ZN13dynamic_arrayIN4core12basic_stringIcNS0_20StringStorageDefaultIcEEEELj4EE6assignEPKS4_S7_
S6a:__ZN20DynamicPropertySheet14SetValueQueuedEN9ShaderLab16FastPropertyNameEN19ShaderPropertySheet12PropertyTypeEjNS2_8SetFlagsE
OGe:__ZN2UI6Canvas26MarkAllNestedCanvasesDirtyEv
HPk:__ZN6il2cpp2vm12ReboxIfBoxedEP14Il2CppIUnknownP11Il2CppClass
_Ua:__ZN16GeometryJobTasks20ScheduleGeometryJobsER9GfxDevicePFvP15GeometryJobDataEPK22GeometryJobInstructionjb
nmb:__ZN25PathNamePersistentManagerD2Ev
Uaa:__ZN17PersistentManager48IntegrateObjectAndUnlockIntegrationMutexInternalEi
Mla:__ZZ29InitializeSortingGroupManagerPvEN44PostLateUpdateSortingGroupsUpdateRegistrator7ForwardEv
D0l:__ZL55EventTrigger_t1076084509_CustomAttributesCacheGeneratorP21CustomAttributesCache
h0e:_SecurityElement_SearchForChildByTag_m900466299
yq:__ZN6Object12SetHideFlagsENS_9HideFlagsE
Rge:__ZN9Rigidbody23VirtualRedirectTransferER14SafeBinaryRead
QGf:_Convert_ToSingle_m3227075028
Sxm:_emscripten_glGetFramebufferAttachmentParameteriv__wrapper
$1a:__ZN13RendererScene15InitializeUmbraEv
KCa:__Z28CalculateGlobalMatrixInverse23TransformAccessReadOnly
BIc:__ZN4PPtrI6ObjectE8TransferI9JSONWriteEEvRT_
P3j:_GenericEqualityComparer_1_Equals_m3457564127_gshared
e5f:_Array_InternalArray__get_Item_TisSlot_t3975888750_m905303097_gshared
y4a:__ZN13dynamic_arrayI12BoneWeights4Lj16EE18resize_initializedEjRKS0_12ResizePolicy
J4e:_DecoderExceptionFallback__ctor_m4044614564
Qvd:__ZNK5physx15PxsParticleData15getWorldBoundsVEv
Mee:__ZN15CapsuleCollider13AwakeFromLoadE17AwakeFromLoadMode
_ba:__ZN13MonoBehaviour19ReleaseMonoInstanceEv
SXc:__ZN12_GLOBAL__N_124HfTrianglesEntityReport27onEventEjPj
J9i:_MonoProperty_CachePropertyInfo_m2968057423
Rgd:__ZN5physx17PxsContactManager16resetCachedStateEv
XRe:__ZN12HeaderHelper14SetUnvalidatedERKN4core12basic_stringIcNS0_20StringStorageDefaultIcEEEES6_b
BS:__ZN4FMOD6SoundI7releaseEv
NAd:__ZN5physx20NpRigidActorTemplateINS_14PxRigidDynamicEE15setActorSimFlagEb
oJb:__ZN14SpriteRenderer13AwakeFromLoadE17AwakeFromLoadMode
zZa:__ZN10MemoryFile9SetLengthEy
$K:__ZN7mecanim10ValueArray8TransferI19StreamedBinaryWriteILb0EEEEvRT_
EPb:__Z28scripting_class_is_interface17ScriptingClassPtr
ji:_glTexStorage2D
a6f:_CultureInfo_ConstructInternalLocaleFromName_m4012802696
l7b:__ZNK9ShaderLab10SubProgram14EnsureCompiledEv
t5i:_MethodBuilder_GetGenericArguments_m1765425737
lJf:_DateTime_CompareTo_m3687348273
KJf:_DateTime_ToUniversalTime_m1945318289_AdjustorThunk
Kje:__ZN5physx7profile10DataBufferINS_6shdfnd6MutexTINS0_26WrapperReflectionAllocatorIhEEEENS0_14ScopedLockImplIS6_EEE17handleBufferFlushEPKhj
Cfj:_AnimatorControllerPlayable_INTERNAL_CALL_GetIntegerString_m225398
nca:__Z18BuildScriptClassId17ScriptingClassPtr
xgc:__ZN8Renderer28HandleParentHierarchyChangesEPK23TransformAccessReadOnlyj
oil:_Mesh_SetVertices_m2641879696
Kna:__ZL31DeleteLastPathNameComponentImplRKN4core12basic_stringIcNS_20StringStorageDefaultIcEEEEPKc
Lac:__Z13RegisterClassI18DelayedCallManagerEvv
EOe:__ZN18UnityConnectClient15GetCloudServiceEv
fWb:__Z18Transfer_BlittableI24GenerateTypeTreeTransferLb0EiEvRK29SerializationCommandArgumentsR31RuntimeSerializationCommandInfo
E4d:__ZN5physx20PxsConstraintProjectEPKNS_13PxsConstraintEbf
wod:__ZN5physx7NpShape7setFlagENS_11PxShapeFlag4EnumEb
OJj:_InternalEnumerator_1_get_Current_m2698009637_gshared
fEh:_Enumerator_System_Collections_IEnumerator_Reset_m278261807_gshared
wdl:_GUIStyleState_GetBackgroundInternalFromDeserialization_m3576650576
yPb:__ZL28SerializationCommandGroupForRK31TransferFunctionScriptingTraits17ScriptingClassPtr17ScriptingFieldPtrRK20CoreScriptingClasses
vrb:__ZN10TagManager32RegisterDefaultTagsAndLayerMasksEv
YBh:_ShimEnumerator_MoveNext_m3492974564_gshared
qYh:__Z50RuntimeInvoker_Double_t594665363_Int32_t2950945753PFvvEPK10MethodInfoPvPS4_
tEg:_Queue_1_CopyTo_m39711753_gshared
B0d:__ZN5physx2Sc35ParticleElementRbElementInteraction12onDeactivateEj
d9h:__Z104RuntimeInvoker_Void_t1185182177_Color_t2555686324_Single_t1397266774_SByte_t1669577662_SByte_t1669577662PFvvEPK10MethodInfoPvPS4_
Fpg:_Enumerator_System_Collections_IEnumerator_get_Current_m1540440674_gshared
e1e:_Single_System_IConvertible_ToInt16_m809233024_AdjustorThunk
hMe:__Z56Register_UnityEngine_Analytics_CustomEventData_AddUInt32v
Gom:_fmodf
EXe:_RSAPKCS1SHA1SignatureDescription__ctor_m621804060
INa:__ZN4gles8InitCapsEP7ApiGLESP12GraphicsCapsR16GfxDeviceLevelGL
yxa:__ZN6prcore14BlitImageFloatERK14ImageReferenceRS0_NS0_8BlitModeE
cFa:__Z24CalculateVertexLightDataRK15SharedLightDataR14GfxVertexLight
Ti:_glEnable
JAa:__ZN15dense_hashtableINSt3__24pairIKiiEEi21InstanceIDHashFunctorN14dense_hash_mapIiiS4_NS0_8equal_toIiEE13stl_allocatorIS3_L18MemLabelIdentifier1ELi16EEE9SelectKeyES7_SA_E12maybe_shrinkEv
R4a:__ZNK25CameraStackRenderingState21GetImageEffectTextureEb
hKd:__ZN5physx2Sq8AABBTreeC2Ev
TMi:_PatternCompiler_EmitCategory_m851169746
lHc:__Z35Transfer_Blittable_FixedBufferFieldI9JSONWriteiEvRK29SerializationCommandArgumentsR31RuntimeSerializationCommandInfo
d4j:_Enumerator__ctor_m1590062855_AdjustorThunk
gNb:__ZNSt3__26vectorI4PPtrI6ObjectE13stl_allocatorIS3_L18MemLabelIdentifier51ELi16EEE6assignINS_11__wrap_iterIPS3_EEEENS_9enable_ifIXaasr21__is_forward_iteratorIT_EE5valuesr16is_constructibleIS3_NS_15iterator_traitsISD_E9referenceEEE5valueEvE4typeESD_SD_
tC:__ZN26AnimatorControllerPlayable17ProcessRootMotionEP35AnimationPlayableEvaluationConstantP32AnimationPlayableEvaluationInputP33AnimationPlayableEvaluationOutput
mlg:_UnexceptionalStreamReader_Peek_m1842169584
Fmk:_AnalyticsTracker_SendEvent_m2955089255
jNe:__ZN11UnityEngine7Connect15DeviceInfoEvent16CollectExtraInfoEv
$_k:__ZN6il2cpp2os11Environment22SetEnvironmentVariableERKNSt3__212basic_stringIcNS2_11char_traitsIcEENS2_9allocatorIcEEEESA_
Ivk:__ZN6il2cpp6icalls6System6System3Net7Sockets6Socket8ShutdownE12Il2CppIntPtrNS4_14SocketShutdownEPi
G7d:__ZN5physx2Gu10ConvexMeshD2Ev
Nti:_CryptographicException__ctor_m1422015889
rcm:_Rect_get_size_m3542039952_AdjustorThunk
gHk:__ZN6il2cpp2gc19AppendOnlyGCHashMapIPK10Il2CppTypeP20Il2CppReflectionTypeNS_8metadata14Il2CppTypeHashENS7_26Il2CppTypeEqualityComparerEEC2Ev
RHf:_Convert_ChangeType_m739676612
k4k:__ZN6il2cpp6icalls8mscorlib6System10Reflection9FieldInfo25internal_from_handle_typeE12Il2CppIntPtrS5_
D$k:__ZThn8_N6il2cpp2vm13CachedCCWBaseINS0_13ManagedObjectEE6AddRefEv
Jbh:_Alert_GetAlertMessage_m1942367141
Imi:_RemotingServices_GetRealProxy_m2081098851
Y0g:_BlockProcessor_Core_m189015002
_xm:_emscripten_glScissor__wrapper
Gp:FUNCTION_TABLE_viifi
Jp:FUNCTION_TABLE_viiff
o0:__Z75AudioPlayableGraphExtensions_CUSTOM_INTERNAL_CALL_InternalCreateAudioOutputR14HPlayableGraphP12Il2CppStringP15HPlayableOutput
J1c:__ZNK5physx2Sc8ShapeSim10getBodySimEv
z5g:_X501__cctor_m1166912714
Luj:_MaskUtilities_GetRectMasksForClip_m532898711
yDe:_UNITY_tt_face_free_hdmx
ZAk:__ZN6il2cpp2vm14TypeNameParser5ParseEb
cmg:_Math_Sqrt_m1297338011
Yjg:_StreamWriter_Initialize_m3490883444
ELk:__ZN6il2cpp6icalls8mscorlib6System7Runtime15InteropServices7Marshal17copy_to_unmanagedEP11Il2CppArrayi12Il2CppIntPtri
zDi:_Type_GetGenericArguments_m3500465462
Whd:__ZN5physx6shdfnd5ArrayIPvNS0_19ReflectionAllocatorINS_2Cm5BlockIhLj128EEEEEE15growAndPushBackERKS2_
eRe:__ZN23UnityPurchasingSettingsC2Ev
LIb:__ZNK9Transform13GetWorldScaleEv
O7i:_Module_IsDefined_m2423524910
dsh:_X509Certificate2Enumerator__ctor_m1083666285
EWf:_Array_IndexOf_TisColor32_t2600501292_m2718632137_gshared
U5l:__ZL66Selectable_t3250028441_CustomAttributesCacheGenerator_m_NavigationP21CustomAttributesCache
cpd:__ZN5physx14NpShapeManager15setupSceneQueryERNS_2Sq17SceneQueryManagerERKNS_12PxRigidActorERKNS_7NpShapeE
AWf:_Array_IndexOf_TisCustomAttributeNamedArgument_t287865710_m2817957199_gshared
sQg:_ReadOnlyCollection_1_System_Collections_IList_RemoveAt_m1980090087_gshared
_Da:__ZL37stbir__resample_horizontal_downsampleP11stbir__infoiPf
YXj:_ExtendedKeyUsageExtension_ToString_m2116504780
fBa:__ZNK5Unity9Component38MarkGameObjectAndComponentDependenciesER27GarbageCollectorThreadState
F7:__ZL16OutOfMemoryErrorjj18MemLabelIdentifieriPKc
kfg:_BinaryReader_Read_m3708759962
H9c:__ZNK5physx2Sc9ClothCore23getExternalAccelerationEv
Oca:__ZNK11TypeManager15ClassNameToRTTIEPKcb
FVc:__ZN5physx2Gu13coarseCullingERKNS_6PxVec3ES3_ffRKNS_10PxTriangleE
v1b:__Z18Transfer_BlittableI18StreamedBinaryReadILb0EELb1EdEvRK29SerializationCommandArgumentsR31RuntimeSerializationCommandInfo
rzm:_emscripten_glVertexAttrib2fv__wrapper
zkg:_SynchronizedReader_ReadToEnd_m2160105378
b1d:__ZN5physx2Sc5Scene29processNarrowPhaseTouchEventsEv
mQa:__ZN4crnd12symbol_codec32decode_receive_static_data_modelERNS_25static_huffman_data_modelE
ncc:__ZN18ScriptingArguments8AddFloatEf
Djf:_Image_set_fillOrigin_m469806249
$Me:__ZN11UnityEngine15PlatformWrapper16GetVRRenderScaleEv
Kbd:__ZN5physx6shdfnd5ArrayIPvNS0_15InlineAllocatorILj256ENS0_19ReflectionAllocatorINS_18NpArticulationLinkEEEEEE15growAndPushBackERKS2_
dIc:__Z18Transfer_BlittableI9JSONWriteLb0EaEvRK29SerializationCommandArgumentsR31RuntimeSerializationCommandInfo
H1:__ZN11UnityEngine15CloudWebService14DataDispatcher34OnSessionContainerArchivedAndReadyERNS0_16SessionContainerE
d$c:__ZNK5physx3Cct15ObstacleContext11getObstacleEj
Zaj:_ResolveEventHandler_Invoke_m1337322179
nYb:__Z18Transfer_BlittableI19StreamedBinaryWriteILb0EELb0E8Vector3fEvRK29SerializationCommandArgumentsR31RuntimeSerializationCommandInfo
Ack:_Enumerator_VerifyState_m2621680056_gshared
oRi:_UriParser_InternalRegister_m3643767086
w3b:__ZN14SafeBinaryRead19TransferSTLStyleMapINSt3__23mapIN4core12basic_stringIcNS3_20StringStorageDefaultIcEEEEiNS1_4lessIS7_EENS1_9allocatorINS1_4pairIKS7_iEEEEEEEEvRT_17TransferMetaFlags
fve:_gray_move_to
AKf:_DBNull_System_IConvertible_ToSingle_m13713620
ilm:_Vector2_GetHashCode_m2690926524
bGk:__ZN6il2cpp2vm10Reflection14GetEventObjectEP11Il2CppClassPK9EventInfo
Qjf:_Image_GetDrawingDimensions_m3060965396
TDi:_TypeLoadException__ctor_m1154572625
epc:__Z30RegisterValidateMethodCallbackiPF18ScriptingMethodPtrS_17ScriptingClassPtrP6ObjectEPKc
ffh:_Context_get_WriteSequenceNumber_m1115956887
R3f:_Dictionary_2_Do_ICollectionCopyTo_TisKeyValuePair_2_t2401056908_m1169495264_gshared
QXi:_WebSocket_remove_OnError_m565859643
a6i:_OpCodes__cctor_m3821715395
pdf:_ContentSizeFitter__ctor_m2349275633
HNd:__ZN5physx13IslandManager6resizeEj
Dwe:_tt_cmap_init
Ta:invoke_viidi
Tbc:__ZN9TextAssetC2E18MemLabelIdentifier18ObjectCreationMode
$Ti:_U3CSplitHeaderValueU3Ed__f_System_Collections_Generic_IEnumerableU3CSystem_StringU3E_GetEnumerator_m479541149
C6c:__ZN5physx6shdfnd8PoolBaseINS_2Cm5BlockIPvLj16EEENS0_19ReflectionAllocatorIS5_EEE17releaseEmptySlabsEv
hhf:_Graphic_OnRectTransformDimensionsChange_m3695755375
xsi:_SByte_System_IConvertible_ToChar_m1489191771_AdjustorThunk
LKk:__ZNK15dense_hashtableINSt3__24pairIK10KeyWrapperIP11Il2CppClassES4_EES5_N6il2cpp8metadata16SZArrayClassHashEN14dense_hash_mapIS5_S4_SA_NS5_14EqualsComparerINS9_19SZArrayClassCompareEEENS0_9allocatorIS7_EEE9SelectKeyESE_SG_E12test_deletedEj
P$c:__ZL20updateMassAndInertiabRN5physx11PxRigidBodyEPKfjPKNS_6PxVec3Eb
LKc:__Z18Transfer_BlittableI8JSONReadLb0EdEvRK29SerializationCommandArgumentsR31RuntimeSerializationCommandInfo
Uje:__ZN5physx24NpPtrTableStorageManagerC2Ev
JJ:__ZN7mecanim9animation21BlendTreeNodeConstant35Transfer_4_0_BackwardsCompatibilityI14SafeBinaryReadEEvRT_
hXj:_SynchronizationAttribute_EnterContext_m1660729920
sKe:__Z44Register_UnityEngine_Canvas_set_sortingOrderv
lvj:_VertexHelper_Clear_m627349662
gwk:__ZN6il2cpp2vm21ThreadPoolCompartment13QueueWorkItemEP17Il2CppAsyncResult
dJa:__ZNK9GfxDevice13GetViewMatrixEv
Jlg:_UnmanagedMemoryStream_Dispose_m2681886347
yGd:__ZN5physx7NpScene15flushSimulationEb
JFj:_InternalEnumerator_1_System_Collections_IEnumerator_get_Current_m1295084274_gshared
qnd:__ZN5physx6shdfnd8PoolBaseINS_10NpMaterialENS0_19ReflectionAllocatorIS2_EEE12allocateSlabEv
Jda:__ZN8TypeTree8BlobReadERPKhS1_ib
Ccj:_AnimationEvent_get_animationState_m2229874910
oqf:_Array_Reverse_m3714848183
Dff:_Dropdown_ClearOptions_m4085591601
Fcf:_CanvasUpdateRegistry_InternalRegisterCanvasElementForGraphicRebuild_m3522560454
kbe:__ZN5physx18ReducedVertexCloudC2EPKNS_6PxVec3Ej
CBa:__ZN18LoadSceneOperation23GetAllowSceneActivationEv
ssb:__ZN6CameraD0Ev
Tja:__ZN31CanvasBatchIntermediateRenderer16StaticInitializeEPv
KB:__ZN7mecanim12AndValueMaskILb0EEEvPKNS_14ValueArrayMaskEPS1_
z0f:_Array_InternalArray__set_Item_TisRaycastHit_t1056001966_m42652901_gshared
Zhb:__ZN10GameObjectC2E18MemLabelIdentifier18ObjectCreationMode
hue:_raccess_guess_apple_double
jRa:__ZL18ProgramUniform1uivPK7ApiGLESjiihPKv
Q1f:_Array_Sort_TisByte_t1134296376_m343015505_gshared
cgc:__ZN14Texture2DArray13RebuildMipMapEv
Gpk:__ZN13Il2CppHashSetIPK17Il2CppGenericInstN6il2cpp8metadata21Il2CppGenericInstHashENS4_24Il2CppGenericInstCompareENSt3__29allocatorI10KeyWrapperIS2_EEEEC2EjRKS5_RKS6_
lSb:__Z18Transfer_BlittableI14SafeBinaryReadLb1EaEvRK29SerializationCommandArgumentsR31RuntimeSerializationCommandInfo
UXk:__ZN6il2cpp2gc16GarbageCollector14RemoveWeakLinkEPPv
y7b:__ZN9ShaderLab20SerializedSubProgram14AddVectorParamEPKcii15ShaderParamTypei
DCf:_Enumerator__ctor_m3362421874
A8h:__Z117RuntimeInvoker_CSSSize_t3377836552_IntPtr_t_Single_t1397266774_Int32_t2950945753_Single_t1397266774_Int32_t2950945753PFvvEPK10MethodInfoPvPS4_
gnj:_Camera_FireOnPreCull_m2863664483
ODm:_emscripten_glIsFramebuffer__wrapper
vUk:__ZN6il2cpp2vm6Object3BoxEP11Il2CppClassPv
Woa:__ZN13ScreenManager18SetAllowCursorLockEb
$2:__ZN11UnityEngine15CloudWebService10RestClientINS0_23WebRequestRestHeaderMapEE16SetRequestHeaderERKN4core12basic_stringIcNS4_20StringStorageDefaultIcEEEESA_
YNb:__ZN30RuntimeInitializeOnLoadManager15ClassMethodInfo8TransferI14SafeBinaryReadEEvRT_
hki:_ConstructionCall_InitDictionary_m2824447813
z$:__ZL22InitializeModule_Audiov
kOd:__ZN5physx2Sq11PruningPoolD0Ev
jnb:__ZN16MemoryFileSystem8IsLockedERK13FileEntryData
cWd:__ZN3MBP15removeBoxPrunerEj
pVh:__Z92RuntimeInvoker_RuntimeObject_RuntimeObject_RuntimeObject_SByte_t1669577662_SByte_t1669577662PFvvEPK10MethodInfoPvPS4_
Cl:_emscripten_glBindRenderbuffer
PDc:__Z32GUIStyle_Set_Custom_PropClippingP12Il2CppObjecti
nMl:__ZL118TouchScreenKeyboard_t731888065_CustomAttributesCacheGenerator_TouchScreenKeyboard_Open_m2745521035____textPlaceholder6P21CustomAttributesCache
gug:_List_1_System_Collections_IList_Insert_m1011775503_gshared
r2k:_GC_dirty_init
sRk:__ZN6il2cpp2vm5Image33GetCachedMemoryMappedResourceFileEP24Il2CppReflectionAssembly
hUk:__ZN6il2cpp2vm5Field14GetValueObjectEP9FieldInfoP12Il2CppObject
QHe:__ZNK2UI6Canvas16GetTargetDisplayEv
yVi:_AuthenticationResponse__ctor_m3150153889
dTc:__ZL15SweepBoxCapsulePKN5physx3Cct9SweepTestEPKNS0_11SweptVolumeEPKNS0_11TouchedGeomERKNS_14PxExtendedVec3ERKNS_6PxVec3ERNS0_12SweptContactE
Bha:__ZN6Object17FindObjectsOfTypeEPKN5Unity4TypeER13dynamic_arrayIPS_Lj4EEb
XOb:__ZN13MonoBehaviour17RemoveFromManagerEv
I5d:__ZN5physx2Sc19ParticlePacketShapeD2Ev
iDb:__ZL11DecodeValuePPKcS0_
S$e:_WindowsIdentity_System_Runtime_Serialization_IDeserializationCallback_OnDeserialization_m3428853631
r6:__ZN13MemoryManagerC2Ev
fUa:__ZN12SkinMeshInfo10DeallocateEPS_
$xj:_ScrollRect_SetDirty_m214267968
M$a:__ZN20ArchiveStorageReader28AcquireAndPrefillUnusedBlockEjPNS_11CacheResultE
esf:_Boolean_System_IConvertible_ToDateTime_m603510836
Xfc:__Z12NHxRoughnessIA4_tEvP9Texture2DPT_iiii
EUi:_HttpResponse_get_Cookies_m491054665
y0g:_ASN1_get_Value_m1857007406
aia:__ZN18AsyncUploadManagerD2Ev
m9b:__ZN9Transform5ResetEv
GMf:_DelegateSerializationHolder__ctor_m23226427
aGf:_Decimal_op_Explicit_m1842265407
_Xb:__Z22TransferField_NonArrayI24GenerateTypeTreeTransfer16Converter_StringEvRK23StaticTransferFieldInfoR31RuntimeSerializationCommandInfoRT0_
uwe:_UNITY_FT_CMap_New
rGj:_InternalEnumerator_1_get_Current_m4241643334_AdjustorThunk
Moa:__Z17MainLoopKeepalivePv
t9c:__ZN5physx7NpScene16addActorInternalERNS_7PxActorE
mxj:_Selectable_FindSelectableOnDown_m1591762582
Ueb:__Z24ScheduleCullingAllGroupsR8JobFenceRK22SceneCullingParameters4PPtrI6CameraERK13CullingOutputRK13dynamic_arrayIP12CullingGroupLj4EERKS_
xMj:_InternalEnumerator_1_get_Current_m1588647567_AdjustorThunk
Knm:_printf_core
pwl:__ZL51GCHandle_t3351438187_CustomAttributesCacheGeneratorP21CustomAttributesCache
eeb:__Z14CalcHullBoundsPK8Vector3fPKhhRK5PlaneRK10Matrix4x4fR10MinMaxAABB
Tkf:_InputField_get_caretBlinkRate_m3620074524
RY:__ZNK14SoundHandleAPI12GetFrequencyEv
N6a:__Z19SetupLODFadeKeywordR17ShaderPassContexti
gwe:_UNITY_FT_Stream_ReadFields
LXe:_RSAPKCS1SignatureFormatter_CreateSignature_m3191980616
ATa:__ZL25CheckCopyTextureArgumentsRK7ApiGLESP11GLESTextureS3_
Vha:__ZN13dynamic_arrayI26EnlightenSystemInformationLj8EE6insertEPS0_PKS0_S4_
_ve:_tt_name_entry_ascii_from_utf16
DXb:__Z29Transfer_Blittable_ArrayFieldI24GenerateTypeTreeTransferyEvRT_R9ArrayInfoRK23StaticTransferFieldInfo
yV:__ZN4FMOD7SystemI9playSoundE17FMOD_CHANNELINDEXPNS_5SoundEbPPNS_7ChannelE
Tdg:_Int64_GetHashCode_m703091690
nne:__ZN13PhysicsModule31GetColliderComponentsInChildrenERK10GameObjectbbR13dynamic_arrayIPN5Unity9ComponentELj4EE
W5:__GLOBAL__sub_I_runtime_graphics_mesh2_lump_cpp
Qqd:__ZNK5physx7NpCloth16getStretchConfigENS_22PxClothFabricPhaseType4EnumE
JB:__ZN27AnimationLayerMixerPlayable17LayerMixerProcessEP35AnimationPlayableEvaluationConstantP32AnimationPlayableEvaluationInputP33AnimationPlayableEvaluationOutputM17AnimationPlayableFvS1_S3_S5_EMS_FvS1_S3_S5_ESA_MS_FvS5_S1_S3_S5_ifE
sFf:_Decimal_op_Implicit_m4256234411
mw:__ZN18StreamedBinaryReadILb0EE21TransferSTLStyleArrayI13dynamic_arrayI12PPtrKeyframeLj4EEEEvRT_17TransferMetaFlags
URh:__Z60RuntimeInvoker_RuntimeObject_RuntimeObject_Int16_t2552820387PFvvEPK10MethodInfoPvPS4_
HFb:__ZN10VertexData13SwapEndianessEv
Bjg:_StreamReader__ctor_m3941437302
tzc:__Z57Register_UnityEngine_Transform_INTERNAL_get_localRotationv
xum:dynCall_viif
uum:dynCall_viii
ukg:_StringReader_ReadLine_m2337102945
Vqj:_Coroutine_ReleaseCoroutine_m1341336641
Uej:_AnimatorControllerPlayable_GetAnimatorControllerInternal_m2390544595
B4d:__ZN5physx2Sc24ConstraintProjectionTree11projectPoseERNS0_19ConstraintGroupNodeE
rVb:__ZL26Transfer_SimpleNativeClassI17RemapPPtrTransfer8GradientLb0EEvRK29SerializationCommandArgumentsR31RuntimeSerializationCommandInfo
E$k:__ZThn8_N6il2cpp2vm13CachedCCWBaseINS0_13ManagedObjectEE7ReleaseEv
dBf:_SyncHashtable_Add_m3016107307
Osf:_Boolean_Equals_m2410333903_AdjustorThunk
SAg:_List_1_System_Collections_IList_Contains_m2131605266_gshared
vne:__ZN13PhysicsModule29GetColliderMaterialInstanceIDER8Collider
J3:__ZN13UploadHandlerD2Ev
xsm:dynCall_viiiiiffi
Tgm:_SystemInfo_get_operatingSystemFamily_m846124428
hd:_emscripten_glBlendFuncSeparate
lKg:_Collection_1_Add_m809543251_gshared
daa:__Z20scripting_string_newPKc
Sxc:__Z43Material_CUSTOM_Internal_CreateWithMaterialP12Il2CppObjectS0_
yQi:_Parser_IsSingleline_m326238187
Wyf:_CollectionBase_get_Count_m1708965601
tUe:_HMAC__ctor_m97939284
Dhl:_Matrix4x4_Equals_m2121237340_AdjustorThunk
DQk:__ZNK24NamespaceAndNamePairHashclERKNSt3__24pairIPKcS3_EE
yHi:_ValueType_DefaultEquals_m2927252100
F0g:_ASN1_ToString_m1340204511
fJi:_X509Store_get_Certificates_m2149701265
fDi:_Type_GetField_m2961003358
wmh:_EditorBrowsableAttribute_GetHashCode_m123071459
JL:__ZN6Avatar23VirtualRedirectTransferER17RemapPPtrTransfer
s2l:__ZL144StandaloneInputModule_t2760469101_CustomAttributesCacheGenerator_StandaloneInputModule_t2760469101____allowActivationOnMobileDevice_PropertyInfoP21CustomAttributesCache
C8d:__ZThn8_N5physx2Gu11HeightFieldD1Ev
Dwi:_StringBuilder_set_Chars_m3548656617
KAk:__ZN6il2cpp2os4File17GetFileAttributesERKNSt3__212basic_stringIcNS2_11char_traitsIcEENS2_9allocatorIcEEEEPi
ydd:__ZNK5physx19PxArticulationJoint19getConcreteTypeNameEv
NG:__ZNSt3__26__sortIRPFbPKN8Animator11AnimatorJobES4_EPS4_EEvT0_S9_T_
qT:__ZN17AudioCustomFilterD2Ev
GR:__Z91Register_UnityEngine_Animations_AnimatorControllerPlayable_INTERNAL_CALL_ResetTriggerStringv
RYj:_X509CertificateCollection_GetEnumerator_m92169144
A9g:_ARC4Managed_GenerateKey_m1607343060
V2h:__Z78RuntimeInvoker_Void_t1185182177_PlayableHandleU26_t645981773_Double_t594665363PFvvEPK10MethodInfoPvPS4_
PWi:_WebHeaderCollection_checkName_m1344657992
cCc:__ZNK8GUIStyle13GetLineHeightEv
LSa:__ZN18GfxFramebufferGLES18ReleaseFramebufferEP17RenderSurfaceBaseP14GfxContextGLES
Fic:__ZN13ProduceHelperI6CameraLb0EE7ProduceE18MemLabelIdentifier18ObjectCreationMode
f5:__ZN19CloudServiceHandler34HandleSaveFileWebRequestPlayerLoopEv
VC:__ZN7mecanim21ValueArrayReverseCopyEPKNS_18ValueArrayConstantEPKNS_10ValueArrayES2_PS3_PKi
bT:__Z31GetParentSampleClipFromInstancePN11SoundHandle8InstanceE
ucc:__ZNK28RectTransformPropertyBinding13GetFloatValueERKN11UnityEngine9Animation10BoundCurveE
Xgb:__ZN6Camera22StandaloneCustomRenderENS_10RenderFlagEP6ShaderRKN4core12basic_stringIcNS3_20StringStorageDefaultIcEEEEPNS_21PerformRenderFunctionE
YWf:_Array_InternalArray__IndexOf_TisKeyValuePair_2_t2401056908_m4118889689_gshared
fCd:__ZL22addOrRemoveRigidObjectILb0ELb0ELb0ELb1EN5physx3Scb11RigidStaticEEvRNS0_2Sc5SceneERT3_b
e7k:__ZN6il2cpp2os16ThreadLocalValue8GetValueEPPv
$qh:_X509Certificate2_get_PublicKey_m370665820
IXj:_AsyncResult_AsyncProcessMessage_m2076471000
Jd:_glUniform1uiv
Lzc:__Z52Object_CUSTOM_GetOffsetOfInstanceIDInCPlusPlusObjectv
O6c:__ZN5physx6shdfnd4sortIPvNS0_4LessIS2_EENS0_19ReflectionAllocatorINS_2Cm5BlockIS2_Lj8EEEEEEEvPT_jRKT0_RKT1_j
Zmd:__ZNK5physx9NpPhysics11getNbShapesEv
rq:setThrew
Pfc:__ZL21BuildEmptyCubeTexturePKci11ColorRGBA3217TextureColorSpace
z3b:__ZN14SafeBinaryRead21TransferSTLStyleArrayINSt3__26vectorIN9ShaderLab20SerializedSubProgramENS1_9allocatorIS4_EEEEEEvRT_17TransferMetaFlags
uXf:_Array_InternalArray__IndexOf_TisX509ChainStatus_t133602714_m48896230_gshared
SJc:__Z15Transfer_StringI8JSONReadLb1EEvRK29SerializationCommandArgumentsR31RuntimeSerializationCommandInfo
qem:_Vector2_op_Implicit_m1304503157
Uya:__ZN6prcoreL17RemapGenericFloatI17TexFormatRGBFloat15TexFormatRGHalfEEvPKNS_9InnerInfoE
e8a:__Z25DoForwardShaderRenderLoopR17RenderLoopContextR13dynamic_arrayI16RenderObjectDataLj4EERK11CullResultsbbbN6Camera10RenderFlagE
A2e:_String_IndexOf_m3406607758
yve:_sfnt_load_face
Ire:_UNITY_FT_Render_Glyph_Internal
s9j:_GameObject_GetComponents_TisRuntimeObject_m2246329454_gshared
pve:_UNITY_ft_service_list_lookup
FBc:__ZN5IMGUI21SelectReceivingWindowER8GUIStateb
JUe:_HMAC_Initialize_m3157696427
XRc:__ZN5physx2Gu20intersectTriangleBoxERKNS_6PxVec3ES3_S3_S3_S3_
NO:__ZNK26AnimatorControllerPlayable17ValidateGoToStateERiS0_
Uld:__ZN5physx10NpMaterial8setFlagsENS_7PxFlagsINS_14PxMaterialFlag4EnumEtEE
Bob:__ZN13BaseAllocator13TryDeallocateEPv
lJi:_X509SubjectKeyIdentifierExtension__ctor_m2055934916
Tdl:_GUIStyle_set_overflow_m935744454
atb:__ZNSt3__26vectorIN12FlareManager10FlareEntryENS_9allocatorIS2_EEE21__push_back_slow_pathIKS2_EEvRT_
Gnm:_sprintf
p3g:_PrivateKeyInfo_DecodeRSA_m2889346634
NT:__ZN13AudioListener17RemoveFromManagerEv
ce:_glAttachShader
Adf:_ContentSizeFitter_SetLayoutHorizontal_m2833273874
mie:__ZN5physx6shdfnd8internal8HashBaseINS0_4PairIKtPKcEEtNS0_4HashItEENS1_11HashMapBaseItS6_S9_NS_7profile26WrapperReflectionAllocatorIS6_EEE6GetKeyESD_Lb1EE6createERS4_Rb
H5a:__ZNK6Camera19GetProjectionMatrixEv
rHd:__ZNK5physx7NpScene24getWakeCounterResetValueEv
D4l:__ZL70InputField_t3762917431_CustomAttributesCacheGenerator_m_SelectionColorP21CustomAttributesCache
qlf:_InputField_SetToCustomIfContentTypeIsNot_m2813459946
a_l:__ZL70RuntimePlatform_t4159857903_CustomAttributesCacheGenerator_FlashPlayerP21CustomAttributesCache
kDc:__Z33GUI_CUSTOM_INTERNAL_CALL_DoButtonRK5RectTIfEP12Il2CppObject13Il2Cpp_IntPtr
Pag:_Guid_GetHashCode_m3042133858_AdjustorThunk
JYd:__ZN5physx2Gu32PCMConvexVsMeshContactGeneration20generateLastContactsEv
Xba:__Z38PreallocateObjectFromPersistentManagerib
tim:_TextEditor_SelectTextStart_m2956527974
cmd:__ZThn12_N5physx10NpMaterialD0Ev
KKi:_Interpreter_Backtrack_m2828876822
Y5:__GLOBAL__sub_I_runtime_interfaces_lump_cpp
ozb:__ZNK9Texture2D20GetUnscaledTextureIDEv
Nsi:_SByte_System_IConvertible_ToType_m4075253447
r4g:_StrongName_get_PublicKey_m1841537984
lce:__ZN5physx6shdfnd4sortIjNS_19SortBoundsPredicateENS0_19ReflectionAllocatorIjEEEEvPT_jRKT0_RKT1_j
GAm:_glFenceSync__wrapper
JR:__Z103Register_UnityEngine_Animations_AnimatorControllerPlayable_INTERNAL_CALL_IsParameterControlledByCurveIDv
Cod:__ZN5physx7NpShape14onRefCountZeroEv
xmf:_InputField_IsValidChar_m1928072643
Kbe:__ZL15TestContainmentRKN5physx6PxVec3EPKfjPKNS_2Gu15HullPolygonDataE
tzb:__ZNK9Texture2D26CanReuploadDataToGfxDeviceEv
l2b:__ZN18StreamedBinaryReadILb0EE21TransferSTLStyleArrayI13dynamic_arrayI4AABBLj4EEEEvRT_17TransferMetaFlags
SAl:__ZL63CodeAccessPermission_t2681295399_CustomAttributesCacheGeneratorP21CustomAttributesCache
eCa:__Z29ClearRepeatingLogMessageStatev
KKj:_InternalEnumerator_1_get_Current_m3191242573_gshared
Utf:_Byte_Equals_m1161982810_AdjustorThunk
EZk:__ZN6il2cpp2vm6String6NewLenEPKcj
L8d:__ZN5physx2Gu11HeightField12loadFromDescERKNS_17PxHeightFieldDescEb
pha:__ZN21EnlightenSceneMappingaSERKS_
_5i:_OpCode_get_StackBehaviourPush_m986094870_AdjustorThunk
BXa:__ZN7ApiGLESD2Ev
Wjj:_AsyncOperation_InternalDestroy_m2288495658
Iib:__ZN9Transform47ClearTransformHierarchyAndApplyToSerializedDataEv
xEd:__ZN5physx6shdfnd8PoolBaseINS_2Gu30LargePersistentContactManifoldENS0_19ReflectionAllocatorIS3_EEE12allocateSlabEv
Jmf:_InputField_IsSelectionVisible_m3622592134
tmb:__ZN17PersistentManager9AddStreamEv
Uum:dynCall_fidi
B3i:_TypeBuilder_IsDefined_m1289323273
OEc:__Z47Register_UnityEngine_GUIStyle_set_imagePositionv
N0d:__ZN5physx20getVertexEdgeIndicesERKNS_2Gu11HeightFieldEjjjPNS_8EdgeDataE
pEc:__Z49GUIStyle_CUSTOM_INTERNAL_CALL_Internal_DrawCursor13Il2Cpp_IntPtrRK5RectTIfEP12Il2CppObjectiRK10ColorRGBAf
DJd:__ZN5physx6shdfnd5ArrayIPNS_2Sc8BodyCoreENS0_19ReflectionAllocatorIS4_EEE6resizeEjRKS4_
t_c:__ZN5physx3Cct26CharacterControllerManager16createControllerERNS_9PxPhysicsEPNS_7PxSceneERKNS_16PxControllerDescE
Z5k:__ZN6il2cpp6icalls6System6System14ComponentModel14Win32Exception15W32ErrorMessageEi
$oc:__ZNK13MonoBehaviour13GetScriptTypeEv
Oqa:__ZN13RenderTexture12SetDimensionE16TextureDimension
l1g:_DSAManaged_add_KeyGenerated_m2286864968
Ue:_SDL_FreeRW
KMd:__ZN5physx6shdfnd8PoolBaseINS_2Cm5BlockIhLj128EEENS0_19ReflectionAllocatorIS4_EEE15disposeElementsEv
hJe:__Z34CanvasRenderer_Get_Custom_PropCullP12Il2CppObject
Owd:__ZN5physx3Scb14ParticleSystem14setRestOffsetsEjRKNS_16PxStrideIteratorIKjEERKNS2_IKfEE
zfe:__ZN12MeshCollider11CreateShapeEPvPK9RigidbodyRK8Vector3f
oY:__ZN20SoundChannelInstance8getDelayE14FMOD_DELAYTYPEPjS1_
ctj:_InvokableCall__ctor_m616326848
cEj:_ArrayReadOnlyList_1_Contains_m232667507_gshared
g9j:_ScriptableObject_CreateInstance_TisRuntimeObject_m3068602743_gshared
SXh:__Z77RuntimeInvoker_Boolean_t97287965_IntPtr_t_Int32_t2950945753_SByte_t1669577662PFvvEPK10MethodInfoPvPS4_
xqe:__ZNSt3__26vectorIN20TextRenderingPrivate8FontImpl13CharacterInfoE13stl_allocatorIS3_L18MemLabelIdentifier1ELi16EEE8__appendEj
ljg:_Stream_Dispose_m2589290611
v:tempBigInt
p$f:_Array_InternalArray__Insert_TisKeyframe_t4206410242_m1558638568_gshared
af:_emscripten_glVertexAttrib1fv
d4b:__ZNSt3__26vectorIN9ShaderLab20SerializedSubProgram12UAVParameterENS_9allocatorIS3_EEE7reserveEj
v7g:_BigInteger__ctor_m2644482640
orm:__ZSt11__terminatePFvvE
rId:__ZN5physx13NpVolumeCacheC2EPNS_2Sq17SceneQueryManagerEjj
K7c:__ZThn24_N5physx2Sc20ArticulationJointSimD1Ev
phm:_TextEditor_MoveUp_m4121125103
ZV:__ZN12AudioManager14systemCallbackEP11FMOD_SYSTEM24FMOD_SYSTEM_CALLBACKTYPEPvS3_
ZTg:_ReadOnlyCollection_1_System_Collections_Generic_ICollectionU3CTU3E_Clear_m3451551308_gshared
wbf:_BaseMeshEffect_OnEnable_m3291426649
XR:__ZN10SampleClip23VirtualRedirectTransferER24GenerateTypeTreeTransfer
Pwd:__ZN5physx2Sc18ParticleSystemCore14setRestOffsetsEjRKNS_16PxStrideIteratorIKjEERKNS2_IKfEE
mSc:__ZN5physx2Gu16testPolyDataAxisERKNS0_8CapsuleVERKNS0_13PolygonalDataEPNS0_12SupportLocalERKNS_6shdfnd3aos6FloatVERSB_RNSA_5Vec3VE
jgb:__ZN16ReflectionProbes16UpdateSampleDataEv
Bad:__ZN5physx2Sc17ParticleSystemSimD0Ev
$Qb:__ZN14SafeBinaryRead21TransferSTLStyleArrayI10vector_setI4PPtrI10MonoScriptENSt3__24lessIS4_EE13stl_allocatorIS4_L18MemLabelIdentifier76ELi16EEEEEvRT_17TransferMetaFlags
xLc:__ZN8JSONRead21TransferSTLStyleArrayINSt3__26vectorI10RectOffset13stl_allocatorIS3_L18MemLabelIdentifier1ELi16EEEEEEvRT_S5_17TransferMetaFlags
xdb:__Z20AddActiveLocalLightsR11CullResultsR27LocalLightCullingParametersPPK15SharedLightDataPK8Vector4fRK9IndexListPfRSA_R12ActiveLightsSG_P5RectTIfEP13TargetEyeMask
lsl:__ZL80Hashtable_t1853889766_CustomAttributesCacheGenerator_Hashtable__ctor_m1763145853P21CustomAttributesCache
qFa:__ZN14BatchAllocator6CommitE18MemLabelIdentifier
bMg:_Collection_1__ctor_m3489157029_gshared
aym:_emscripten_glRenderbufferStorage__wrapper
Mpj:_Color_op_Multiply_m69884213
yf:_JS_Sound_Play
Wwl:__ZL56_MethodBuilder_t600455149_CustomAttributesCacheGeneratorP21CustomAttributesCache
WUg:_ReadOnlyCollection_1_System_Collections_IList_set_Item_m1538987737_gshared
RQj:_DefaultComparer_Compare_m1920986590_gshared
$Yi:_WebSocketFrame_dump_m1260598339
a3b:__ZN9ShaderLab16SerializedShader8TransferI14SafeBinaryReadEEvRT_
Cif:_GridLayoutGroup_set_constraint_m3308895167
Kki:_ConstructionCallDictionary_SetMethodProperty_m3145285304
Mcg:_Int32_System_IConvertible_ToUInt32_m3557270157
R_h:__Z243RuntimeInvoker_Void_t1185182177_Int16_t2552820387_RuntimeObject_Int32_t2950945753_Int32_t2950945753_Int32_t2950945753_SByte_t1669577662_SByte_t1669577662_SByte_t1669577662_SByte_t1669577662_Int16_t2552820387_SByte_t1669577662_SByte_t1669577662PFvvEPK10MethodInfoPvPS4_
fFj:_InternalEnumerator_1_System_Collections_IEnumerator_get_Current_m1503522504_gshared
fG:__ZN7mecanim8skeleton13SkeletonAlignEPKNS0_8SkeletonERKN4math7_float4ES7_i
Igc:__ZN19ShaderPropertySheet16SetVectorIndexedEN9ShaderLab16FastPropertyNameEifRK8Vector4fNS_8SetFlagsE
zCi:_Type_get_IsAbstract_m1120089130
Kr:__ZN14SafeBinaryRead21TransferSTLStyleArrayIN4core12basic_stringIcNS1_20StringStorageDefaultIcEEEEEEvRT_17TransferMetaFlags
fSi:_UriFormatException__ctor_m1115096473
moh:_Dns_GetHostEntry_m3727355895
yJk:__ZN15dense_hashtableINSt3__24pairIK10KeyWrapperINS1_IP11Il2CppClassjEEES4_EES6_N6il2cpp8metadata14ArrayClassHashEN14dense_hash_mapIS6_S4_SB_NS6_14EqualsComparerINSA_17ArrayClassCompareEEENS0_9allocatorIS8_EEE9SelectKeyESF_SH_E9copy_fromERKSK_j
O4:__ZN11UnityEngine15CloudWebService14DataDispatcher4StopEv
Hbg:_Int16_System_IConvertible_ToUInt64_m134975563
f4b:__ZNSt3__26vectorIN9ShaderLab20SerializedSubProgram12UAVParameterENS_9allocatorIS3_EEE8__appendEj
wBc:__ZN5IMGUI9GUIWindow5OnGUIER8GUIState
flm:_Vector2_set_Item_m1664083694_AdjustorThunk
a1e:_Single_System_IConvertible_ToDecimal_m325860800_AdjustorThunk
YZf:_Array_InternalArray__ICollection_CopyTo_TisSingle_t1397266774_m455540885_gshared
yta:__ZN17ScriptingGCHandle7AcquireE18ScriptingObjectPtr25ScriptingGCHandleWeakness
K$:__ZN19AudioPlayableOutputC2EjP13PlayableGraph
j_h:__Z74RuntimeInvoker_RuntimeObject_RuntimeObject_Int64_t3736567304_RuntimeObjectPFvvEPK10MethodInfoPvPS4_
Jgd:__ZN5physx12NpConstraint8comShiftEPNS_12PxRigidActorE
ygj:_AnimatorControllerPlayable_GetLayerWeightInternal_m396188831
Npk:__ZN14dense_hash_mapI10KeyWrapperIPK11Il2CppClassEPKcN6il2cpp5utils11PointerHashIS1_EENS4_14EqualsComparerINSt3__28equal_toIS3_EEEENSC_9allocatorINSC_4pairIKS4_S6_EEEEE13set_empty_keyERSI_
vtm:dynCall_iifiii
v4j:_HashSet_1__ctor_m620629637_gshared
KDa:__Z21HasAlphaTextureFormat13TextureFormat
O_:__ZN12AudioManager6UpdateEv
FDa:__ZN14ImageReference9BlitImageERKS_NS_8BlitModeE
_Xg:_Func_1_Invoke_m3093923125_gshared
Ex:__ZN8Animator12AddToManagerEv
Nqh:_X509Chain__ctor_m2674663382
mRc:__ZNK5physx2Gu16SupportLocalImplINS0_11ConvexHullVEE9doSupportERKNS_6shdfnd3aos5Vec3VERNS5_6FloatVESA_
TPb:__ZN23CachedSerializationDataD2Ev
Pfb:__ZNK25CameraStackRenderingState31CalculateStereoCameraTargetTypeEv
Xwb:__ZN14RenderSettings23VirtualRedirectTransferER14SafeBinaryRead
SNj:_InternalEnumerator_1_get_Current_m114240259_gshared
RWk:__ZN6il2cpp2os10ThreadImpl15CurrentThreadIdEv
pmj:_Bounds_set_size_m1025767497
A$f:_Array_InternalArray__Insert_TisVector2_t2156229523_m2148694950_gshared
qBf:_Queue_CopyTo_m737385843
hZe:_SymmetricAlgorithm_get_Key_m3241860519
rnf:_U3CMouseDragOutsideRectU3Ec__Iterator1_Reset_m2233410497
GLj:_InternalEnumerator_1_get_Current_m1909182215_gshared
DDe:_UNITY_tt_face_load_fpgm
EKb:__ZN12InputManagerD0Ev
vEg:_Queue_1_Peek_m1713833142_gshared
n5k:__ZN6il2cpp6icalls8mscorlib6System11Diagnostics10StackTrace9get_traceEP15Il2CppExceptionib
$yi:_ExecutionContext_Capture_m681135907
fhd:__ZN5physx2Sc9RigidCore20removeShapeFromSceneERNS0_9ShapeCoreEb
T0b:__Z18Transfer_BlittableI18StreamedBinaryReadILb0EELb1EtEvRK29SerializationCommandArgumentsR31RuntimeSerializationCommandInfo
HGj:_InternalEnumerator_1_System_Collections_IEnumerator_get_Current_m2889979481_AdjustorThunk
iqm:_posix_memalign
Ygc:__ZN13ProduceHelperI12MeshRendererLb0EE7ProduceE18MemLabelIdentifier18ObjectCreationMode
gce:__ZN5physx11RTreeCooker18buildFromTrianglesERNS_2Gu5RTreeEPKNS_6PxVec3EjPKtPKjjRNS_6shdfnd5ArrayIjNSB_19ReflectionAllocatorIjEEEEPNS0_13RemapCallbackEfNS_17PxMeshCookingHint4EnumE
qbd:__ZN5physx6shdfnd5ArrayIPvNS0_15InlineAllocatorILj256ENS0_19ReflectionAllocatorINS_14NpArticulationEEEEEE15growAndPushBackERKS2_
z5j:_AesManaged_GenerateKey_m2004209814
C0g:_ASN1_GetBytes_m3305539297
T8j:_Component_GetComponentInChildren_TisRuntimeObject_m3600364750_gshared
ada:__ZNK15MonoScriptCache7ReleaseEv
jok:__ZN6il2cpp2vm5Class13HasReferencesEP11Il2CppClass
n_d:__ZN5physx9PxTaskMgrC2EPNS_15PxCpuDispatcherEPNS_15PxGpuDispatcherEPNS_15PxSpuDispatcherE
Mg:_glBindTexture
yom:_snprintf
zZf:_Array_InternalArray__ICollection_CopyTo_TisKeyValuePair_2_t2401056908_m4025041902_gshared
qzm:_emscripten_glVertexAttrib1fv__wrapper
efc:__ZN13ProduceHelperI30RuntimeInitializeOnLoadManagerLb0EE7ProduceE18MemLabelIdentifier18ObjectCreationMode
RAa:__Z36scripting_liveness_calculation_begin17ScriptingClassPtriPFvPP12Il2CppObjectiPvES3_PFvvES7_
h9k:_Gradient__ctor_m3489855449
wVa:__ZN16UniformCacheGLES6CreateERK20GpuProgramParameters
aK:__ZN7mecanim12statemachine13StateConstant8TransferI24GenerateTypeTreeTransferEEvRT_
Qxm:_emscripten_glGetProgramInfoLog__wrapper
UM:__ZN25AnimatedPropertyEvaluator29BindCurveToScriptingObjectPtrERKN13AnimationClip10FloatCurveEj18ScriptingObjectPtrb
Wea:__ZN17PersistentManager23DestroyFromFileInternalEi
IQg:_ReadOnlyCollection_1_System_Collections_Generic_IListU3CTU3E_Insert_m1020890112_gshared
yef:_DefaultControls_SetDefaultTextValues_m1943359795
q8a:__Z19SetupMotionMatricesR6CameraR18RPDataMotionVector
Qlk:__ZL7log2_64y
Amh:_TypeConverterAttribute_Equals_m1580461255
uH:__ZN26AnimatorControllerPlayable18PrepareForPlaybackERN7mecanim6memory9AllocatorE
xif:_GridLayoutGroup_get_cellSize_m2967185053
vQd:__ZN5physx19PxsMaterialCombiner24combineIsotropicFrictionERKNS_15PxsMaterialDataES3_
AYj:_PKCS12_Decrypt_m1280162536
QGj:_InternalEnumerator_1_get_Current_m3081223448_gshared
$sj:_BaseInvokableCall_AllowInvoke_m1250801794
nkl:_Physics_Raycast_m3501191919
sua:__ZN22CreateGpuProgramOutputC2Ev
dsf:_Boolean_System_IConvertible_ToChar_m4279513009_AdjustorThunk
jlh:_DictionaryNodeEnumerator__ctor_m1005316675
EOl:__ZL85Object_t631007953_CustomAttributesCacheGenerator_Object_FindObjectsOfType_m2898745631P21CustomAttributesCache
Vki:_LogicalCallContext__ctor_m1263247987
W7f:_NumberFormatter_ScaleOrder_m3813786990
pil:_Mesh_SetNormals_m404565226
q3g:_PrivateKeyInfo_DecodeDSA_m771724585
oae:__ZN5physx7Cooking16cookTriangleMeshERKNS_18PxTriangleMeshDescERNS_14PxOutputStreamE
MLe:__Z38CustomEventData_CUSTOM_InternalDestroyP12Il2CppObject
hme:__ZN14CompletionTask4InitEPN5physx7PxSceneE
C8c:__ZN5physx2Sc7ElementD0Ev
kFi:_UInt32_System_IConvertible_ToSByte_m1061556466
Nce:__ZN5physx6shdfnd10Foundation7releaseEv
fpi:_WellKnownClientTypeEntry__ctor_m2471908952
bd:invoke_vidi
Yog:_NumberFormatter_FormatRoundtrip_m19342689
Loi:_RemotingServices_CreateClientProxyForContextBound_m783705199
Iqf:_Array_slow_swapper_m4116724811
oHe:__ZN2UI14CanvasRenderer17SyncDirtyElementsER8JobFence
qzh:_Enumerator_System_Collections_IEnumerator_get_Current_m3816090481_gshared
i_k:__ZN6il2cpp5utils11StringUtils15StringDuplicateEPKc
DTi:_Ext_IsToken_m1594326505
Ohb:__Z15CanAddComponentR10GameObjectPKN5Unity4TypeE
Lta:__ZNK9ShaderLab21ShaderRasterStateDesc16ToGfxRasterStateEPK19ShaderPropertySheetS3_R14GfxRasterState
G2f:_Array_Sort_TisVector3_t3722313464_m1915176437_gshared
l7k:__ZN6il2cpp2os9EventImplC2Ebb
Oxg:_List_1_get_Item_m2113769949_gshared
Duj:_MaskableGraphic_OnTransformParentChanged_m329502413
afc:__ZN13HandleManagerC2Ev
Q7:__Z20IsMatrixBuiltinParamPKcPi
uqh:_SslStream_BeginWrite_m831482228
A_e:_String_memcpy4_m979367827
cxi:_UnicodeEncoding_GetBytesInternal_m1902824297
pgc:__ZN8Renderer19PostInitializeClassEv
qWf:_Array_FindIndex_TisRuntimeObject_m2504082708_gshared
y_j:_X509Chain_FindCertificateRoot_m1937726457
B3k:__ZN6il2cpp6icalls8mscorlib6System8Delegate23CreateDelegate_internalEP20Il2CppReflectionTypeP12Il2CppObjectP22Il2CppReflectionMethodb
pAh:_Enumerator_System_Collections_IEnumerator_get_Current_m921113401_AdjustorThunk
hPb:__ZN18DelayedCallManager18CancelCallDelayed2E4PPtrI6ObjectEPF15CallObjectStatePS1_PvES7_
iMh:_Dictionary_2_InitArrays_m2036227893_gshared
Gob:__ZN25ThreadsafeLinearAllocator10ReallocateEPvji
GRb:__Z18Transfer_BlittableI14SafeBinaryReadLb1E11QuaternionfEvRK29SerializationCommandArgumentsR31RuntimeSerializationCommandInfo
Med:__ZNK5physx18PxArticulationLink8isKindOfEPKc
Jla:__ZN18SpriteAtlasManagerD0Ev
Cme:__Z25CreatePxMeshFromUnityMeshP4MeshbbRK10Matrix4x4f13TransformTypef
SFb:__ZN10Matrix4x4f8TransferI14SafeBinaryReadEEvRT_
mn:FUNCTION_TABLE_vifiiiiiiiiiiiiiiiiii
At:__ZN15SerializeTraitsI13dynamic_arrayIN11UnityEngine9Animation14GenericBindingELj4EEE19ResizeSTLStyleArrayERS4_i18MemLabelIdentifier
Kti:_CryptographicUnexpectedOperationException__ctor_m2381988196
KHk:__ZN14dense_hash_mapI10KeyWrapperIPK22Il2CppGenericParameterEPK24MonoGenericParameterInfoN6il2cpp5utils11PointerHashIS2_EENS4_14EqualsComparerINSt3__28equal_toIS3_EEEENSD_9allocatorINSD_4pairIKS4_S7_EEEEE15set_deleted_keyERSJ_
DJj:_InternalEnumerator_1_System_Collections_IEnumerator_get_Current_m4213507601_gshared
nfa:__Z6AppendRKN4core12basic_stringIcNS_20StringStorageDefaultIcEEEEPKc
BFf:_Convert_ToDouble_m996590115
d_b:__Z18Transfer_BlittableI18StreamedBinaryReadILb1EELb0E8Vector3fEvRK29SerializationCommandArgumentsR31RuntimeSerializationCommandInfo
msj:_Event_Cleanup_m1044305745
Bff:_Dropdown_AddOptions_m3385413238
tsc:__Z37Camera_Get_Custom_PropAllCamerasCountv
jFb:__ZN14Texture2DArray8TransferI18StreamedBinaryReadILb0EEEEvRT_
gid:__ZN5physx15NpActorTemplateINS_18PxArticulationLinkEED2Ev
Lcb:__Z18ApplyOcclusionMaskR19ProbeOcclusionCacheRK17LightProbeContextRK10RenderNodeb
eye:_Split_Cubic
rb:invoke_fiiii
Xmf:_InputField_OnSubmit_m3583210804
v2l:__ZL79TouchInputModule_t4248229598_CustomAttributesCacheGenerator_m_ForceModuleActiveP21CustomAttributesCache
M9k:_GUI_HandleTextFieldEventForTouchscreen_m513356245
jme:__Z19ExtractDataFromMeshR4MeshR13dynamic_arrayI8Vector3fLj4EERS1_ItLj2EES6_
Ftm:dynCall_viiiiiiffii
iRi:_Uri_CheckHostName_m2213216182
h6k:__ZN6il2cpp2vm14MetadataLoader16LoadMetadataFileEPKc
nzm:_emscripten_glBindRenderbuffer__wrapper
K9g:_HMAC_set_Key_m3535779141
hFc:__Z64Register_UnityEngine_GUIStyle_GetFontInternalDuringLoadingThreadv
Kwf:_ArrayListWrapper_Contains_m2641184447
Sxe:_ft_black_render
v5f:_Array_InternalArray__get_Item_TisResourceInfo_t2872965302_m3865610257_gshared
$um:dynCall_viiifi
nSa:__ZN18GfxFramebufferGLES20ActiveContextChangedEPP17RenderSurfaceBaseS2_
jSa:__Z19PluginsRenderMarkeri
HN:__ZN10HumanTrait18InitializeBoneNameEv
QLj:_InternalEnumerator_1_get_Current_m1698047500_gshared
xRk:__ZNSt3__214__split_bufferIN6il2cpp2vm5Image20EmbeddedResourceDataERNS_9allocatorIS4_EEEC2EjjS7_
zrd:__ZNK5physx7NpCloth25getNbSelfCollisionIndicesEv
PTi:_Ext_Upgrades_m3959282879
r$g:_Kernel_multiByteDivide_m4249920547
zT:__ZN12AudioManager17RemoveAudioSourceEP11AudioSource
Urj:_Display_RelativeMouseAtImpl_m375710204
hsh:_X509Certificate2Collection_Add_m3151757943
xxh:_Comparer_1__cctor_m951016718_gshared
Eyf:_CaseInsensitiveHashCodeProvider_get_DefaultInvariant_m4264275163
EXh:__Z195RuntimeInvoker_Int32_t2950945753_RuntimeObject_Int32_t2950945753_Int32_t2950945753_Int32_t2950945753_RuntimeObject_DecoderFallbackBufferU26_t3866396827_ByteU5BU5DU26_t4057885439_SByte_t1669577662PFvvEPK10MethodInfoPvPS4_
PHd:__ZN5physx2Sc5Scene22setNbContactDataBlocksEj
qdc:__ZN13ProduceHelperI14SpriteRendererLb0EE7ProduceE18MemLabelIdentifier18ObjectCreationMode
D0:__ZN5physx14PxLightCpuTask12addReferenceEv
sdi:__Z86RuntimeInvoker_Int32_t2950945753_Color32_t2600501292_Color32_t2600501292_RuntimeObjectPFvvEPK10MethodInfoPvPS4_
pBb:__ZN21EnlightenSceneMapping8TransferI19StreamedBinaryWriteILb0EEEEvRT_
JTk:__ZN6il2cpp2gc16GarbageCollector19InitializeFinalizerEv
QRg:_ReadOnlyCollection_1_System_Collections_Generic_IListU3CTU3E_RemoveAt_m8081639_gshared
XC:__ZN7mecanim8skeleton18CreateSkeletonMaskEjPKNS0_19SkeletonMaskElementERNS_6memory9AllocatorE
jBc:__ZN10GUIManager10DoGUIEventER10InputEventb
FWb:__Z35Transfer_Blittable_FixedBufferFieldI24GenerateTypeTreeTransferxEvRK29SerializationCommandArgumentsR31RuntimeSerializationCommandInfo
S$f:_Array_InternalArray__set_Item_TisLink_t544317964_m1234244240_gshared
R8:__Z20CalculateSqrDistanceRK8Vector3fRK4AABB
$me:__ZN14PhysicsManager15ProcessContactsEv
Dri:_SerializationInfo_GetBoolean_m1756153320
SVc:__ZN21BoxTraceSegmentReport7onEventEjPj
ted:__ZN5physx2Sc21ArticulationJointCore13setSwingLimitEff
pX:__Z32AudioMixerDuckingProcessCallbackP21UnityAudioEffectStatePfS1_jii
DRc:__ZL20HullProjectionCB_BoxRKN5physx2Gu13PolygonalDataERKNS_6PxVec3ERKNS_2Cm8Matrix34ERKNS7_23FastVertex2ShapeScalingERfSE_
sfc:__ZN26CustomRenderTextureManagerD2Ev
I0j:_EqualityComparer_1_System_Collections_IEqualityComparer_Equals_m4172006498_gshared
nWd:__ZN5physx14PxsAABBManager21selfCollideAggregatesEPKNS_19AggregateSortedDataE
fU:__ZN12AudioManager8TransferI24GenerateTypeTreeTransferEEvRT_
txa:__Z25GetBytesFromTextureFormat13TextureFormat
v2d:__ZN5physx12_GLOBAL__N_112innerProductERKNS_14Px1DConstraintERS1_RKNS0_9MassPropsE
amh:__KeysEnumerator_get_Current_m2996478063
utm:dynCall_iifff
uj:_emscripten_webgl_init_context_attributes
_t:__Z14resize_trimmedINSt3__26vectorIN13AnimationClip9PPtrCurveE13stl_allocatorIS3_L18MemLabelIdentifier25ELi16EEEEEvRT_j
NM:__ZN16MecanimAnimation25RegisterIAnimationBindingEPKN5Unity4TypeEiP17IAnimationBinding
Yca:__Z32scripting_class_get_assemblyname17ScriptingClassPtr
bNe:__ZN11UnityEngine15PlatformWrapper15GetVRDeviceNameEv
N8h:__Z99RuntimeInvoker_Boolean_t97287965_Int32_t2950945753_PointerEventDataU26_t867828220_SByte_t1669577662PFvvEPK10MethodInfoPvPS4_
BSd:__ZN5physx26PxcFrictionPatchStreamPairC2ERNS_17PxcNpMemBlockPoolE
jIj:_InternalEnumerator_1_get_Current_m2128158355_AdjustorThunk
EWa:__ZN9GfxDevice21RegisterNativeTextureE9TextureIDi16TextureDimension
mhf:_GraphicRegistry__ctor_m1851575309
C4k:__ZN6il2cpp6icalls8mscorlib6System10Reflection4Emit11TypeBuilder20create_generic_classEP27Il2CppReflectionTypeBuilder
YXe:_SHA1Internal_FillBuff_m3615718415
Bj:_emscripten_glUniformMatrix4fv
NJk:__ZN15dense_hashtableINSt3__24pairIK10KeyWrapperINS1_IP11Il2CppClassjEEES4_EES6_N6il2cpp8metadata14ArrayClassHashEN14dense_hash_mapIS6_S4_SB_NS6_14EqualsComparerINSA_17ArrayClassCompareEEENS0_9allocatorIS8_EEE9SelectKeyESF_SH_E13set_empty_keyERKS8_
_7b:__ZN12ScriptMapperD2Ev
Jge:__ZN9Rigidbody13AwakeFromLoadE17AwakeFromLoadMode
ysi:_SByte_System_IConvertible_ToDateTime_m1659899958
U0k:_GC_stopped_mark
XWl:__ZL58FocusType_t718022695_CustomAttributesCacheGenerator_NativeP21CustomAttributesCache
_jd:__ZNK5physx14NpSceneQueries10multiQueryINS_12PxOverlapHitEEEbRKNS_15MultiQueryInputERNS_13PxHitCallbackIT_EENS_7PxFlagsINS_9PxHitFlag4EnumEtEEPKNS_12PxQueryCacheERKNS_17PxQueryFilterDataEPNS_21PxQueryFilterCallbackEPNS_20BatchQueryFilterDataE
Yji:__Z50RuntimeInvoker_RuntimeObject_ColorTween_t809614380PFvvEPK10MethodInfoPvPS4_
Nmf:_InputField_OnFillVBO_m3649106646
gri:_SerializationCallbacks__cctor_m1674315180
kme:__ZL21GetMeshLocationDetailR4Mesh
_ai:__Z98RuntimeInvoker_Boolean_t97287965_Byte_t1134296376_Byte_t1134296376_RuntimeObject_SByte_t1669577662PFvvEPK10MethodInfoPvPS4_
Pyc:__Z52Register_UnityEngine_RenderTexture_Internal_GetWidthv
O1k:_GC_check_leaked
G6b:__ZN9ShaderLab20SerializedSubProgram16TextureParameter8TransferI19StreamedBinaryWriteILb0EEEEvRT_
Mb:invoke_fiiiiiiiifiiiif
$pb:__ZNK7Hash12812PackToUInt32Ev
Mxf:_SynchronizedArrayListWrapper_IndexOf_m3642674350
Fea:__ZNSt3__227__insertion_sort_incompleteIRNS_6__lessI14ObjectLoadDataS2_EEPS2_EEbT0_S6_T_
W4:__ZN11UnityEngine15CloudWebService16SessionContainer8AddEventEPNS0_14CloudEventInfoE
yVa:__Z4TrimRKN4core12basic_stringIcNS_20StringStorageDefaultIcEEEES5_
L3f:_Dictionary_2_Do_ICollectionCopyTo_TisKeyValuePair_2_t3842366416_m1399105608_gshared
pwh:_X509Certificate2_Import_m4026562329
EAm:_glGetStringi__wrapper
IDb:__ZN10VertexData8TransferI14SafeBinaryReadEEvRT_
Add:__ZN5physx19NpArticulationJointD0Ev
sV:__ZN4FMOD8ChannelI8setDelayE14FMOD_DELAYTYPEjj
I2k:_GC_malloc_atomic
Kke:__ZN5physx9NpPhysics14createInstanceEjRNS_12PxFoundationERKNS_17PxTolerancesScaleEbPNS_20PxProfileZoneManagerE
Voe:__Z59Register_UnityEngine_Physics_INTERNAL_CALL_Internal_Raycastv
Q4j:_HashSet_1_GetEnumerator_m3346268098_gshared
i5k:__ZN6il2cpp5utils6Memory13AlignedMallocEjj
pGd:__ZNK5physx7NpScene17getFilterCallbackEv
Czj:_Selectable_get_animator_m2899312855
aba:__ZL20SortItemByInstanceIDRKN18AwakeFromLoadQueue4ItemES2_
Lbj:_CustomEventData_Add_m1907944267
qke:__ZN5physx6shdfnd5ArrayIPvNS0_15InlineAllocatorILj256ENS0_19ReflectionAllocatorINS_24NpPtrTableStorageManager8PtrBlockILi16EEEEEEEE15growAndPushBackERKS2_
xmh:_TypeConverterAttribute__ctor_m1774069684
pD:__ZNK34AnimationStateMachineMixerPlayable26GetInterruptedPosePlayableEv
YPe:__ZN20UnityConnectSettings8TransferI24GenerateTypeTreeTransferEEvRT_
IF:__ZN34BlobWriteTransferSTLStyleArrayImplI22OffsetPtrArrayTransferIbEEclERS1_17TransferMetaFlagsR9BlobWrite
huf:_Byte_ToString_m4063101981
oel:_GUIStyle_Internal_DrawWithTextSelection_m4095233580
vng:_MonoType_GetConstructors_m2574682189
uod:__ZN5physx7NpShape13setRestOffsetEf
r$a:__Z16FlaggedAsSkippedIN4core12basic_stringIcNS0_20StringStorageDefaultIcEEEEEbRK13FileEntryInfoRKT_19FileEnumerationFlag
Xoh:_ServicePointManager_FindServicePoint_m4119451290
fha:__ZL31InitializeRendererUpdateManagerPv
r1i:_ParameterInfo__ctor_m2779026345
hlf:_InputField_set_onValueChange_m1251390545
Wod:__ZN5physxL11getTriangleERKNS_2Gu12TriangleMeshEjPNS_6PxVec3EPKS4_PKvRKNS_2Cm8Matrix34Eb
F4g:_DeriveBytes_set_Password_m3005258189
Qog:_NumberFormatter_get_IsZeroInteger_m2263284741
UBc:__ZN8GUIState12GetControlIDEi9FocusTypeRK5RectTIfE
aqd:__ZNK5physx7NpCloth16lockParticleDataEv
LYj:_X509Certificate_PEM_m2020851166
Ysi:_SByte_Equals_m865896384_AdjustorThunk
N_f:_Array_InternalArray__Insert_TisDateTime_t3738529785_m2308632330_gshared
$We:_RNGCryptoServiceProvider_RngGetBytes_m1695806698
Mgh:_TlsServerCertificateRequest_ProcessAsTls1_m3214041063
dze:_compare_uni_maps
ONe:__ZN11UnityEngine15PlatformWrapper27GetGraphicsCapsSupportFlagsEv
CVa:__ZN18GlslGpuProgramGLES25LoadFromBinaryShaderCacheERKN4core12basic_stringIcNS0_20StringStorageDefaultIcEEEER17ShaderChannelMaskPKc
ALd:__ZN5physx13NpRigidStatic9visualizeERNS_2Cm12RenderOutputEPNS_7NpSceneE
OZb:__ZN12NativeBufferI16Converter_StringE15SetupForWritingER9ArrayInfo
h0g:_SequentialSearchPrimeGeneratorBase_GenerateSearchBase_m3595783982
THb:__ZThn32_N19SkinnedMeshRendererD1Ev
fCm:___cxa_end_catch__wrapper
Uj:_emscripten_glVertexAttrib3fv
ihm:_TextEditor_OnLostFocus_m3143071445
WNd:__ZN5physx6shdfnd8PoolBaseINS_2Sc35ParticleElementRbElementInteractionENS0_19ReflectionAllocatorIS3_EEE15disposeElementsEv
yvf:_Char_ToString_m278452217
WPg:_ReadOnlyCollection_1_System_Collections_IList_set_Item_m4047645019_gshared
y8g:_BigInteger_op_RightShift_m460065452
whb:__ZN13MonoBehaviour22DoScriptRebuildWarningEv
vsc:__Z38Camera_CUSTOM_INTERNAL_CALL_RaycastTryP12Il2CppObjectRK3Rayfi
Whc:__ZZL23RegisterLightPropertiesR22GenericPropertyBindingEN22Wrapper_LightSpotAngle13GetFloatValueEPv
jhj:_AnimatorControllerPlayable_GetNextAnimatorClipInfo_m166731102_AdjustorThunk
LEe:__Z38TextGenerator_Get_Custom_PropLineCountP12Il2CppObject
Wjh:_InternalAsyncResult_SetComplete_m963842420
wvi:_Encoding_GetEncoding_m2801244948
tCc:__ZN11IMGUIModule25GetGUIStyleScriptingClassEv
bCe:_tt_get_interface
NMk:__ZN6il2cpp5utils9PathUtils7CombineIcEENSt3__212basic_stringIT_NS3_11char_traitsIS5_EENS3_9allocatorIS5_EEEERKSA_SC_
xWd:__ZN5physx14PxsAABBManager16processBPResultsERKNS_20PxsComputeAABBParamsE
kUf:_Ext_Contains_TisRuntimeObject_m1985353838_gshared
HJc:__ZN9JSONWrite8TransferI13dynamic_arrayIiLj4EEEEvRT_PKc17TransferMetaFlags
EUd:__ZN5physx23PxsBroadPhaseContextSapD2Ev
b_h:__Z64RuntimeInvoker_RuntimeObject_SByte_t1669577662_SByte_t1669577662PFvvEPK10MethodInfoPvPS4_
bkc:__ZN13PlayableGraph21InvalidateMultithreadEv
mVi:_WebSocketException__ctor_m4202155420
nce:__ZN5physx12SubSortQuickC2EPjPKNS_10PxBounds3VEjf
l3j:_GenericComparer_1_Compare_m459680062_gshared
W2i:_EnumBuilder_GetConstructorImpl_m3068576149
gaa:__Z18ConvertUTF16toUTF8PPKtS0_PPhS2_15ConversionFlags
pYk:__ZN6il2cpp2os20PathErrnoToErrorCodeERKNSt3__212basic_stringIcNS1_11char_traitsIcEENS1_9allocatorIcEEEEi
t4l:__ZL68InputField_t3762917431_CustomAttributesCacheGenerator_m_KeyboardTypeP21CustomAttributesCache
Dlk:__ZL16my_g_bit_nth_msfj
EFl:__ZL65NonSerializedAttribute_t2945079482_CustomAttributesCacheGeneratorP21CustomAttributesCache
gIb:__Z20DeformSkinnedMeshJobP12SkinMeshInfo
MDg:_Enumerator_MoveNext_m3662315381_AdjustorThunk
igh:_TlsClientFinished_ProcessAsTls1_m2429863130
A5a:__Z23SetupStereoFlareElementP11FlareVertexRK8Vector2fS3_S3_RK11ColorRGBA32RK10Matrix4x4fRK8Vector3fb
wbj:_CustomEventData_Add_m3038150000
y2i:_DerivedType_GetCustomAttributes_m851300494
ab:invoke_iiiifiiii
nlf:_InputField_EnforceContentType_m2436948794
SMc:__ZN9rapidjson8internal6u64toaEyPc
Asd:__ZNK5physx2Sc9ClothCore16getRestPositionsEPNS_6PxVec4E
lRd:__ZN5physx20PxcSweepConvexConvexERKNS_11PxsCCDShapeES2_PKNS_12PxsRigidBodyES5_RKNS_11PxTransformES8_S8_S8_fRNS_6PxVec3ESA_RNS_10PxcNpCacheERNS_18PxcNpThreadContextEf
MP:__Z64AnimationOffsetPlayable_CUSTOM_INTERNAL_CALL_GetRotationInternalR9HPlayableR11Quaternionf
REa:__ZN8Renderer29GetTransformInfoAndUpdateSlowEv
Hvd:__ZN5physx15PxsParticleDataD0Ev
RSa:__ZL19BlitFramebufferImplRN4gles23BlitFramebufferDrawQuadER9GfxDevice9TextureIDRK8Vector4f
eae:__ZN5physx6shdfnd5ArrayIPvNS0_19ReflectionAllocatorIN17PxcPoolMallocData9PoolData8EEEE15growAndPushBackERKS2_
IDk:__ZN15dense_hashtableINSt3__24pairIK10KeyWrapperIPK10Il2CppTypeEjEES6_N6il2cpp8metadata14Il2CppTypeHashEN14dense_hash_mapIS6_jSB_NS6_14EqualsComparerINSA_26Il2CppTypeEqualityComparerEEENS0_9allocatorIS8_EEE9SelectKeyESF_SH_E4findERS7_
Bfj:_AnimatorControllerPlayable_GetIntegerString_m2864965116
rtm:dynCall_viiiiiiiiiiiiii
mse:_UNITY_FT_List_Add
XP:__Z87Register_UnityEngine_Animations_AnimationPlayableOutput_INTERNAL_CALL_InternalGetTargetv
gee:__ZN5physx15PxGeometryQuery14getWorldBoundsERKNS_10PxGeometryERKNS_11PxTransformEf
Ptd:__ZN5physx2Sc9ClothCore18setSolverFrequencyEf
Efg:_Directory_CreateDirectoriesInternal_m3735342319
Atj:_LayoutUtility_GetLayoutProperty_m3731360667
Nfj:_AnimatorControllerPlayable_SetIntegerID_m690544869
zIk:__ZN15dense_hashtableINSt3__24pairIK10KeyWrapperINS1_IPK11Il2CppImageP11Il2CppClassEEEjEES9_17ReflectionMapHashIS8_EN14dense_hash_mapIS9_jSD_NS9_14EqualsComparerINS0_8equal_toIS8_EEEENS0_9allocatorISB_EEE9SelectKeyESI_SK_E14squash_deletedEv
_Ye:_SHAConstants__cctor_m1699027474
cLb:__ZN9InputAxis8TransferI18StreamedBinaryReadILb0EEEEvRT_
iRc:__ZN5physx2Gu16buildPartialHullERKNS0_13PolygonalDataEPNS0_12SupportLocalERNS0_14SeparatingAxesERKNS_6shdfnd3aos5Vec3VESC_
l5j:_SymmetricTransform_FinalDecrypt_m764004682
Acj:_AnimationEvent_get_isFiredByLegacy_m2397681361
kSb:__Z18Transfer_BlittableI14SafeBinaryReadLb0EaEvRK29SerializationCommandArgumentsR31RuntimeSerializationCommandInfo
Cvf:_CharEnumerator_System_Collections_IEnumerator_get_Current_m1328529384
nwm:_emscripten_glFrustum__wrapper
Ocd:__ZNK5physx2Sc16ArticulationCore17releaseDriveCacheERNS_9PxcFsDataE
Uvj:_GetRayIntersectionAllCallback_Invoke_m1316694896
kM:__ZN24GenerateTypeTreeTransfer8TransferIN7mecanim8skeleton8SkeletonEEEvRT_PKc17TransferMetaFlags
_0c:__ZN5physx11NpAggregate7releaseEv
Wuf:_Char_System_IConvertible_ToUInt64_m3536560782
Z$j:_EqualityComparer_1__cctor_m3452395357_gshared
C5h:__Z115RuntimeInvoker_Void_t1185182177_PlayableHandleU26_t645981773_Int32_t2950945753_Int32_t2950945753_Single_t1397266774PFvvEPK10MethodInfoPvPS4_
Ow:__ZN19StreamedBinaryWriteILb0EE8TransferIKN4math7_float3EEEvRT_PKc17TransferMetaFlags
g2a:__Z20SyncFenceCullResultsR11CullResults
mUa:__ZN15TextureTFMethod20IsBoneCountSupportedEi
PO:__ZN26AnimatorControllerPlayable9GotoStateEiifff
cOf:_Double_ToString_m3828879243_AdjustorThunk
Ssh:_NetworkStream_set_Position_m4274646361
WVb:__Z22TransferField_NonArrayI17RemapPPtrTransfer27Converter_SimpleNativeClassI8GUIStyleEEvRK23StaticTransferFieldInfoR31RuntimeSerializationCommandInfoRT0_
ood:__ZN5physx7NpShape12setMaterialsEPKPNS_10PxMaterialEt
Ncc:__ZNK17AnimationCurveTplIfE20EvaluateWithoutCacheEfRf
_7h:__Z67RuntimeInvoker_Boolean_t97287965_Rect_t2360479859_SByte_t1669577662PFvvEPK10MethodInfoPvPS4_
Pua:__ZN19ShaderPropertySheet10SetTextureERK23FastTexturePropertyNameP7Texture
q0i:_CustomAttributeData__ctor_m2966233049
vcf:_CanvasUpdateRegistry_PerformUpdate_m1793997159
tfh:_Context_set_ClientWriteIV_m3405909624
Zlc:__ZN4Mesh10SetNormalsEPK8Vector3fj
A5j:_AesManaged_CreateDecryptor_m692040246
$Zk:__ZNSt3__212basic_stringIDsNS_11char_traitsIDsEENS_9allocatorIDsEEE9__grow_byEjjjjjj
ou:__ZN17AnimationCurveTplIfE8TransferI14SafeBinaryReadEEvRT_
Y$f:_Array_InternalArray__set_Item_TisInt16_t2552820387_m2544074754_gshared
Pof:_ArithmeticException__ctor_m3551809662
cgg:_MonoIO_ExistsDirectory_m2182482658
SCb:__ZNSt3__26vectorIN15QualitySettings14QualitySettingENS_9allocatorIS2_EEE6assignIPS2_EENS_9enable_ifIXaasr21__is_forward_iteratorIT_EE5valuesr16is_constructibleIS2_NS_15iterator_traitsIS9_E9referenceEEE5valueEvE4typeES9_S9_
MYc:__Z15raycast_capsuleRKN5physx10PxGeometryERKNS_11PxTransformERKNS_6PxVec3ES8_fNS_7PxFlagsINS_9PxHitFlag4EnumEtEEjPNS_12PxRaycastHitEbPFbRSD_PvESG_
j6:__GLOBAL__sub_I_runtime_utilities4_lump_cpp
Prg:_List_1_CheckCollection_m1671972112_gshared
qdh:_CipherSuiteFactory_GetSsl3SupportedCiphers_m3757358569
oxi:_UnicodeEncoding_GetPreamble_m3002287178
o3d:__ZNK5physx34PxsSolverConstraintPostProcessTask7getNameEv
R7h:__Z52RuntimeInvoker_Color_t2555686324_Color32_t2600501292PFvvEPK10MethodInfoPvPS4_
sSc:__ZN5physx2Gu23distancePointBoxSquaredERKNS_6PxVec3ES3_S3_RKNS_7PxMat33EPS1_
Bke:__ZN5physx9NpPhysics20MeshDeletionListener28onGuMeshFactoryBufferReleaseEPKNS_6PxBaseEtb
MRe:__ZNK12HeaderHelper3GetERKN4core12basic_stringIcNS0_20StringStorageDefaultIcEEEE
VKb:__ZN9InputAxis8TransferI14SafeBinaryReadEEvRT_
pba:__ZNK21ExecutionOrderManager30GetCustomAwakeFromLoadQueueForEPKN5Unity4TypeE
KFd:__ZNK5physx7NpScene9getActorsENS_7PxFlagsINS_15PxActorTypeFlag4EnumEtEEPPNS_7PxActorEjj
hRe:__Z27RegisterModule_UnityConnectv
Aig:_MemoryStream_Expand_m3554752073
D8f:_DateTimeFormatInfo_get_RoundtripPattern_m796050488
ANd:__ZN5physx11NodeManagerD0Ev
tke:__ZN5physx6shdfnd8PoolBaseINS_24NpPtrTableStorageManager8PtrBlockILi4EEENS0_19ReflectionAllocatorIS4_EEE12allocateSlabEv
ppi:_ObjectRecord_get_IsInstanceReady_m2304516395
RNj:_InternalEnumerator_1_System_Collections_IEnumerator_get_Current_m1635397542_gshared
fjg:_Path__cctor_m3273994011
urm:__ZNSt11logic_errorD2Ev
IIf:_DateTimeUtils_CountRepeat_m3396693018
cIi:_WeakReference_get_Target_m168713953
yP:__Z96Register_UnityEngine_Animations_AnimationClipPlayable_INTERNAL_CALL_SetRemoveStartOffsetInternalv
MW:__ZN10ObjectPoolIN4FMOD12ChannelGroupENS0_13ChannelGroupIEE7SetSizeEi
sla:__ZN15dense_hashtableINSt3__24pairIKN4core12basic_stringIcNS2_20StringStorageDefaultIcEEEE13dynamic_arrayI4PPtrI6SpriteELj4EEEES6_20StringHash32FunctionIS6_EN14dense_hash_mapIS6_SC_SF_NS0_8equal_toIS6_EE13stl_allocatorISD_L18MemLabelIdentifier79ELi16EEE9SelectKeyESI_SL_E9copy_fromERKSO_j
mPg:_ReadOnlyCollection_1_System_Collections_IList_RemoveAt_m3030506374_gshared
XWk:__ZN6il2cpp2os10ThreadImpl33UnregisterCurrentThreadForCleanupEv
cOi:_Parser_ParseGroupingConstruct_m263270497
Iel:_GUIStyle_get_isHeightDependantOnWidth_m802385395
aJ:__ZN15SerializeTraitsINSt3__24pairI8StateKey10StateRangeEEE8TransferI14SafeBinaryReadEEvRS4_RT_
FIk:__ZN14dense_hash_mapI10KeyWrapperINSt3__24pairIPK9EventInfoP11Il2CppClassEEEj17ReflectionMapHashIS8_ENS9_14EqualsComparerINS1_8equal_toIS8_EEEENS1_9allocatorINS2_IKS9_jEEEEE15set_deleted_keyERSH_
zB:__ZN27AnimationLayerMixerPlayable22PrepareAnimationEventsEfR13dynamic_arrayI22AnimationClipEventInfoLj4EE
Kqd:__ZNK5physx7NpCloth25getMotionConstraintConfigEv
HTb:__Z14resize_trimmedINSt3__26vectorI17AnimationCurveTplIfE13stl_allocatorIS3_L18MemLabelIdentifier1ELi16EEEEEvRT_j
kPg:_ReadOnlyCollection_1_System_Collections_IList_Insert_m1043619507_gshared
Nfb:__ZN25CameraStackRenderingState19SetupLastEyeCamerasERK11CameraStack
erc:__Z12GUIDToStringRK9UnityGUID
Rkj:_AudioClipPlayable_SetStartDelayInternal_m1513051483
XSe:__GLOBAL__sub_I_runtime_vr_plugininterface_lump_cpp
oih:_RSASslSignatureDeformatter_SetKey_m2204705853
kVk:__ZN6il2cpp6icalls8mscorlib6System4Enum12get_hashcodeEP12Il2CppObject
_S:__ZN11SoundHandleC2ERKS_
ukf:_InputField_set_shouldHideMobileInput_m1650743574
Atk:__ZNK6il2cpp5utils11collections13ArrayValueMapIPK10Il2CppType17Il2CppInteropData26InteropDataToTypeConverterNS_8metadata14Il2CppTypeLessENS8_26Il2CppTypeEqualityComparerEE10find_firstERKS5_
rQ:__Z75AnimatorControllerPlayable_CUSTOM_INTERNAL_CALL_GetAnimatorClipInfoInternalR9HPlayableihP12Il2CppObject
bhg:_FileStream_get_CanSeek_m331583577
STe:_DSAParameters_t1885824122_marshal_pinvoke_back
C_c:__ZN5physx3Cct26CharacterControllerManager24setOverlapRecoveryModuleEb
WD:__ZN8Animator22OnGraphTopologyChangedEP8Playablei
Y$g:_Kernel_MultiplyByDword_m1266935086
YZk:__ZN4utf89unchecked8utf8to16INSt3__220back_insert_iteratorINS2_12basic_stringIDsNS2_11char_traitsIDsEENS2_9allocatorIDsEEEEEEPKcEET_T0_SE_SD_
HA:__ZN17AnimationPlayable18DeallocateBindingsEv
Pib:__ZN6Camera25StandaloneRenderToCubemapEP7TextureiPFvPK9SceneNodePK4AABBR9IndexListPvESA_j
G2e:_String_Trim_m3384720403
$wb:__ZN14RenderSettings18TransferDeprecatedI14SafeBinaryReadEEvRT_
Z_h:__Z88RuntimeInvoker_RuntimeObject_RuntimeObject_RuntimeObject_RuntimeObject_Int32_t2950945753PFvvEPK10MethodInfoPvPS4_
yDi:_Type_ToString_m3975981286
Vgl:_Material_get_mainTexture_m4181654696
E7:__ZN12TLSAllocatorI14StackAllocatorE8AllocateEji
mca:__ZN16ScriptingManager18GetMonoScriptCacheEi
qOi:_ExpressionAssertion__ctor_m2554412824
v1f:_Array_Resize_TisCustomAttributeTypedArgument_t2723150157_m3021884250_gshared
rSb:__Z18Transfer_BlittableI14SafeBinaryReadLb1EyEvRK29SerializationCommandArgumentsR31RuntimeSerializationCommandInfo
Bog:_NullReferenceException__ctor_m3076065613
lGc:__ZN8JSONRead8TransferIfEEvRT_PKc17TransferMetaFlagsb
R8g:_PrimalityTests_GetSPPRounds_m2558073743
vrd:__ZN5physx7NpCloth25setSelfCollisionStiffnessEf
j2e:_String_System_IConvertible_ToUInt16_m2888090399
c$i:_Assembly_InternalGetType_m3065345470
$0:__ZN13Simd4iFactoryIN6detail9FourTupleEEC2Eiiii
cSj:_ResourceSet__ctor_m3356376607
$wl:__ZL56_ParameterInfo_t489405856_CustomAttributesCacheGeneratorP21CustomAttributesCache
RAb:__ZN15SerializeTraitsI33EnlightenTerrainChunksInformationE8TransferI14SafeBinaryReadEEvRS0_RT_
Fgc:__ZNK32RendererMaterialAnimationBinding9BindValueER6ObjectRKN11UnityEngine9Animation14GenericBindingERNS3_10BoundCurveE
C8k:_Font_get_dynamic_m1886714215
nDh:_Transform_1_Invoke_m1731820209_gshared
Rxb:__Z13GetIAnimationv
eEa:__ZL18stbir__support_onef
C1e:_Single_CompareTo_m189772128
tIc:__Z26Transfer_UnityEngineObjectI9JSONWriteLb0EEvRK29SerializationCommandArgumentsR31RuntimeSerializationCommandInfo
EQj:_DefaultComparer_Compare_m4042058291_gshared
qjf:_Image_set_overrideSprite_m3213596394
Ova:__ZNSt3__26vectorIN4core12basic_stringIcNS1_20StringStorageDefaultIcEEEE13stl_allocatorIS5_L18MemLabelIdentifier1ELi16EEE6assignINS_11__wrap_iterIPS5_EEEENS_9enable_ifIXaasr21__is_forward_iteratorIT_EE5valuesr16is_constructibleIS5_NS_15iterator_traitsISF_E9referenceEEE5valueEvE4typeESF_SF_
BGe:__ZNSt3__27__sort5IRNS_6__lessIN2UI14DepthSortEntryES3_EEPS3_EEjT0_S7_S7_S7_S7_T_
Ngg:_FileLoadException_ToString_m2989457882
inj:_Camera_FireOnPreRender_m475210052
Tre:_UNITY_FT_DivFix
h5f:_Array_InternalArray__get_Item_TisDecimal_t2948259380_m3511003792_gshared
M_e:_SecurityElement_IsValidAttributeValue_m948345692
Ia:invoke_vdd
qo:FUNCTION_TABLE_fiii
dlg:_TextWriter_Write_m2252948084
$L:__ZN14SafeBinaryRead21TransferSTLStyleArrayI19StaticArrayTransferIiLi15EEEEvRT_17TransferMetaFlags
uo:FUNCTION_TABLE_fiif
gth:_NetworkStream_EndWrite_m2616051554
Kdc:__ZNK30SpriteRendererAnimationBinding12GetPPtrValueERKN11UnityEngine9Animation10BoundCurveE
qEe:__ZZ29InitializeTextRenderingModulevEN27cleanupAfterLoadRegistrator7ForwardEv
Yek:_CachedInvokableCall_1__ctor_m3594541075_gshared
IB:__ZN27AnimationLayerMixerPlayable24ProcessAnimationLayerMixEP33AnimationPlayableEvaluationOutputP35AnimationPlayableEvaluationConstantP32AnimationPlayableEvaluationInputS1_if
WPf:_CCFixed_FromDateTime_m3894190577
C5k:__ZN6il2cpp6icalls8mscorlib4Mono8Security12Cryptography18KeyPairPersistence19_IsMachineProtectedEP12Il2CppString
kfb:__Z29PluginsIssueRenderingExtEvent26UnityRenderingExtEventTypePv
CSh:__Z116RuntimeInvoker_RuntimeObject_RuntimeObject_Int32_t2950945753_RuntimeObject_RuntimeObject_RuntimeObject_RuntimeObjectPFvvEPK10MethodInfoPvPS4_
loh:_Dns_GetHostEntry_m2165252375
Ffc:__Z14RandomRotationP9Texture2DPhiiii
TYf:_Array_InternalArray__ICollection_Add_TisUInt16_t2177724958_m3981262878_gshared
lje:__ZThn132_N5physx7profile8ZoneImplINS_28PxProfileNameProviderForwardEED1Ev
M4j:_HashSet_1_Contains_m3173358704_gshared
dCj:_ToggleEvent__ctor_m834619998
Eah:_PKCS1_Encode_v15_m2077073129
Rwh:_X509ChainElementCollection_System_Collections_IEnumerable_GetEnumerator_m3829089536
hGd:__ZN5physx7NpScene27setCCDContactModifyCallbackEPNS_26PxCCDContactModifyCallbackE
Egj:_AnimatorControllerPlayable_SetLayerWeight_m4088723267
O4k:__ZN6il2cpp2os12Cryptography23GetCryptographyProviderEv
Rae:__ZNK5physx17ConvexHullBuilder17ComputeGeomCenterERNS_6PxVec3E
eVd:__ZN3MBPD0Ev
bOa:__ZN4gles14UseGLSLProgramER15DeviceStateGLESjbij
z7h:__Z59RuntimeInvoker_Boolean_t97287965_Int32_t2950945753_IntPtr_tPFvvEPK10MethodInfoPvPS4_
ACm:_glDeleteProgram__wrapper
Csc:__Z50Register_UnityEngine_Camera_INTERNAL_get_pixelRectv
zya:__ZN6prcoreL18BlitFloatToIntegerERK14ImageReferenceRS0_
DKf:_DBNull_System_IConvertible_ToUInt32_m3784627971
ueh:_ClientSessionCache_Add_m964342678
nJd:__ZNK5physx10PxsContext18getBounceThresholdEv
p4:__ZN11UnityEngine15CloudWebService14RestDownloader17OnCompleteContentEv
BCk:__ZN15dense_hashtableINSt3__24pairIK10KeyWrapperINS1_IPK14Il2CppAssemblyP11Il2CppClassEEEjEES9_17ReflectionMapHashIS8_EN14dense_hash_mapIS9_jSD_NS9_14EqualsComparerINS0_8equal_toIS8_EEEENS0_9allocatorISB_EEE9SelectKeyESI_SK_E15insert_noresizeERKSB_
JLf:_DivideByZeroException__ctor_m3496959969
qEd:__ZN5physx6shdfnd5ArrayIPvNS0_15InlineAllocatorILj256ENS0_19ReflectionAllocatorINS_2Gu31SpherePersistentContactManifoldEEEEEE15growAndPushBackERKS2_
w5d:__ZN5physx2Cm18DelegateFanoutTaskINS_2Sc5SceneEXadL_ZNS3_17finalizationPhaseEPNS_10PxBaseTaskEEEE11runInternalEv
ML:__ZN6Avatar8TransferI14SafeBinaryReadEEvRT_
kja:__ZNSt3__26vectorI20ProcessCallbackGroupNS_9allocatorIS1_EEEC2ERKS4_
BD:__ZN17AnimationPlayable28UpdateInternalStateRecursiveILi1ELb0EEEvPK35AnimationPlayableEvaluationConstant
xsj:_Event_get_type_m1523589438
cb:invoke_vifff
puc:__Z41Register_UnityEngine_GameObject_set_layerv
bBm:_glGetVertexAttribiv__wrapper
dhd:__ZN5physx6shdfnd15atomicDecrementEPVi
xf:_emscripten_request_fullscreen
ena:__ZN20LocalFileSystemWebGL6DeleteER13FileEntryDatab
zf:_emscripten_glDisableVertexAttribArray
SSf:_Array_InternalArray__ICollection_Remove_TisSingle_t1397266774_m3361324455_gshared
jo:FUNCTION_TABLE_iiiifiiii
vYf:_Array_InternalArray__ICollection_Add_TisSlot_t3975888750_m1793695076_gshared
WXg:_EventHandler_1_Invoke_m341276322_gshared
hcl:_GUIStyleState_INTERNAL_set_textColor_m205515088
sqj:_Component_SendMessage_m2383548706
Ec:invoke_fifffi
fMg:_Collection_1_System_Collections_IList_Add_m2969482770_gshared
H0g:_BitConverterLE_GetBytes_m4130646282
YOa:__ZN4gles23ClearCurrentFramebufferEP7ApiGLESbbbRK10ColorRGBAffi
cC:__ZN7mecanim12statemachine20CreateStateWorkspaceEjjjRNS_6memory9AllocatorE
xae:__ZN5physx2Gu11HeightField13releaseMemoryEb
Kf:_emscripten_glDeleteObjectARB
A6e:_EventSystem_RaycastComparer_m3685368675
NQa:__Z14DecompressDXT3iiiPKjPj
Qyc:__Z53Register_UnityEngine_RenderTexture_Internal_GetHeightv
z1g:_DSAManaged_CreateSignature_m2233977444
r5g:_PKCS12_RemoveCertificate_m1421555398
Aza:__ZN6prcoreL17RemapGenericFloatI17TexFormatRGBAHalf18TexFormatARGBFloatEEvPKNS_9InnerInfoE
XBc:__ZNK8GUIStyle21DrawWithTextSelectionER8GUIStateRK5RectTIfER10GUIContentbbbbbiiRK10ColorRGBAfSA_
jCc:__Z14GetBuiltinSkini
ojm:_TextGenerator_get_characterCount_m2163798385
Eli:_MethodDictionary_get_Item_m1201458851
maf:_StandaloneInputModule_ProcessMouseEvent_m2923582521
LMj:_InternalEnumerator_1_System_Collections_IEnumerator_get_Current_m1911422882_gshared
Nkj:_AudioClipPlayable_SetStartDelay_m2048795331
Ml:_JS_SystemInfo_GetBrowserVersionString
K8b:__ZN2UI13RectTransform23VirtualRedirectTransferER14SafeBinaryRead
Rvj:_ReflectionMethodsCache_get_Singleton_m787098794
SGd:__ZN5physx7NpScene17flushQueryUpdatesEv
EEh:_Enumerator_MoveNext_m3045873697_gshared
m5b:__ZNSt3__26vectorIN9ShaderLab20SerializedSubProgramENS_9allocatorIS2_EEE6assignIPS2_EENS_9enable_ifIXaasr21__is_forward_iteratorIT_EE5valuesr16is_constructibleIS2_NS_15iterator_traitsIS9_E9referenceEEE5valueEvE4typeES9_S9_
sKc:__Z18Transfer_BlittableI8JSONReadLb0E8BitFieldEvRK29SerializationCommandArgumentsR31RuntimeSerializationCommandInfo
m_e:_SecurityPermission_set_Flags_m1503445204
G4j:_HashSet_1_CopyTo_m2849056227_gshared
__b:__ZL17Transfer_GUIStyleI18StreamedBinaryReadILb1EELb0EEvRK29SerializationCommandArgumentsR31RuntimeSerializationCommandInfo
W7k:_UnityEvent_GetDelegate_m3910545044
G$g:_ModulusRing_Multiply_m343333088
jej:_AnimationOffsetPlayable_GetRotationInternal_m1122953425
iHd:__ZN5physx7NpScene10unlockReadEv
Bpk:_il2cpp_z_deflate
v3b:__ZN9ShaderLab14SerializedPass8TransferI14SafeBinaryReadEEvRT_
rDc:__Z71Register_UnityEngine_GUILayoutUtility_INTERNAL_CALL_Internal_MoveWindowv
M_:__ZN12AudioManager16SetListenerPauseEb
WTf:_SetPropertyUtility_SetStruct_TisSingle_t1397266774_m2805350785_gshared
rNk:__ZN6il2cpp2vm9Exception25RaiseOutOfMemoryExceptionERKNS_5utils10StringViewIDsEE
fa:invoke_viiiiiiiiiii
jnm:___syscall_ret
DYj:_DeriveBytes_set_Salt_m1400945044
G8e:_PointerEventData_set_worldNormal_m1888481930
_Oi:_AnchorInfo__ctor_m46784903
Pch:_CipherSuiteCollection_get_Item_m4188309062
ljh:_SslHandshakeHash_HashFinal_m2573455475
$Wj:_SynchronizationAttribute_ReleaseLock_m1030353464
iBk:__ZNSt3__212basic_stringIcNS_11char_traitsIcEENS_9allocatorIcEEE6assignINS_11__wrap_iterIPKcEEEENS_9enable_ifIXaasr21__is_forward_iteratorIT_EE5valuesr38__libcpp_string_gets_noexcept_iteratorISC_EE5valueERS5_E4typeESC_SC_
kMe:__Z56Register_UnityEngine_Analytics_CustomEventData_AddDoublev
mEb:__ZN11ChannelInfo8TransferI19StreamedBinaryWriteILb0EEEEvRT_
C6l:__ZL53ToggleGroup_t123837990_CustomAttributesCacheGeneratorP21CustomAttributesCache
Msd:__ZN5physx2Sc9ClothCore22setFrictionCoefficientEf
r6a:__ZN14qsort_internal13Partition3WayIP17RODataReplacementi19ROSorterReplacementEENSt3__24pairIT_S6_EES6_S6_T0_T1_
Kmd:__ZNK5physx9NpPhysics17getNbConvexMeshesEv
FGd:__ZNK5physx7NpScene29getContactCorrelationDistanceEv
Duc:__Z34Register_UnityEngine_Gradient_Initv
rWj:_Context_ToString_m1073616138
Ama:__ZN13ScreenManager23SetIsOrientationEnabledE18EnabledOrientationb
Pef:_InputField_EnforceTextHOverflow_m3400115777
OB:__ZN7mecanim5human25HumanPoseAddOverrideLayerERNS0_9HumanPoseERKS1_fRKNS_6bitsetILj70EEE
eEd:__ZN5physx16PxsIslandManager16clearEdgeRigidCMERKNS_20PxsIslandManagerHookIjLj4294967295EEE
Hcc:__ZN13ProduceHelperI9TransformLb0EE7ProduceE18MemLabelIdentifier18ObjectCreationMode
iFc:__Z45Register_UnityEngine_GUIStyle_GetFontInternalv
Zkf:_InputField_get_caretColor_m2973283772
g0c:__ZN5physx6shdfnd8SyncImpl4waitEj
ijj:_AnimatorTransitionInfo_IsUserName_m2064408313_AdjustorThunk
upj:_Component_get_gameObject_m2648350745
DNf:_Double_System_IConvertible_ToInt16_m3591921965_AdjustorThunk
mXg:_Comparison_1_Invoke_m2925518770_gshared
iib:__ZN10GameObject23VirtualRedirectTransferER18StreamedBinaryReadILb0EE
W4j:_SymmetricTransform__ctor_m2693628991
efg:_ObjectDisposedException__ctor_m1034312941
l3h:__Z67RuntimeInvoker_Void_t1185182177_Scene_t2348375561_Scene_t2348375561PFvvEPK10MethodInfoPvPS4_
_g:_glFrontFace
Itk:__ZNK15dense_hashtableINSt3__24pairIK10KeyWrapperIPK11Il2CppClassEPKcEES6_N6il2cpp5utils11PointerHashIS3_EEN14dense_hash_mapIS6_S9_SE_NS6_14EqualsComparerINS0_8equal_toIS5_EEEENS0_9allocatorISA_EEE9SelectKeyESJ_SL_E13find_positionERS7_
sLe:__ZN18BaseUnityAnalytics7ReleaseEv
yO:__ZN26AnimatorControllerPlayable14SetLayerWeightEif
Fbc:__ZN13ProduceHelperI19LowerResBlitTextureLb0EE7ProduceE18MemLabelIdentifier18ObjectCreationMode
Buj:_MaskUtilities_IsDescendantOrSelf_m2247511982
xId:__ZN5physx13NpVolumeCache17getNbCachedShapesEv
xbb:__ZNSt3__26vectorI16ShadowCasterData13stl_allocatorIS1_L18MemLabelIdentifier2ELi16EEE21__push_back_slow_pathIKS1_EEvRT_
cvg:_List_1_System_Collections_IList_Contains_m3674793472_gshared
ZEe:__Z51Register_UnityEngine_TextGenerator_GetLinesInternalv
aEh:_Enumerator_get_Current_m2250080680_AdjustorThunk
d0e:_SecurityElement__cctor_m3326869319
H5j:_AesManaged_set_Key_m767972181
gbg:_Int16_System_IConvertible_ToBoolean_m1656400658_AdjustorThunk
cuh:_SocketAsyncResult_CompleteAllOnDispose_m1317216893
ztf:_Byte_System_IConvertible_ToInt64_m285584218
Iqi:_ObjectManager__ctor_m1844334865
Rya:__ZN6prcoreL17RemapGenericFloatI17TexFormatRGBFloat18TexFormatRGBAFloatEEvPKNS_9InnerInfoE
_Jd:__ZN5physx2Sc5Scene15getRenderBufferEv
lYf:_Array_InternalArray__ICollection_Add_TisDictionaryEntry_t3123975638_m665385049_gshared
qmg:_MissingMemberException__ctor_m2707802176
$Za:__ZN12HandlerChain10ToAbsoluteEPKc
yMf:_DelegateSerializationHolder_GetDelegateData_m2109044103
WIh:__ZN21InterfaceFuncInvoker2Ib8IntPtr_tS0_E6InvokeEjP11Il2CppClassP12Il2CppObjectS0_S0_
KOb:__ZN13MonoBehaviour23VirtualRedirectTransferER19StreamedBinaryWriteILb0EE
RS:__ZN9AudioClip11CreateSoundEv
QDh:_Enumerator_get_Current_m1879183223_AdjustorThunk
fjl:_PlayerConnection__ctor_m2357477230
tEk:__ZNK15dense_hashtableINSt3__24pairIK10KeyWrapperINS1_IPK10MethodInfoP11Il2CppClassEEEjEES9_17ReflectionMapHashIS8_EN14dense_hash_mapIS9_jSD_NS9_14EqualsComparerINS0_8equal_toIS8_EEEENS0_9allocatorISB_EEE9SelectKeyESI_SK_E13find_positionERSA_
gMa:__ZN13GfxDeviceGLES20CreateComputeProgramEPKhj
yQe:__ZN11UnityEngine7Connect16PersistentValues13RestoreValuesER8JSONRead
phe:__ZN14SphereCollider22FetchPoseFromTransformEv
Vag:_Guid_BaseToString_m3600006650
H$a:__ZN20ArchiveStorageReader31TryToReadDirectoryFromBlockDataEyPKvj
J0d:__ZNK5physx2Gu11HeightField17getHeightInternalEff
MPk:__ZN6il2cpp2vmL11GetIdentityEP14Il2CppIUnknown
fuk:__ZN6il2cpp2vm13MetadataCache26GetWindowsRuntimeClassNameEPK11Il2CppClass
x1k:_GC_push_gc_structures
ygh:_TlsServerCertificate_ProcessAsTls1_m819212276
ZFd:__ZNK5physx7NpScene22getClientBehaviorFlagsEh
Y3f:_Dictionary_2_Do_ICollectionCopyTo_TisRuntimeObject_m3942192587_gshared
pnd:__ZN5physx9NpFactory14createMaterialEfff
qAf:_Hashtable_GetObjectData_m2584507417
Gcl:_GUISkin_set_verticalSlider_m2232958558
c1:__ZN5physx5cloth11PhaseConfigC2Et
lne:__ZN13PhysicsModule21OverlapBoxUserCollectERK8Vector3fS2_RK11Quaternionfi23QueryTriggerInteractionRN8IPhysics12IUserCollectE
b8g:_Kernel_DwordDivMod_m1540317819
JEd:__ZThn8_N5physx2Sc19ShapeInstancePairLLD0Ev
JXd:__ZN5physx19PxcContactSphereBoxERKNS_2Gu13GeometryUnionES3_RKNS_11PxTransformES6_RKfRNS_10PxcNpCacheERNS0_13ContactBufferE
HDg:_Enumerator_System_Collections_IEnumerator_get_Current_m1399273671_gshared
lGd:__ZNK5physx7NpScene21getBroadPhaseCallbackEh
L5c:__ZN5physx6shdfnd5ArrayIPNS_12PxConstraintENS0_19ReflectionAllocatorIS3_EEE15growAndPushBackERKS3_
Sdg:_Int64_Equals_m858582563_AdjustorThunk
FEb:__ZNSt3__213__stable_sortIRNS_4lessI4PPtrI11SpriteAtlasEEENS_11__wrap_iterIPS4_EEEEvT0_SA_T_NS_15iterator_traitsISA_E15difference_typeEPNSD_10value_typeEi
neg:_Int64_ToString_m2085073918_AdjustorThunk
Scd:__ZNK5physx2Sc15ArticulationSim11checkResizeEv
Koe:__Z37MeshCollider_Get_Custom_PropSkinWidthP12Il2CppObject
OTi:_Ext_TryGetUTF8EncodedBytes_m1040906710
sXf:_Array_InternalArray__IndexOf_TisTypeTag_t3541821701_m2988972362_gshared
g9:__ZN8keywords6CreateEPKc
PSc:__ZN5physx2Gu11gjkRelativeINS0_8CapsuleVENS0_11ConvexHullVEEEjRKT_RKT0_RKNS_6shdfnd3aos15PsMatTransformVERNSB_5Vec3VESG_SG_RNSB_6FloatVE
Rlk:__ZL7log2_32j
S:Math_imul
b3i:_TypeBuilder_GetCustomAttributes_m981725999
Cdl:_GUIStyle_set_active_m1243127135
JJb:__ZN14SpriteRenderer15SetupPropertiesEv
eDb:__ZN11PlayerPrefs6GetIntERKN4core12basic_stringIcNS0_20StringStorageDefaultIcEEEEi
Wch:_CipherSuiteCollection_System_Collections_IList_IndexOf_m1361500977
KBj:_Text_set_fontStyle_m648756124
HEe:__Z45TextGenerator_CUSTOM_INTERNAL_get_rectExtentsP12Il2CppObjectP5RectTIfE
gIf:_DateTime__ctor_m2135476686_AdjustorThunk
Znj:_CanvasRenderer_SetColor_m3481008010
iQg:_ReadOnlyCollection_1_System_Collections_Generic_IListU3CTU3E_set_Item_m1300028287_gshared
Khe:__ZN12PhysXRaycast19ApplyParticleForcesER13dynamic_arrayI21BatchedColliderResultLj4EE
bdj:_AnimationClipPlayable_GetRemoveStartOffsetInternal_m3282425066
Y9:__ZN18ScriptingArguments9AddObjectE18ScriptingObjectPtr
KIe:__Z39CanvasGroup_Get_Custom_PropInteractableP12Il2CppObject
B1:__ZN11UnityEngine15CloudWebService16SessionContainerD2Ev
mPa:__ZN17GenericDynamicVBOC2ER9GfxDevice13GfxBufferModejj
eBc:__ZZN10GUIManager14InitGUIManagerEvEN41PreUpdateIMGUISendQueuedEventsRegistrator7ForwardEv
zsh:_ServicePointManager_get_SecurityProtocol_m966397919
oCd:__ZNK5physx2Sc5Scene7isValidEv
fQf:_CCGregorianCalendar_day_from_fixed_m1674702403
U2:__ZN11UnityEngine15CloudWebService17SessionEventQueue10PurgeItemsEj
oId:__ZN5physx2Sq17SceneQueryManager29setDynamicTreeRebuildRateHintEj
Wgb:__ZN6Camera16StandaloneRenderENS_10RenderFlagEP6ShaderRKN4core12basic_stringIcNS3_20StringStorageDefaultIcEEEE
EHb:__ZN19SkinnedMeshRenderer13AwakeFromLoadE17AwakeFromLoadMode
crh:_X509Chain_PrepareForNextCertificate_m3691934993
u_b:__Z18Transfer_BlittableI18StreamedBinaryReadILb1EELb1EtEvRK29SerializationCommandArgumentsR31RuntimeSerializationCommandInfo
jzl:__ZL57X509Certificate_t713131622_CustomAttributesCacheGeneratorP21CustomAttributesCache
BGb:__ZN12BoneWeights48TransferI19StreamedBinaryWriteILb0EEEEvRT_
pKa:__ZN9GfxDevice20DeallocRenderSurfaceEP17RenderSurfaceBase
Hbd:__ZN5physx6shdfnd5ArrayIPvNS0_19ReflectionAllocatorINS_18NpArticulationLinkEEEE4copyINS0_15InlineAllocatorILj256ES5_EEEEvRKNS1_IS2_T_EE
TRa:__ZN20GpuProgramParameters36UpdatePrepareValuesMaximumBufferSizeEv
WOc:__ZNK5physx3Cct10Controller12getKineShapeEv
vZg:_SimpleCollator_GetContraction_m2205549079
Bvc:__Z53Register_UnityEngine_Quaternion_INTERNAL_CALL_Inversev
$3c:__ZN5physx6shdfnd4sortIPvNS0_4LessIS2_EENS0_19ReflectionAllocatorINS_2Sc18TriggerInteractionEEEEEvPT_jRKT0_RKT1_j
GZf:_Array_InternalArray__ICollection_CopyTo_TisDecimal_t2948259380_m2749946216_gshared
$rb:__ZN12BaseRenderer23RendererBecameInvisibleEv
zAd:__ZNK5physx2Sc8BodyCore14getMaxAngVelSqEv
Fqe:__ZN20TextRenderingPrivate8FontImpl13CharacterInfo8TransferI18StreamedBinaryReadILb0EEEEvRT_
$Xb:__Z29Transfer_Blittable_ArrayFieldI24GenerateTypeTreeTransferfEvRT_R9ArrayInfoRK23StaticTransferFieldInfo
Jjb:__ZN19CustomRenderTexture9AddParentE4PPtrIS_E
XBb:__ZN8Gradient8TransferI14SafeBinaryReadEEvRT_
u1e:_Single_System_IConvertible_ToUInt64_m3299129161_AdjustorThunk
Nva:__ZNSt3__26vectorIN4core12basic_stringIcNS1_20StringStorageDefaultIcEEEE13stl_allocatorIS5_L18MemLabelIdentifier1ELi16EEE7reserveEj
Pph:_IPv6Address_AsIPv4Int_m844941024
IYd:__ZN5physx2Gu32PCMConvexVsMeshContactGeneration15processTriangleEPKNS_6PxVec3EjhPKj
aCf:_SortedList_GetEnumerator_m772783392
owi:_StringBuilder__ctor_m3504405255
ATj:_Marshal__cctor_m4007734770
r0k:_GC_new_free_list_inner
Z3g:_SymmetricTransform_Random_m2004892672
t0j:_EqualityComparer_1_System_Collections_IEqualityComparer_Equals_m3876978661_gshared
orl:__ZL72RuntimeCompatibilityAttribute_t1169614002_CustomAttributesCacheGeneratorP21CustomAttributesCache
BTj:_Marshal_copy_to_unmanaged_m3612458659
k0d:__ZN5physx6shdfnd5ArrayINS_2Cm8Matrix34ENS0_19ReflectionAllocatorIS3_EEE15growAndPushBackERKS3_
ebh:_RSAManaged_DecryptValue_m1804388365
PYd:__ZN5physx2Gu32PCMConvexVsMeshContactGeneration31generatePolyDataContactManifoldERNS0_9TriangleVEjjhPNS0_21MeshPersistentContactERjRKNS_6shdfnd3aos6FloatVERNS8_5Vec3VE
FEj:_InternalEnumerator_1_System_Collections_IEnumerator_get_Current_m2980550840_AdjustorThunk
sce:__ZN5physx10SubSortSAH5splitEPjj
gLc:__ZN8JSONRead8TransferI10RectOffsetEEvRT_PKc17TransferMetaFlagsb
C2:__ZN9JSONWrite8TransferIN11UnityEngine15CloudWebService14DataErrorEvent15FileErrorDetailEEEvRT_PKc17TransferMetaFlags
$cg:_Int32_Parse_m2087562008
pUc:__ZN5physx2Gu3EPA8addFacetEjjjRKNS_6shdfnd3aos6FloatVES6_
S9i:_MonoProperty_GetAccessors_m412928203
M7j:_TweenRunner_1_Start_m3757154622_gshared
HV:__ZN12SoundManager20RegisterModifiedClipEP10SampleClip
Mni:_RemotingServices_GetClientChannelSinkChain_m1499550585
pPf:_Environment_ReadXdgUserDir_m2654856189
vHb:__ZN12MeshRenderer15AddAsRenderNodeER15RenderNodeQueueRK20DeprecatedSourceData
AYe:_SHA384Managed_processBlock_m1272529332
ezi:_Interlocked_CompareExchange_m3023855514
zvf:_Char_ToString_m278452217_AdjustorThunk
Z$c:__ZN5physx3Cct9CCTParamsC2Ev
hrk:__ZN15dense_hashtableI10KeyWrapperIPK17Il2CppGenericInstES4_N6il2cpp8metadata21Il2CppGenericInstHashEN14dense_hash_setIS4_S7_NS4_14EqualsComparerINS6_24Il2CppGenericInstCompareEEENSt3__29allocatorIS4_EEE8IdentityESB_SE_E13set_empty_keyERKS4_
VPh:__Z63RuntimeInvoker_Char_t3634460470_Int16_t2552820387_RuntimeObjectPFvvEPK10MethodInfoPvPS4_
yFf:_Convert_ToDouble_m2924063577
lqd:__ZN5physx7NpCloth21setStiffnessFrequencyEf
kRd:__ZN5physx17PxcSweepBoxConvexERKNS_11PxsCCDShapeES2_PKNS_12PxsRigidBodyES5_RKNS_11PxTransformES8_S8_S8_fRNS_6PxVec3ESA_RNS_10PxcNpCacheERNS_18PxcNpThreadContextEf
E8d:__ZThn8_N5physx2Gu11HeightField14onRefCountZeroEv
t3c:__ZN5physx2Sc5Actor9setActiveEbj
ESc:__ZN12_GLOBAL__N_127SphereMeshContactGeneration15processTriangleEjRKN5physx6PxVec3ES4_S4_PKj
JFh:_ValueCollection_System_Collections_Generic_ICollectionU3CTValueU3E_Remove_m3673494156_gshared
jQl:__ZL107Collision_t4262080450_CustomAttributesCacheGenerator_Collision_t4262080450____frictionForceSum_PropertyInfoP21CustomAttributesCache
jzb:__ZN7Cubemap23VirtualRedirectTransferER18StreamedBinaryReadILb0EE
pim:_TextEditor_MoveCursorToPosition_m65079273
emm:_Vector4_set_Item_m2494924945_AdjustorThunk
yvc:__ZNSt3__27__sort4IRNS_6__lessI11KeyframeTplIfES3_EEPS3_EEjT0_S7_S7_S7_T_
HCe:_Read_CVT
P3c:__ZN5physx2Sc10NPhaseCore28reserveContactReportPairDataEjjRj
rqj:_Component_SendMessage_m2000862420
VSc:__ZN5physx2Gu22barycentricCoordinatesERKNS_6shdfnd3aos5Vec3VES5_S5_RNS2_6FloatVE
BYa:__ZN12FileAccessor4SeekEx10FileOrigin
VWb:__ZL26Transfer_SimpleNativeClassI24GenerateTypeTreeTransfer17AnimationCurveTplIfELb0EEvRK29SerializationCommandArgumentsR31RuntimeSerializationCommandInfo
SEf:_Convert_ToDecimal_m1783778724
luf:_Byte_ToString_m4063101981_AdjustorThunk
dBb:__ZN24GenerateTypeTreeTransfer8TransferI13dynamic_arrayI33EnlightenTerrainChunksInformationLj4EEEEvRT_PKc17TransferMetaFlags
Q5f:_DateTimeFormatInfo__ctor_m3106345035
Q$j:_EqualityComparer_1_System_Collections_IEqualityComparer_GetHashCode_m4137147946_gshared
Mae:__ZL18TestUnifiedNormalsjPKN5physx6PxVec3EjPNS_2Gu9TriangleTIjEEb
nha:__ZN16LightmapSettings20DidChangeActiveSceneEP10UnitySceneS1_
Kam:__ZL59g_AssemblyU2DCSharp_Assembly_CustomAttributesCacheGeneratorP21CustomAttributesCache
tyk:__ZN6il2cpp5utils9PathUtils8BasenameIcEENSt3__212basic_stringIT_NS3_11char_traitsIS5_EENS3_9allocatorIS5_EEEERKSA_
YW:__ZN10AudioMixer11SetupGroupsEv
VCc:__Z35Register_UnityEngine_Event_get_typev
Wcj:_AnimationClipPlayable_INTERNAL_CALL_GetApplyFootIKInternal_m471142636
DNk:__ZN6il2cpp2vm9Exception23GetInvalidCastExceptionERKNS_5utils10StringViewIDsEE
n7d:__ZNK5physx13GuMeshFactory17getNbConvexMeshesEv
eba:__Z63ThreadAndSerializationSafeCheckGetMonoBehaviourBeingTransferredv
aNf:_StackTrace__ctor_m206492268
Vug:_List_1_set_Item_m4224739467_gshared
B1i:_ConstructorBuilder_get_Name_m2426555260
fvc:__Z37Register_UnityEngine_Input_GetAxisRawv
dhl:_Material_GetTexture_m2584124112
Udm:_RectTransform_set_offsetMax_m2352202302
bOi:_Parser_ParseCharacterClass_m4285351396
$ck:_Enumerator_System_Collections_IEnumerator_get_Current_m1643543708_AdjustorThunk
GGf:_Convert_ToSByte_m2653418303
UAf:_SyncHashtable__ctor_m2449935938
NXe:_RSAPKCS1SignatureFormatter_SetKey_m2935054088
UEb:__ZN14Texture2DArray23VirtualRedirectTransferER18StreamedBinaryReadILb0EE
Zxi:_UTF7Encoding_GetByteCount_m209415911
B8b:__ZN2UI13RectTransform13AwakeFromLoadE17AwakeFromLoadMode
JQi:_RegularExpression_Compile_m2385682508
nQf:_CompareInfo__cctor_m1837489679
Vab:__ZN14qsort_internal30FindAndMovePivotToLastPositionIP20ShadowCasterSortDatai26ShadowCasterSortDataSorterEEvT_S4_T0_T1_
Nrk:__ZNK15dense_hashtableI10KeyWrapperIPK19Il2CppGenericMethodES4_N6il2cpp8metadata23Il2CppGenericMethodHashEN14dense_hash_setIS4_S7_NS4_14EqualsComparerINS6_26Il2CppGenericMethodCompareEEENSt3__29allocatorIS4_EEE8IdentityESB_SE_E3endEv
rRb:__Z18Transfer_BlittableI14SafeBinaryReadLb1EiEvRK29SerializationCommandArgumentsR31RuntimeSerializationCommandInfo
UIi:_X509ExtensionEnumerator_get_Current_m256207749
gGa:__ZN17PersistentManager13GetAllFileIDsERKN4core12basic_stringIcNS0_20StringStorageDefaultIcEEEER13dynamic_arrayIxLj8EE
Fqf:_Array_Sort_m182264525
Vnf:_LayoutGroup_set_padding_m282562135
Kec:__Z13TransformAABBRK4AABBRK8Vector3fRK11QuaternionfRS_
e0i:_Default_IsArrayAssignable_m953489228
Y9k:_GUIStyle_INTERNAL_CALL_Internal_Draw2_m1777082770
NEi:_UInt16_ToString_m355311020_AdjustorThunk
HVe:_RC2__ctor_m1146135664
Qum:dynCall_vifiiiiiiiiiiiiiiiiiiiiiii
DWc:__ZN5physx2Gu18gjkRelativeRayCastINS0_4BoxVES2_NS0_10ShrunkBoxVES3_EEbRT_RT0_RKNS_6shdfnd3aos15PsMatTransformVERKNS9_6FloatVERKNS9_5Vec3VESI_RSD_RSG_SK_fb
il:_glGetStringi
L4e:_DecoderExceptionFallback_CreateFallbackBuffer_m1133375601
VRk:__ZNK15dense_hashtableI10KeyWrapperIP18Il2CppGenericClassES3_N6il2cpp8metadata22Il2CppGenericClassHashEN14dense_hash_setIS3_S6_NS3_14EqualsComparerINS5_25Il2CppGenericClassCompareEEENSt3__29allocatorIS3_EEE8IdentityESA_SD_E10test_emptyERK30dense_hashtable_const_iteratorIS3_S3_S6_SF_SA_SD_E
wN:__ZZN8Animator15InitializeClassEvEN43FunctorImpl_420kDidModifyAnimatorController4CallEPviR11MessageData
Zzh:_Enumerator_get_CurrentKey_m889650866_gshared
nFb:__ZN18StreamedBinaryReadILb0EE21TransferSTLStyleArrayI13dynamic_arrayI8Vector4fLj4EEEEvRT_17TransferMetaFlags
V7d:__ZThn8_N5physx2Gu10ConvexMeshD0Ev
TBg:_List_1_System_Collections_IList_Remove_m997133631_gshared
sOd:__ZNK5physx2Sq12BucketPruner7raycastERKNS_6PxVec3ES4_RfRNS0_14PrunerCallbackE
o3:__ZN11UnityEngine15CloudWebService20WebRequestRestClient18GetResponseHeadersEv
gDb:__ZNSt3__23mapIN4core12basic_stringIcNS1_20StringStorageDefaultIcEEEE9PrefValueNS_4lessIS5_EENS_9allocatorINS_4pairIKS5_S6_EEEEEixERSB_
Sjc:__ZN15DirectorManager22ConstructPlayableGraphEv
Mqh:_U3CBeginAuthenticateAsClientU3Ec__AnonStorey7_U3CU3Em__8_m3748334000
coj:_CanvasRenderer_INTERNAL_CALL_EnableRectClipping_m1902636664
eNc:__Z41Register_UnityEngine_JsonUtility_FromJsonv
jsj:_Event_Init_m3976072405
YGg:_Collection_1_ConvertItem_m1743542180_gshared
Yvk:_scan_tree
OEe:__Z38Register_UnityEngine_Font_HasCharacterv
vnh:_DeflateStream_get_CanWrite_m4292365324
cfb:__Z35IntersectSpherePlaneBoundsOptimizedRKN4math7_float4EPS1_i
ZWe:_RNGCryptoServiceProvider__cctor_m3587754670
L1c:__ZN5physx2Sc8ShapeSim20createLowLevelVolumeEjRKNS_9PxBounds3EjNS_9AABBMgrIdE
fR:__Z100Register_UnityEngine_Animations_AnimatorControllerPlayable_INTERNAL_CALL_GetAnimatorClipInfoInternalv
hVk:__ZN6il2cpp2os5posix15PosixWaitObject13InterruptWaitEv
qqd:__ZNK5physx7NpCloth22getAngularInertiaScaleEv
qYc:__ZN26IntersectAnyVsMeshCallbackILi1ELb1EE10processHitERKN5physx12PxRaycastHitERKNS1_6PxVec3ES7_S7_RfPKj
Yhl:_Mesh_SetTrianglesImpl_m1411542981
Pga:__Z22CleanupLODGroupManagerPv
IJd:__ZN5physx6shdfnd5ArrayINS_2Sc5Scene14SimpleBodyPairENS0_19ReflectionAllocatorIS4_EEE8recreateEj
Sl:_glUniform3fv
aNb:__ZNSt3__218__insertion_sort_3IRN15ResourceManager10Dependency6SorterEPS2_EEvT0_S6_T_
SDe:_UNITY_FT_Init_Class_tt_service_gx_multi_masters
Lrh:_X509ChainElement_Set_m655180762
A9a:__ZNK16LightmapSettings31GetRealtimeLightmapDecodeValuesEv
wX:__ZN5audio5mixer12SetSuspendedERNS0_16AudioMixerMemoryEb
wBa:__ZN17PersistentManager21UnloadNonDirtyStreamsEv
d9j:_Object_Instantiate_TisRuntimeObject_m1135049463_gshared
oXh:__Z96RuntimeInvoker_Int32_t2950945753_RuntimeObject_Int32_t2950945753_RuntimeObject_Int32_t2950945753PFvvEPK10MethodInfoPvPS4_
mtj:_InvokableCallList_PrepareInvoke_m839457961
EAi:_Scheduler__ctor_m3313141270
mjm:_TextGenerator_get_lines_m2154533872
j3a:__ZN12ImageFilters4BlitER17ShaderPassContextP7TextureP13RenderTextureiPK18SharedMaterialDataPKcP6ShaderiNS_9BlitFlagsE11CubemapFaceRK8Vector2fSH_
i3e:_String_LastIndexOf_m3451222878
O6l:__ZL69CanvasScaler_t2767979955_CustomAttributesCacheGenerator_m_ScaleFactorP21CustomAttributesCache
mVj:_ConfigHandler_CheckPath_m3079311646
c3:__ZN11UnityEngine15CloudWebService10RestClientINS0_23WebRequestRestHeaderMapEED2Ev
W4d:__ZN5physx2Sc5Scene13ccdBroadPhaseEPNS_10PxBaseTaskE
nm:_emscripten_glDepthMask
KYd:__ZN5physx2Gu24PCMMeshContactGeneration15processContactsEhb
Joi:_RemotingServices_CreateClientProxy_m3886727610
qQa:__ZN4crnd25static_huffman_data_model22prepare_decoder_tablesEv
Llj:_PCMSetPositionCallback_Invoke_m3905727039
wfc:__ZN16ReflectionProbesD2Ev
Dhh:_RecordProtocol_GetMessage_m2086135164
Vla:__ZL22CleanupUnityWebStreamsPv
I0b:__Z18Transfer_BlittableI18StreamedBinaryReadILb0EELb0E10ColorRGBAfEvRK29SerializationCommandArgumentsR31RuntimeSerializationCommandInfo
Esj:_Event_get_character_m2243045319
sha:__Znaj
_Cm:_emscripten_glEnableClientState__wrapper
FWk:__ZN6il2cpp2os10ThreadImpl2IdEv
k8:__ZN17MessageIdentifierC2EPKcNS_7OptionsEPKN5Unity4TypeES1_
zQ:__Z76AnimatorControllerPlayable_CUSTOM_INTERNAL_CALL_CrossFadeInFixedTimeInternalR9HPlayableifif
j1e:_Single_System_IConvertible_ToSByte_m1208276900
K0f:_Array_InternalArray__set_Item_TisVector4_t3319028937_m757305038_gshared
zVh:__Z105RuntimeInvoker_Void_t1185182177_RuntimeObject_RuntimeObject_RuntimeObject_RuntimeObject_Int32_t2950945753PFvvEPK10MethodInfoPvPS4_
ZSd:__ZN5physxL26solveFriction4_StaticBlockEPKNS_23PxcSolverConstraintDescERNS_16PxcSolverContextE
n$f:_Array_InternalArray__Insert_TisContactPoint_t3758755253_m151422964_gshared
qqb:__ZN14SafeBinaryRead8TransferI14ConstantStringEEvRT_PKc17TransferMetaFlags
DXd:__ZN5physx30PxcGetMaterialShapeHeightFieldEPKNS_12PxsShapeCoreES2_RNS_18PxcNpThreadContextEPNS_15PxsMaterialInfoE
Ssa:__ZNK6Camera16GetStereoEnabledEv
v_h:__Z72RuntimeInvoker_Int32_t2950945753_TimeSpan_t881159249_TimeSpan_t881159249PFvvEPK10MethodInfoPvPS4_
gih:_SendRecordAsyncResult_SetComplete_m153213906
ku:__ZN13AnimationClip9PPtrCurveaSERKS0_
ggc:__ZN12LightManager15InitializeClassEv
HHb:__ZN19SkinnedMeshRenderer23VirtualRedirectTransferER19StreamedBinaryWriteILb0EE
Sta:__ZN9ShaderLab11shaderprops16GetComputeBufferEPK19ShaderPropertySheetS3_NS_16FastPropertyNameE
jaa:__ZN18ScriptingArgumentsC2Ev
EIh:_Dictionary_2_System_Collections_IDictionary_get_Item_m1524611028_gshared
kgk:_UnityAction_1_Invoke_m286788042_gshared
bym:_emscripten_glBlendFuncSeparate__wrapper
nVi:_MessageEventArgs_get_Data_m1965083200
ngg:_FileSystemInfo__ctor_m3769019897
I8j:_Array_InternalArray__get_Item_TisContentType_t1787303396_m421427711_gshared
LNa:__Z17HasSampledTexture14GraphicsFormat13formatSupport
Q4a:__ZNK25CameraStackRenderingState27GetStereoImageEffectTextureEb
VUe:_HMACSHA384__ctor_m1677515580
VWe:_RIPEMD160Managed_J_m1336489154
Tnc:__ZN13BuildSettings13GetSceneIndexERKN4core12basic_stringIcNS0_20StringStorageDefaultIcEEEE
Ep:FUNCTION_TABLE_ii
Prb:__ZN10TagManager8TransferI18StreamedBinaryReadILb0EEEEvRT_
VHc:__Z18Transfer_BlittableI9JSONWriteLb0E8BitFieldEvRK29SerializationCommandArgumentsR31RuntimeSerializationCommandInfo
qig:_MemoryStream_set_Capacity_m1773624579
FJk:__ZNK15dense_hashtableINSt3__24pairIK10KeyWrapperINS1_IP11Il2CppClassjEEES4_EES6_N6il2cpp8metadata14ArrayClassHashEN14dense_hash_mapIS6_S4_SB_NS6_14EqualsComparerINSA_17ArrayClassCompareEEENS0_9allocatorIS8_EEE9SelectKeyESF_SH_E10test_emptyEj
SCf:_GC_SuppressFinalize_m1177400158
Qb:invoke_diiii
yll:_PlayableGraph_CreateScriptOutputInternal_m2136454423
uwm:b47
vXc:__ZL17sweepVolumeVsMeshPKN5physx3Cct9SweepTestEPKNS0_11TouchedMeshERNS0_12SweptContactERKNS_6PxVec3ERKNS_10PxGeometryERKNS_11PxTransformEjPKNS_10PxTriangleEj
Z0h:__Z95RuntimeInvoker_Void_t1185182177_RuntimeObject_RuntimeObject_SByte_t1669577662_SByte_t1669577662PFvvEPK10MethodInfoPvPS4_
Y$d:__ZN5physx2Gu31checkOverlapOBB_heightFieldGeomERKNS_10PxGeometryERKNS_11PxTransformERKNS0_3BoxE
Gmb:__Z24CreateDirectoryRecursiveRKN4core12basic_stringIcNS_20StringStorageDefaultIcEEEE
owm:b41
h6b:__ZN9ShaderLab20SerializedSubProgram8TransferI18StreamedBinaryReadILb0EEEEvRT_
mwm:b40
$Ac:__Z22MonoGUIContentToNative18ScriptingObjectPtrR10GUIContent
lQc:__ZN5physx2Gu23findRotationMatrixFromZERKNS_6PxVec3E
Nx:__ZN26AnimatorControllerPlayable13GenerateGraphEv
qFe:__ZN2UI13CanvasManager9AddCanvasEPNS_6CanvasE
DEa:__ZN9Texture3D8TransferI19StreamedBinaryWriteILb0EEEEvRT_
V5a:__ZNK6Camera22CalculateRenderingPathEv
nJc:__ZN9JSONWrite8TransferI5RectTIfEEEvRT_PKc17TransferMetaFlags
vId:__ZN5physx13NpVolumeCache10invalidateEv
hTa:__Z13ConvertMipmap14GraphicsFormatPKvS_Pviiii
YAb:__ZN28EnlightenRendererInformation8TransferI14SafeBinaryReadEEvRT_
JVb:__ZL12InvokeMethodI17RemapPPtrTransferEvRK29SerializationCommandArgumentsR31RuntimeSerializationCommandInfo
Loh:_RemoteCertificateValidationCallback_Invoke_m3086073466
k4e:_StringComparer_Compare_m991165676
jwe:_tt_sbit_decoder_load_image
wra:__Z14IsHalfRTFormat19RenderTextureFormat
y7j:_U3CStartU3Ec__Iterator0_Dispose_m261027331_gshared
mBg:_List_1_Find_m3485944732_gshared
rBc:__ZNSt3__24listIN10GUIManager12SortedScriptE11memory_poolIS2_EE6__sortI13OldSortScriptEENS_15__list_iteratorIS2_PvEESA_SA_jRT_
k2c:__ZN5physx6shdfnd5ArrayIPvNS0_19ReflectionAllocatorINS_2Sc10NPhaseCore16ClothListElementEEEE15growAndPushBackERKS2_
Xxh:_Enumerator_VerifyState_m1545185457_gshared
rdm:_RectTransform_INTERNAL_get_anchorMax_m2950850437
Rah:_PrivateKeyInfo_get_PrivateKey_m3647771102
COe:__ZN18UnityConnectClient12CloseServiceEv
Qv:__ZN13AnimationClip8TransferI17RemapPPtrTransferEEvRT_
eMk:__ZN6il2cpp6icalls8mscorlib6System9ThreadingL11ThreadStartEPv
tja:__ZN15DirectorManager12OnSampleTimeEv
wXf:_Array_InternalArray__IndexOf_TisMark_t3471605523_m2905388260_gshared
K5i:_TypeBuilder_check_not_created_m3652863637
_9e:_StandaloneInputModule_UpdateModule_m450861257
UVg:_ReadOnlyCollection_1_System_Collections_IList_Insert_m2928873627_gshared
aJf:_DateTime_get_UtcNow_m1393945741
C1j:_EqualityComparer_1__cctor_m314889309_gshared
psa:__ZN12CachedReader10Align4ReadEv
uZj:_X501__cctor_m2428304915
QQh:__Z50RuntimeInvoker_Void_t1185182177_Single_t1397266774PFvvEPK10MethodInfoPvPS4_
Upb:__ZNK9Behaviour22GetTypeVirtualInternalEv
$kd:__ZN5physx2Sc14ConstraintCore13setBreakForceEff
eQf:_CCGregorianCalendar_month_from_fixed_m4268992710
ZVf:_Array_compare_TisUICharInfo_t75501106_m1310495481_gshared
fgb:__Z21GetScriptingArraySize17ScriptingArrayPtr
Zpe:__ZN20TextRenderingPrivate8FontImpl8TransferI14SafeBinaryReadEEvRT_
twa:__Z35UnityPropertySheet_MakeSortedColorsRKNSt3__23mapIN9ShaderLab16FastPropertyNameE10ColorRGBAfNS_4lessIS2_EENS_9allocatorINS_4pairIKS2_S3_EEEEEER10vector_mapIS2_S3_S5_NS6_INS7_IS2_S3_EEEEE
gIk:__ZN14dense_hash_mapI10KeyWrapperIPK10Il2CppTypeEjN6il2cpp8metadata14Il2CppTypeHashENS4_14EqualsComparerINS6_26Il2CppTypeEqualityComparerEEENSt3__29allocatorINSB_4pairIKS4_jEEEEE13set_empty_keyERSE_
hUg:_ReadOnlyCollection_1_System_Collections_IList_Clear_m4022532825_gshared
yvi:_Encoding_get_ASCII_m3595602635
Ome:__ZZN14PhysicsManager15InitializeClassEvEN63EarlyUpdatePhysicsResetInterpolatedTransformPositionRegistrator7ForwardEv
lLa:__ZN9GfxDevice17ImmediateTexCoordEifff
z2i:_DerivedType_GetCustomAttributes_m3536779709
cCl:__ZL93Interlocked_t2273387594_CustomAttributesCacheGenerator_Interlocked_CompareExchange_m388540288P21CustomAttributesCache
m6i:_MethodBase_get_IsAbstract_m428833029
clm:_WorkRequest_Invoke_m2390295615_AdjustorThunk
kWb:__Z35Transfer_Blittable_FixedBufferFieldI24GenerateTypeTreeTransferhEvRK29SerializationCommandArgumentsR31RuntimeSerializationCommandInfo
Yvm:_emscripten_glUniform4f__wrapper
b9i:_MonoMethod_GetBaseDefinition_m2844667474
Kpg:_Enumerator_MoveNext_m2595190390_AdjustorThunk
Z2d:__ZN5physx6shdfnd5ArrayINS_25PxcThresholdStreamElementENS0_19ReflectionAllocatorIS2_EEE8recreateEj
u0:__Z78Register_UnityEngine_Audio_AudioPlayableOutput_INTERNAL_CALL_InternalSetTargetv
DXf:_Array_InternalArray__IndexOf_TisColor32_t2600501292_m3783551884_gshared
s8a:__ZNK6Camera16GetProjectionFarEv
ds:__Z24InverseTransformRotationRK23TransformAccessReadOnlyRKN4math7_float4E
w_j:_X509Chain_Build_m2469702749
Ozj:_Selectable_OnPointerEnter_m3378734298
mRe:__Z31GetPerformanceReportingSettingsv
Yxb:__ZNK14PlayableOutput11DerivesFromE17ScriptingClassPtr
IEa:__ZN7Texture34CreateFileTextureUploadInstructionE18TextureUploadFlagsj
_2a:__ZN13ComputeShader14SetBufferParamEjRKN9ShaderLab16FastPropertyNameE15ComputeBufferID
rrd:__ZN5physx7NpCloth21setCollisionMassScaleEf
l0d:__ZN5physx6shdfnd5ArrayINS_7PxPlaneENS0_19ReflectionAllocatorIS2_EEE8recreateEj
pne:__ZN13PhysicsModule17GetRigidBodyStateERK9RigidbodyPN8IPhysics14RigidBodyStateE
I5i:_TypeBuilder_DefineConstructor_m2989882735
$H:__ZN8Animator8TransferI14SafeBinaryReadEEvRT_
zea:__Z23AsyncReadForceCloseFileRKN4core12basic_stringIcNS_20StringStorageDefaultIcEEEE
zy:__ZN17AnimationPlayable34CollectAnimatorControllerPlayablesER13dynamic_arrayIP26AnimatorControllerPlayableLj4EE
v$:__ZN16BaseVideoTexture19UpdateVideoTexturesEv
VMi:_PatternCompiler_EmitRange_m2566284920
Kub:__Z28BuildSingleStreamChannelInfo17ShaderChannelMaskRK20VertexChannelsLayoutS_S2_P11ChannelInfo
Lzi:_Thread_GetCachedCurrentCulture_m3435630977
fDa:__ZNK16LightmapSettings23HasLightProbeTetrahedraEv
Ple:__ZN13ProduceHelperI15CapsuleColliderLb0EE7ProduceE18MemLabelIdentifier18ObjectCreationMode
oDb:__ZN6Sprite23VirtualRedirectTransferER19StreamedBinaryWriteILb0EE
RJk:__ZN14dense_hash_mapI10KeyWrapperIP11Il2CppClassES2_N6il2cpp8metadata16SZArrayClassHashENS3_14EqualsComparerINS5_19SZArrayClassCompareEEENSt3__29allocatorINSA_4pairIKS3_S2_EEEEE13set_empty_keyERSD_
Q6e:_EventTrigger_Execute_m2453060771
aXg:_Comparison_1_Invoke_m517083441_gshared
jfj:_AnimatorControllerPlayable_SetFloat_m1984993338_AdjustorThunk
HXh:__Z253RuntimeInvoker_Int32_t2950945753_RuntimeObject_Int32_t2950945753_Int32_t2950945753_RuntimeObject_Int32_t2950945753_UInt32U26_t3735378166_UInt32U26_t3735378166_RuntimeObject_DecoderFallbackBufferU26_t3866396827_ByteU5BU5DU26_t4057885439_SByte_t1669577662PFvvEPK10MethodInfoPvPS4_
qmh:_NameValueCollection_Get_m1006871566
wDk:__ZNK15dense_hashtableINSt3__24pairIK10KeyWrapperINS1_IPK9FieldInfoP11Il2CppClassEEEjEES9_17ReflectionMapHashIS8_EN14dense_hash_mapIS9_jSD_NS9_14EqualsComparerINS0_8equal_toIS8_EEEENS0_9allocatorISB_EEE9SelectKeyESI_SK_E5beginEv
iua:__ZNK9ShaderLab7Program19HasMatchingVariantsERK13dynamic_arrayI16ShaderKeywordSetLj4EE
ZF:__ZN15SerializeTraitsIN4math4trsXEE8TransferI8BlobSizeEEvRS1_RT_
rOa:__ZN14DataBufferGLES11CopySubDataEPKS_jjj
Qe:_emscripten_glVertexPointer
GXa:__ZNSt3__26__treeI20DeviceDepthStateGLES11memcmp_lessIS1_S1_ENS_9allocatorIS1_EEE7destroyEPNS_11__tree_nodeIS1_PvEE
hHe:__ZN2UI13PrepareOutputERNS_7BatchesEjjNS_30AdditionalCanvasShaderChannelsE
Gyk:__ZN6il2cpp2vm7Runtime47RaiseExecutionEngineExceptionIfMethodIsNotFoundEPK10MethodInfo
KMi:_PatternCompiler_GetMachineFactory_m3758869886
Bbb:__Z17GetFrustumPortionPK8Vector3fffPS_
_4c:__ZNK5physx2Gu22SupportMapRelativeImplINS0_4BoxVEE18doWarmStartSupportEiRNS_6shdfnd3aos5Vec3VE
iPk:__ZN15dense_hashtableINSt3__24pairIK10KeyWrapperIP14Il2CppIUnknownEjEES5_N6il2cpp5utils11PointerHashIS3_EEN14dense_hash_mapIS5_jSB_NS5_14EqualsComparerINS0_8equal_toIS4_EEEENS0_9allocatorIS7_EEE9SelectKeyESG_SI_E14squash_deletedEv
f7e:_EventTrigger_OnCancel_m585099428
a0i:_Default_check_arguments_m3882727959
qsi:_RuntimeTypeHandle_Equals_m2857439487_AdjustorThunk
arh:_PublicKey_get_Key_m3077215602
oRg:_ReadOnlyCollection_1_System_Collections_Generic_IListU3CTU3E_set_Item_m88350439_gshared
wYg:_Func_3_Invoke_m1194147890_gshared
oPi:_Reference_Compile_m4195878675
CTg:_ReadOnlyCollection_1_System_Collections_ICollection_CopyTo_m2672196987_gshared
$1e:_String_System_IConvertible_ToChar_m863771412
oR:__Z90Register_UnityEngine_Animations_AnimatorControllerPlayable_INTERNAL_CALL_CrossFadeInternalv
smm:_Vector4_ToString_m592115335_AdjustorThunk
I_c:__ZN5physx3Cct10Controller13onOriginShiftERKNS_6PxVec3E
Lvf:_ArrayList__ctor_m3828927650
JUa:__ZN10Matrix3x3f15InvertTransposeEv
Kaj:_PropertyInfo_SetValue_m2777755129
HRd:__ZN5physx2Gu19_gjkRelativeRayCastINS0_9TriangleVENS0_11ConvexHullVEEEbRT_RT0_RKNS_6shdfnd3aos15PsMatTransformVERKNS9_6FloatVERKNS9_5Vec3VESI_RSD_RSG_SK_f
rUb:__Z29Transfer_Blittable_ArrayFieldI14SafeBinaryRead8Vector3fEvRT_R9ArrayInfoRK23StaticTransferFieldInfo
Wrh:_X509Chain_GetAuthorityKeyIdentifier_m2237883181
Rqe:__ZN20TextRenderingPrivate8FontImpl18ResetCachedTextureEv
UWd:__ZNK5physx19ActorAABBUpdateTask7getNameEv
ZIi:_X509KeyUsageExtension_Decode_m3150759625
$0k:_GC_print_finalization_stats
fsc:__Z53Register_UnityEngine_Behaviour_get_isActiveAndEnabledv
Nqf:_SimpleEnumerator_get_Current_m72361444
Ir:__ZNSt3__26vectorIN4core12basic_stringIcNS1_20StringStorageDefaultIcEEEENS_9allocatorIS5_EEE8__appendEj
uWh:__Z119RuntimeInvoker_RuntimeObject_Byte_t1134296376_RuntimeObject_SByte_t1669577662_RuntimeObject_RuntimeObject_RuntimeObjectPFvvEPK10MethodInfoPvPS4_
yMb:__ZN26PlayerSettingsSplashScreen8TransferI17RemapPPtrTransferEEvRT_
z0g:_ASN1_set_Value_m2803403806
pxk:__ZN6il2cpp6icalls8mscorlib6SystemL17CollectTypeFieldsINS_5utils10functional10TrueFilterEEEvP11Il2CppClassPKS7_iRNSt3__26vectorIP9FieldInfoNSB_9allocatorISE_EEEERKT_
A5c:__ZN5physx3Scb5Scene20addArticulationJointERNS0_17ArticulationJointE
rGd:__ZN5physx7NpScene14resetFilteringERNS_12PxRigidActorEPKPNS_7PxShapeEj
_9b:__Z13GetTagManagerv
zzf:_Hashtable__ctor_m1815022027
brj:_Native_CSSNodeMeasureInvoke_m991992539
Zfk:_InvokableCall_2_Invoke_m4103345430_gshared
uyi:_UTF8Encoding_GetChars_m1433288684
Zhm:_TextEditor_DeleteLineBack_m1320598486
Ilk:__ZL10roundUp128PyS_
l1:__ZN11UnityEngine15CloudWebService17CloudJobSchedulerD0Ev
Uee:__ZN15CapsuleCollider23VirtualRedirectTransferER14SafeBinaryRead
FBa:__ZN18LoadSceneOperation7PerformEv
TLd:__ZN5physx2Sc5Scene26setSimulationEventCallbackEPNS_25PxSimulationEventCallbackEh
oCi:_TimeZone_ToUniversalTime_m2789507578
MQh:__Z96RuntimeInvoker_Boolean_t97287965_RuntimeObject_RuntimeObject_Int32_t2950945753_Int32_t2950945753PFvvEPK10MethodInfoPvPS4_
GWf:_Array_IndexOf_TisUICharInfo_t75501106_m3198896198_gshared
QFe:__ZNK2UI11CanvasGroup22GetTypeVirtualInternalEv
Bfh:_Context_get_Current_m2853615040
OPc:__ZL30GeomMTDCallback_CapsuleCapsuleRN5physx6PxVec3ERfRKNS_10PxGeometryERKNS_11PxTransformES5_S8_
XGd:__ZN5physx7NpScene23forceDynamicTreeRebuildEbb
dYc:__ZL18intersectAnyVsMeshILi0EEbPKN5physx2Gu6SphereEPKNS1_7CapsuleEPKNS1_3BoxERKNS1_13RTreeMidphaseERKNS0_11PxTransformERKNS0_11PxMeshScaleEP14LimitedResults
Xel:_GUIStyle_INTERNAL_set_contentOffset_m1976585748
sYi:_WebSocketFrame_createMaskingKey_m433765116
Z9k:_GUIUtility_Internal_GetKeyboardControl_m389300845
JBc:__Z21CleanupGlobalGUIStatev
tDi:_Type_IsContextfulImpl_m3693603908
qcd:__ZN5physx14NpArticulation6wakeUpEv
fWa:__ZN22VertexDeclarationCache5ClearEv
Vti:_CspParameters__ctor_m3852972821
Gkb:__ZN17PersistentManager12SetPathRemapERKN4core12basic_stringIcNS0_20StringStorageDefaultIcEEEES6_
ZUi:_Logger__ctor_m116106093
VA:__Z27ProcessRootMotionEmptyMixerP35AnimationPlayableEvaluationConstantP32AnimationPlayableEvaluationInputP33AnimationPlayableEvaluationOutput
hdb:__ZN6Camera24PrepareCullingParametersERK23CameraCullingParameters13RenderingPathR11CullResults
unc:__Z12SetIUISystemP9IUISystem
RBa:__ZN19RuntimeSceneManager22EndIntegrateMainThreadEP10UnitySceneNS_11LoadingModeE
SRg:_ReadOnlyCollection_1_System_Collections_Generic_IListU3CTU3E_set_Item_m157706389_gshared
LVb:__Z26Transfer_UnityEngineObjectI17RemapPPtrTransferLb0EEvRK29SerializationCommandArgumentsR31RuntimeSerializationCommandInfo
QKi:_QuickSearch_GetShiftDistance_m2542665852
p5f:_Array_InternalArray__get_Item_TisCustomAttributeTypedArgument_t2723150157_m2639399822_gshared
O_g:_BigInteger_GenerateRandom_m3141592944
UXb:__Z29Transfer_Blittable_ArrayFieldI24GenerateTypeTreeTransfer4AABBEvRT_R9ArrayInfoRK23StaticTransferFieldInfo
b2k:_GC_adj_bytes_allocd
nhf:_Graphic_CacheCanvas_m1120385152
U8d:__ZN5physx20InternalTriangleMesh16allocateVerticesEj
dlj:_AudioClipPlayable_ValidateStartDelayInternal_m955986484_AdjustorThunk
aVd:__ZN5physx6shdfnd5ArrayINS_17PxcBroadPhasePairENS0_19ReflectionAllocatorIS2_EEE8recreateEj
Mcc:__ZNK17AnimationCurveTplIfE20FindIndexForSamplingERKNS0_5CacheEfRiS4_
Ja:invoke_fiiifii
Com:_modff
cHf:_Convert_ConvertToBase16_m2849966797
pWc:__ZThn4_N16RayRTreeCallbackILi1ELb0EED1Ev
Lsh:_Socket_get_Blocking_m140927673
mbb:__ZN20SphericalHarmonicsL219AddDirectionalLightERKN4math7_float3ERKNS0_7_float4E
C7d:__ZN5physx13BigConvexDataD2Ev
mja:__Z26ScheduleJobForEachInternalR8JobFencePFvPvjES1_iPFvS1_E11JobPriority
P0a:__ZZ23InitPlayerLoopCallbacksvEN41PostLateUpdateProfilerEndFrameRegistrator7ForwardEv
eoc:__ZN9Scripting18RaiseMonoExceptionEPKcz
$zb:__ZN9Texture2D8TransferI19StreamedBinaryWriteILb0EEEEvRT_
X_e:_StrongNamePublicKeyBlob_Equals_m3655422942
_$e:_SecurityContext__ctor_m1730177197
Ggc:__ZN9ShaderLab16FastPropertyName15InitBy28BitHashEj
lrg:_List_1_System_Collections_IList_Add_m2937161398_gshared
DJg:_Collection_1_Contains_m3960178049_gshared
bUh:__Z96RuntimeInvoker_Void_t1185182177_Int32_t2950945753_Single_t1397266774_RuntimeObject_RuntimeObjectPFvvEPK10MethodInfoPvPS4_
dXd:__ZN5physx20updateBodyShapeAABBsEPKjjS1_PKNS_17PxcAABBDataStaticEPNS_11IntegerAABBEj
pcc:__ZN13ProduceHelperIN2UI13RectTransformELb0EE7ProduceE18MemLabelIdentifier18ObjectCreationMode
Dyh:_Enumerator_System_Collections_IDictionaryEnumerator_get_Key_m195047678_AdjustorThunk
OFb:__ZN17PackedFloatVector12UnpackFloatsEPfiiii
cEk:__ZN30dense_hashtable_const_iteratorINSt3__24pairIK10KeyWrapperIPK10Il2CppTypeEjEES6_N6il2cpp8metadata14Il2CppTypeHashEN14dense_hash_mapIS6_jSB_NS6_14EqualsComparerINSA_26Il2CppTypeEqualityComparerEEENS0_9allocatorIS8_EEE9SelectKeyESF_SH_EppEv
$D:__ZN17AnimationPlayable28UpdateInternalStateRecursiveILi3ELb0EEEvPK35AnimationPlayableEvaluationConstant
hMa:__ZN13GfxDeviceGLES21DestroyComputeProgramER12ObjectHandleI18ComputeProgram_TagPvE
eNi:_PatternCompiler_EmitIfDefined_m2075050865
iLf:_Decimal_System_IConvertible_ToInt64_m1446427516_AdjustorThunk
Tga:__ZN17UniqueIDGenerator16DestroyPureIndexEj
wog:_NotImplementedException__ctor_m3095902440
Zca:__ZL21AppendNestedClassName17ScriptingClassPtrRN4core17string_with_labelILi1EEE
X3b:__ZN14SafeBinaryRead21TransferSTLStyleArrayINSt3__26vectorIN9ShaderLab20SerializedSubProgram12UAVParameterENS1_9allocatorIS5_EEEEEEvRT_17TransferMetaFlags
Xll:_PlayableHandle_SetPlayState_m1282700438_AdjustorThunk
u2:__ZN24TextDOMTransferWriteBaseI9JSONWriteE12PushMetaFlagEi
Yqd:__ZN5physx7NpCloth22removeCollisionCapsuleEj
Tza:__ZN6prcoreL26RemapGenericIntegerToFloatI17TexFormatARGB888815TexFormatRFloatEEvPKNS_9InnerInfoE
xBk:__ZN6il2cpp2vm17TypeNameParseInfoD2Ev
t4j:_PrimeHelper_ToPrime_m3704362632_gshared
e3d:__ZN5physx18PxsSolverStartTask16articulationTaskEv
Jsj:_Event_get_commandName_m3342234398
IBb:__ZNK8Renderer8GetLayerEv
K6c:__ZN5physx6shdfnd4sortIPvNS0_4LessIS2_EENS0_19ReflectionAllocatorINS_2Cm5BlockIS2_Lj16EEEEEEEvPT_jRKT0_RKT1_j
njg:_Stream_Close_m771352034
Ktb:__ZN12FlareManager11DeleteFlareEi
F7a:__ZNK6Camera20GetReplacementShaderEv
ykd:__ZN18MultiQueryCallbackIN5physx12PxRaycastHitEE6invokeERfPKNS0_2Sq13PrunerPayloadEj
i4b:__ZNSt3__26vectorIN9ShaderLab20SerializedSubProgram14ConstantBufferENS_9allocatorIS3_EEE7reserveEj
WDa:__ZL23stbir__calculate_memoryP11stbir__info
ORg:_ReadOnlyCollection_1_System_Collections_Generic_IListU3CTU3E_Insert_m1503398693_gshared
p8h:__Z73RuntimeInvoker_Void_t1185182177_Playable_t459825607_FrameData_t2602190594PFvvEPK10MethodInfoPvPS4_
odl:_GUIStyle__ctor_m2204791900
VKi:_Interpreter_Close_m126356671
CMc:__ZNK9rapidjson12GenericValueINS_4UTF8IcEE13JSONAllocatorE6AcceptINS_12PrettyWriterI16TempBufferWriterS2_S2_S3_EEEEbRT_
_jl:_Object_Instantiate_m3242828326
NUl:__ZL113AnimatorStateInfo_t509032636_CustomAttributesCacheGenerator_AnimatorStateInfo_t509032636____nameHash_PropertyInfoP21CustomAttributesCache
v3a:__ZNK6Camera18GetRenderRectangleEv
Rqh:_X509Chain_Reset_m1198177101
OJi:_CategoryUtils_CategoryFromName_m1352081402
UNi:_Parser_HandleExplicitNumericGroups_m1412234891
F8j:_Array_InternalArray__get_Item_TisRaycastHit2D_t2279581989_m2440275162_gshared
UQ:__Z82AnimatorControllerPlayable_CUSTOM_INTERNAL_CALL_IsParameterControlledByCurveStringR9HPlayableP12Il2CppString
BKc:__ZL26Transfer_SimpleNativeClassI8JSONRead10RectOffsetLb1EEvRK29SerializationCommandArgumentsR31RuntimeSerializationCommandInfo
SIe:__Z44CanvasRenderer_CUSTOM_INTERNAL_CALL_SetColorP12Il2CppObjectRK10ColorRGBAf
Qsh:_NetworkStream_get_Length_m2134439603
FEh:_Enumerator_MoveNext_m3045873697_AdjustorThunk
Fbk:_Enumerator_System_Collections_IEnumerator_Reset_m959124362_AdjustorThunk
jBh:_ShimEnumerator_get_Entry_m3327188848_gshared
SOf:_Enum_ToObject_m121831801
Hbe:__ZN5physx2Gu27computeBoundsAroundVerticesERNS_9PxBounds3EjPKNS_6PxVec3E
Kjf:_Image_get_hasBorder_m3423344180
FHc:__Z18Transfer_BlittableI9JSONWriteLb1EsEvRK29SerializationCommandArgumentsR31RuntimeSerializationCommandInfo
xFd:__ZNK5physx7NpScene9getLimitsEv
nMe:__Z48UnityAnalyticsHandler_CUSTOM_SendCustomEventNameP12Il2CppObjectP12Il2CppString
Sqc:__ZN9Transform16SetLocalRotationERK11Quaternionf
kPe:__ZN9rapidjson15GenericDocumentINS_4UTF8IcEE13JSONAllocatorNS_12CrtAllocatorEE6StringEPKcjb
it:__ZN13AnimationClip16DecompressCurvesERNSt3__26vectorI24CompressedAnimationCurve13stl_allocatorIS2_L18MemLabelIdentifier25ELi16EEEE
Kll:_PlayableHandle_GetInputCountInternal_m2875600498
U1a:__ZN13RenderManager37RenderCamerasWithScriptableRenderLoopEi
VVd:__ZN3MBP12updateObjectEjRK5IAABB
_ri:_RuntimeMethodHandle__ctor_m2229201676
eBi:_TimeSpan__ctor_m3689759052
M9c:__ZN5physx6shdfnd5ArrayINS_6PxVec3ENS0_19ReflectionAllocatorIS2_EEE15growAndPushBackERKS2_
gia:__ZN23InstancedPropInfoStaticL16RegisterCallbackEPv
gLa:__ZN13GfxDeviceGLES22ReleaseThreadOwnershipEv
nji:__Z37RuntimeInvoker_Enumerator_t3123848928PFvvEPK10MethodInfoPvPS4_
ESk:__ZN6il2cpp2os19ReleaseSocketHandleEj
$_:__ZN11AudioModule16GetDSPSampleRateEv
uJd:__ZN5physx2Sc5Scene20fireTriggerCallbacksEv
I0f:_Array_InternalArray__set_Item_TisVector2_t2156229523_m2671087464_gshared
Pkf:_InputField_get_characterValidation_m4196664041
$gl:_Material_EnableKeyword_m2512384881
SOd:__ZN5physx2Sq10AABBPrunerC2Eb
wCi:_Type_get_Attributes_m58528356
RFe:__ZN2UI11CanvasGroup23VirtualRedirectTransferER19StreamedBinaryWriteILb0EE
qRd:__ZN5physx2Gu18GJKRelativeRayCastERNS0_8CapsuleVERNS0_4BoxVERKNS_6shdfnd3aos15PsMatTransformVERKNS6_6FloatVERKNS6_5Vec3VESF_RSA_RSD_SH_fb
ypf:_Array_GetUpperBound_m4018715963
aVk:__ZN6il2cpp2os5posix15PosixWaitObjectC2ENS2_4TypeE
Q5a:__ZN6Camera21PostMultiCustomRenderENS_10RenderFlagEb
SYe:_SHA512Managed_HashFinal_m2173184560
kHa:__ZN23ShaderVariantCollection13WarmupShadersEv
byh:_Enumerator_System_Collections_IDictionaryEnumerator_get_Entry_m1355283127_AdjustorThunk
Eca:__Z25GetCommonScriptingClassesv
gCa:__Z27scripting_gc_collect_unsafei
hWg:_ReadOnlyCollection_1__ctor_m1747474077_gshared
e$:__ZN11AudioModule20SuspendVideoTexturesEv
oYf:_Array_InternalArray__ICollection_Add_TisKeyValuePair_2_t71524366_m3468275433_gshared
bgc:__ZN12CubemapArrayC2E18MemLabelIdentifier18ObjectCreationMode
jBd:__ZN5physx13NpRigidStaticC2ERKNS_11PxTransformE
Wal:_GUIContent__ctor_m2071985933
vIb:__Z26CalculateBlendedSkinMatrixILi2EEvRN4math8float4x4EPK10Matrix4x4fPKvj
dBe:_UNITY_FT_GlyphLoader_CheckPoints
ymf:_InputField_LineDownCharacterPosition_m2798128425
CRd:__ZN5physxL20PxcSweepBoxTrianglesERKNS_11PxsCCDShapeES2_RKNS_11PxTransformES5_S5_S5_fRNS_6PxVec3ES7_RNS_10PxcNpCacheERNS_18PxcNpThreadContextERKNS_2Cm23FastVertex2ShapeScalingERNS_2Gu9TriangleVEf
Y_c:__ZN5physx3Cct15ObstacleContextD0Ev
aFa:__ZN15SharedLightData7PrecalcEv
UCa:__ZN10Matrix4x4fmLERKS_
oPf:_Environment_InternalGetFolderPath_m468390978
t$a:__ZN15ArchiveReadFileD0Ev
UNe:__ZN11UnityEngine15PlatformWrapper18GetOperatingSystemEv
K0e:_SecurityFrame_ToString_m339310712
lKd:__ZN5physx3Scb9Aggregate9syncStateERNS0_5SceneE
_Pc:__ZN5physx2Gu13GeometryUnion3setERKNS_10PxGeometryE
SPf:_Calendar__ctor_m106290643
dLc:__ZN8GUIStyle8TransferI8JSONReadEEvRT_
t7f:_NumberFormatter_FormatDecimal_m1921932981
wxk:__ZN6il2cpp6icalls8mscorlib6System8MonoType19GetGenericArgumentsEP20Il2CppReflectionType
Baf:_TouchInputModule_ProcessTouchPress_m3504077560
Fzj:_Selectable_IsInteractable_m2611421038
$Ae:_FT_MSB
pAm:_emscripten_glReadPixels__wrapper
K4j:_HashSet_1_Add_m1971460364_gshared
Shc:__ZZL23RegisterLightPropertiesR22GenericPropertyBindingEN29Wrapper_LightShadowNormalBias13GetFloatValueEPv
y5k:__ZN6il2cpp6icalls8mscorlib4Mono8Security12Cryptography18KeyPairPersistence10_CanSecureEP12Il2CppString
ERf:_Array_InternalArray__ICollection_Contains_TisParameterModifier_t1461694466_m1000453323_gshared
Ufd:__ZN5physx7NpActor17resolveReferencesERNS_24PxDeserializationContextE
Mne:__ZN9Rigidbody15InitializeClassEv
wKh:_Dictionary_2_System_Collections_ICollection_CopyTo_m4047192178_gshared
gfk:_CachedInvokableCall_1_Invoke_m1752113133_gshared
NAk:__ZN6il2cpp2os4File11GetFileStatERKNSt3__212basic_stringIcNS2_11char_traitsIcEENS2_9allocatorIcEEEEPNS0_8FileStatEPi
zWe:_RIPEMD160Managed_Initialize_m2173168986
OIa:__ZN13GfxDeviceGLES14SetRasterStateEPK17DeviceRasterState
i$i:_Assembly_ToString_m2053237013
i2c:__ZN5physx6shdfnd8internal8HashBaseINS0_4PairIKPKNS_2Sc8ShapeSimENS4_10NPhaseCore16ClothListElementEEES7_NS0_4HashIS7_EENS1_11HashMapBaseIS7_SA_SD_NS0_9AllocatorEE6GetKeyESF_Lb1EE5eraseERS8_
P1c:__ZN5physx5Elems17setStaticAABBDataEjRKNS_17PxcAABBDataStaticE
Hjl:_Object_Destroy_m2752645118
Ara:__ZN14SafeBinaryRead11EndTransferEv
OSb:__ZN14SafeBinaryRead8TransferI8MonoPPtrEEvRT_PKc17TransferMetaFlags
IOf:_Enum_System_IConvertible_ToUInt16_m4216751959
rUa:__ZN21UniformBufferTFMethod13MapBoneBufferEj
R_f:_Array_InternalArray__Insert_TisInt32_t2950945753_m4073217122_gshared
aXe:_RNGCryptoServiceProvider_RngClose_m3915778345
bCf:_SortedList_Remove_m2784369438
PB:__ZN7mecanim5human14HumanPoseClearERNS0_9HumanPoseERKNS_6bitsetILj70EEE
ida:__ZN14SerializedFileD2Ev
vre:__ZNSt3__26vectorIN20TextRenderingPrivate8FontImpl7IntRectE13stl_allocatorIS3_L18MemLabelIdentifier34ELi16EEE21__push_back_slow_pathIKS3_EEvRT_
GCc:__Z30Event_Get_Custom_PropModifiersP12Il2CppObject
X7c:__ZN5physx6shdfnd5ArrayIPvNS0_16AlignedAllocatorILj64ENS0_9AllocatorEEEE15growAndPushBackERKS2_
Py:__ZN7mecanim9animation16CreateClipOutputEPKNS0_4ClipERNS_6memory9AllocatorE
Epg:_Enumerator_System_Collections_IEnumerator_Reset_m688431936_AdjustorThunk
vvj:_RawImage_get_mainTexture_m2396337033
tCk:__ZN6il2cpp2vm10Reflection17GetAssemblyObjectEPK14Il2CppAssembly
l_c:__ZN5physx3Cct12SweptCapsuleC2Ev
R2b:__ZN6Shader21AwakeFromLoadThreadedEv
opg:_ObjectDisposedException_GetObjectData_m2330532076
Vya:__ZN6prcoreL17RemapGenericFloatI17TexFormatRGBFloat17TexFormatRGBAHalfEEvPKNS_9InnerInfoE
J_g:_BigInteger__ctor_m3991350270
mMc:__ZN8JSONRead21TransferSTLStyleArrayI13dynamic_arrayI8Vector2fLj4EEEEvRT_18MemLabelIdentifier17TransferMetaFlags
hle:__ZN5physx24PxcContactBoxHeightFieldERKNS_2Gu13GeometryUnionES3_RKNS_11PxTransformES6_RKfRNS_10PxcNpCacheERNS0_13ContactBufferE
M6k:__ZN6il2cpp2os9SemaphoreC2Eii
QSb:__ZNSt3__26vectorI8MonoPPtr13stl_allocatorIS1_L18MemLabelIdentifier1ELi16EEE8__appendEj
t6a:__ZN14qsort_internal30FindAndMovePivotToLastPositionIP17RODataReplacementi19ROSorterReplacementEEvT_S4_T0_T1_
CUa:__ZN15UniformTFMethod20IsBoneCountSupportedEi
LWd:__ZNK5physx23AggregateAABBUpdateTask7getNameEv
dHi:_UnauthorizedAccessException__ctor_m246605039
ctm:dynCall_viidi
ecj:_AnimationCurve_Cleanup_m3505736496
uEg:_Queue_1_Dequeue_m3500064045_gshared
uaa:__ZN24ScriptingMethodFiltering17FilterOnSignatureENS_18MethodSearchFilterE
pHh:_Dictionary_2_set_Item_m470799648_gshared
G6d:__ZN5physx13NpClothFabric16scaleRestlengthsEf
r_:__ZN13ProduceHelperI9AudioClipLb0EE7ProduceE18MemLabelIdentifier18ObjectCreationMode
hma:__ZN18ScreenManagerWebGL13SetLockCursorE14CursorLockMode
xAe:_cf2_arrstack_finalize
SZj:_X509Certificate_VerifySignature_m3538124832
dGj:_InternalEnumerator_1_System_Collections_IEnumerator_get_Current_m1299065558_AdjustorThunk
Vcm:_RectOffset_Init_m3786816665
rjg:_StreamAsyncResult_SetComplete_m1102187093
_bc:__ZN13MonoBehaviour19HandleNotificationsEPviR11MessageData
SCd:__ZN5physx6shdfnd5ArrayIPNS_2Sc17ParticleSystemSimENS0_19ReflectionAllocatorIS4_EEE8recreateEj
VAg:_List_1_System_Collections_IList_Remove_m4226673807_gshared
Cbh:_Alert__ctor_m3135936936
akb:__Z14SetPlayerFocusb
zdg:_Int64_System_IConvertible_ToInt32_m772105781
tdh:_TlsClientSettings__ctor_m3220697265
Nwm:b58
QJh:_Dictionary_2_make_pair_m2250450206_gshared
awi:_ForwardingDecoder_GetChars_m4228908854
Y1a:__ZN25CameraStackRenderingState18EndStereoRenderingEv
oLi:_InterpreterFactory_get_GroupCount_m2226373271
Cwm:b53
zwm:b50
Awm:b51
G_d:__ZN5physx9PxTaskMgrD0Ev
Iwm:b57
Dwm:b54
Ewm:b55
DZg:_SimpleCollator_IsSafe_m310268646
mvh:_WebProxy_System_Runtime_Serialization_ISerializable_GetObjectData_m430220241
aim:_TextEditor_FindStartOfNextWord_m2606943847
F5g:_X509Certificate_get_RawData_m2387471414
Uqf:_ArrayTypeMismatchException__ctor_m3375008173
qCh:_Transform_1_BeginInvoke_m1757796657_gshared
wdi:__Z88RuntimeInvoker_Int32_t2950945753_UIVertex_t4057497605_UIVertex_t4057497605_RuntimeObjectPFvvEPK10MethodInfoPvPS4_
Qac:__ZN10GameObject12CleanupClassEv
Had:__ZN5physx3Scb5Scene13addRigidNoSimINS0_11RigidStaticELb0ELb1EEEvRT_RNS0_13ObjectTrackerE
cwb:__ZN15SerializeTraitsI13dynamic_arrayI11TetrahedronLj4EEE19ResizeSTLStyleArrayERS2_i18MemLabelIdentifier
sJa:__ZN9GfxDevice25SetShaderPropertiesSharedERK19ShaderPropertySheet
vbf:_BaseMeshEffect_get_graphic_m1852367505
Fyf:_CaseInsensitiveHashCodeProvider_GetHashCode_m2168170016
fQb:__ZN10MonoScript17MainThreadCleanupEv
pml:_PlayableOutput_GetPlayableOutputType_m2423548448_AdjustorThunk
_3e:_String_CreateString_m3400201881
ohc:__ZL25InitializeDefaultMaterialv
qJe:__Z53Register_UnityEngine_CanvasRenderer_get_materialCountv
Iaj:_PropertyInfo_get_MemberType_m2794839864
axh:_Comparer_1_System_Collections_IComparer_Compare_m4179495191_gshared
tnh:_DeflateStream_get_CanRead_m1715247727
dGa:__ZN17PersistentManager12UnloadStreamERKN4core12basic_stringIcNS0_20StringStorageDefaultIcEEEEb
tZa:__ZN10MemoryFile4ReadEyyPvPy
gL:__ZN15SerializeTraitsI9OffsetPtrIN7mecanim9animation17BlendTreeConstantEEE8TransferI19StreamedBinaryWriteILb0EEEEvRS4_RT_
w$f:_Array_InternalArray__Insert_TisUICharInfo_t75501106_m2924156520_gshared
bYf:_MonoProperty_GetterAdapterFrame_TisRuntimeObject_TisRuntimeObject_m458718082_gshared
_la:__ZN13ScreenManager17RequestResolutionEiibi
aAk:_il2cpp_unity_liveness_calculation_from_statics
rC:__ZNK26AnimatorControllerPlayable11DerivesFromE17ScriptingClassPtr
NOj:_InternalEnumerator_1_System_Collections_IEnumerator_get_Current_m2649471526_gshared
fCb:__ZN8Renderer8TransferI17RemapPPtrTransferEEvRT_
Ywm:_glBlitFramebuffer__wrapper
zyh:_Enumerator_System_Collections_IDictionaryEnumerator_get_Entry_m522483686_gshared
n3g:_PrivateKeyInfo_RemoveLeadingZero_m3921889925
Gij:_AnimatorControllerPlayable_HasState_m1203533410_AdjustorThunk
esd:__ZNK5physx2Sc9ClothCore16getCollisionDataEPNS_22PxClothCollisionSphereEPjPNS_21PxClothCollisionPlaneES4_PNS_24PxClothCollisionTriangleE
Jgb:__Z24LookRotationToQuaternionRK8Vector3fS1_P11Quaternionf
Hgb:__ZN16ReflectionProbes9GetCameraEv
SHe:__ZN2UI6Canvas17SetSortingLayerIDEi
ZUk:__ZN6il2cpp2vm11MethodStack23CleanupForCurrentThreadEv
TOg:_Collection_1_ConvertItem_m618594517_gshared
LHf:_Convert_ToUInt64_m388601487
gub:__ZN20TierGraphicsSettings8TransferI24GenerateTypeTreeTransferEEvRT_
Isk:__ZN15dense_hashtableINSt3__24pairIK10KeyWrapperIN6il2cpp5utils13dynamic_arrayIPK10Il2CppTypeLj4EEEEPFvvEEESA_NS3_8metadata19Il2CppSignatureHashEN14dense_hash_mapISA_SD_SG_NSA_14EqualsComparerINSF_22Il2CppSignatureCompareEEENS0_9allocatorISE_EEE9SelectKeyESK_SM_E16reset_thresholdsEv
u$f:_Array_InternalArray__Insert_TisTextEditOp_t1927482598_m1358161447_gshared
CZ:__ZN13AudioPlayable25UpdateChannelGroupVisitorERK16AudioProcessData
Agk:_UnityAction_1_Invoke_m3689685399_gshared
jUb:__ZN14SafeBinaryRead21TransferSTLStyleArrayI13dynamic_arrayI4AABBLj4EEEEvRT_17TransferMetaFlags
Q5j:_AesTransform_Decrypt128_m3018534522
owa:__ZN18UnityPropertySheet8TransferI19StreamedBinaryWriteILb0EEEEvRT_
xtj:_LayoutUtility_GetMinSize_m2572843166
aka:__ZNSt3__26__treeINS_12__value_typeIiN11TypeManager18TypeCallbackStructEEENS_19__map_value_compareIiS4_NS_4lessIiEELb1EEENS_9allocatorIS4_EEE7destroyEPNS_11__tree_nodeIS4_PvEE
eoi:_RemotingProxy_get_TypeName_m4085898624
lkc:__ZNK14PlayableOutput23GetSourcePlayableUnsafeEv
Tsa:__ZL19GetCameraTargetRectRK6Camerabb
UMe:__ZN11UnityEngine7Connect17XRDeviceInfoEventD0Ev
gyl:__ZL60SoapTypeAttribute_t1750930817_CustomAttributesCacheGeneratorP21CustomAttributesCache
Ahb:__ZN13dynamic_arrayIN10GameObject13ComponentPairELj4EE6insertEPS1_RKS1_
V$i:_Binder_ConvertArgs_m2124461494
Tob:__ZN21UnityDefaultAllocatorI17LowLevelAllocatorE10DeallocateEPv
I5:__GLOBAL__sub_I_runtime_camera2_lump_cpp
rvl:__ZL52MethodBase_t609368412_CustomAttributesCacheGeneratorP21CustomAttributesCache
zvb:__ZN15SharedLightData22UpdateCookieTextureRefEv
Tu:__ZN15PackedIntVector8TransferI14SafeBinaryReadEEvRT_
BHj:_InternalEnumerator_1_System_Collections_IEnumerator_get_Current_m1514266661_gshared
Zdd:__ZNK5physx19NpArticulationJoint20getTangentialDampingEv
qah:_MD5SHA1_Initialize_m675470944
$Yf:_Array_InternalArray__ICollection_Add_TisKeyframe_t4206410242_m442111799_gshared
tyg:_List_1_CheckMatch_m3263549496_gshared
PT:__ZN13AudioListener8DoUpdateEv
_Oc:__ZN5physx3Cct10Controller22setUpDirectionInternalERKNS_6PxVec3E
kdg:_Int32_GetTypeCode_m1648562395_AdjustorThunk
vDf:__Z13bankers_roundd
pMb:__ZN14SafeBinaryRead8TransferI5RectTIfEEEvRT_PKc17TransferMetaFlags
Zi:_emscripten_glGenFramebuffers
Tkl:_Playable_get_Null_m1188762616
Xja:__ZN17BaseObjectManager16StaticInitializeEPv
zrj:_Debug_LogException_m3660909244
j7f:_NumberFormatter_Append_m269678094
pnh:_DeflateStream_EndWrite_m1295999073
tNb:__ZN18StreamedBinaryReadILb0EE19TransferSTLStyleMapINSt3__28multimapIN4core12basic_stringIcNS4_20StringStorageDefaultIcEEEE4PPtrI6ObjectENS2_4lessIS8_EE13stl_allocatorINS2_4pairIKS8_SB_EEL18MemLabelIdentifier51ELi16EEEEEEvRT_17TransferMetaFlags
Mth:_Socket_Shutdown_internal_m4083092300
p_i:_OperatingSystem_GetObjectData_m1571196722
Ktg:_List_1_CheckCollection_m2602703205_gshared
jIc:__Z18Transfer_BlittableI9JSONWriteLb0EyEvRK29SerializationCommandArgumentsR31RuntimeSerializationCommandInfo
Zsa:__ZN13RenderTexture15ThreadedCleanupEv
tSe:__ZNK20UnityWebRequestProtoI19TransportJavaScript16AtomicRefCounter14RedirectHelper14ResponseHelper15DownloadHandler13UploadHandler12HeaderHelper14AsyncOperationE19GetDownloadProgressEv
nTg:_ReadOnlyCollection_1_Contains_m335542748_gshared
Eyb:__ZN12CubemapArray23VirtualRedirectTransferER14SafeBinaryRead
Ssd:__ZNK5physx2Sc9ClothCore23getNbCollisionTrianglesEv
Wf:___cxa_free_exception
Ofg:_Path_GetFileName_m1354558116
apd:__ZN5physx7NpShape16setFlagsInternalENS_7PxFlagsINS_11PxShapeFlag4EnumEhEE
Upj:_Color32__ctor_m655413850_AdjustorThunk
spe:__Z48Register_UnityEngine_MeshCollider_get_sharedMeshv
uxc:__Z43RectTransform_CUSTOM_INTERNAL_set_sizeDeltaP12Il2CppObjectRK13Vector2fIcall
fXc:__ZN5physx2Gu30distanceSegmentTriangleSquaredERKNS_6shdfnd3aos5Vec3VES5_S5_S5_S5_RS3_S6_
rmg:_MissingMemberException_GetObjectData_m2957220379
Idg:_Int64_System_IConvertible_ToType_m3223988955_AdjustorThunk
GQk:__ZN15dense_hashtableINSt3__24pairIK10KeyWrapperINS1_IPKcS4_EEEiEES6_24NamespaceAndNamePairHashN14dense_hash_mapIS6_iS9_NS6_14EqualsComparerI26NamespaceAndNamePairEqualsEENS0_9allocatorIS8_EEE9SelectKeyESD_SF_E6insertERKS8_
csa:__ZN24GenerateTypeTreeTransfer18BeginArrayTransferEPKcS1_Ri17TransferMetaFlags
Hme:__ZN14PhysicMaterial23GetInstantiatedMaterialEPS_R6Object
PPa:__Z16DecompressCrunchPKhRjR13TextureFormatiiii18MemLabelIdentifier
D8j:_Array_InternalArray__get_Item_TisPlayableBinding_t354260709_m3837494573_gshared
Tm:___syscall51
U3e:_String_CreateString_m4016935005
wMi:_MatchCollection_get_FullList_m1829231879
Xm:___syscall54
Cpf:_Array_GetValue_m2528415604
Tag:_Guid_AppendShort_m791023083
qyf:_BitArrayEnumerator_MoveNext_m3806676766
ZH:__ZNK8Animator20IsAnyRendererVisibleEv
eBe:_cff_builder_add_point1
EHh:_Dictionary_2_TryGetValue_m2192132241_gshared
HRb:__Z18Transfer_BlittableI14SafeBinaryReadLb0E10ColorRGBAfEvRK29SerializationCommandArgumentsR31RuntimeSerializationCommandInfo
Fa:invoke_iiiiiiiiii
p_f:_Array_InternalArray__ICollection_CopyTo_TisUILineInfo_t4195266810_m104406798_gshared
svf:_Char_ToLowerInvariant_m1926695830
jhf:_Graphic_get_canvas_m3320066409
bmf:_InputField_ActivateInputFieldInternal_m3360893886
FTd:__ZN5physx36solveContactPreBlock_WriteBackStaticEPKNS_23PxcSolverConstraintDescEjRNS_16PxcSolverContextEPNS_25PxcThresholdStreamElementEjPi
Dmb:__ZN10FileSystem19SetCurrentDirectoryERKN4core12basic_stringIcNS0_20StringStorageDefaultIcEEEE
_ca:__ZN16ScriptingManager24NotifyScriptCacheReleaseEi
Yrc:__Z47Register_UnityEngine_Coroutine_ReleaseCoroutinev
Fad:__ZN10ScSceneFnsIN5physx3Scb11RigidStaticEE6insertERNS0_2Sc5SceneERS2_
dal:_GUIUtility_Internal_GetNextControlID2_m439215540
vU:__ZN15AudioReverbZone13SetFMODValuesEv
x9:__ZL19StaticDestroyShaderPv
Le:_glRenderbufferStorageMultisample
Knh:_DefaultCertificatePolicy_CheckValidationResult_m3811448269
Fhm:_TextEditor_SelectUp_m4125423103
xpe:__Z49Register_UnityEngine_MeshCollider_set_inflateMeshv
xD:__ZN23AnimationPlayableOutput17SetTargetAnimatorEP8Animator
wUb:__Z35Transfer_Blittable_SingleValueFieldI14SafeBinaryReadfEvRT_R17GeneralMonoObjectRK23StaticTransferFieldInfo
yXc:__ZN5physx2Gu20sweepCCTBoxTrianglesEjPKNS_10PxTriangleEbRKNS_13PxBoxGeometryERKNS_11PxTransformERKNS_6PxVec3EfRSA_SD_RfRjPKjfNS_7PxFlagsINS_9PxHitFlag4EnumEtEE
mqj:_Component_CompareTag_m4001538407
XQc:__ZN5physx2Gu15OBBTriangleTestC2ERKNS0_3BoxE
FSc:__ZN5physx2Gu21computeMTD_SphereMeshERNS_6PxVec3ERfRKNS0_6SphereERKNS_22PxTriangleMeshGeometryERKNS_11PxTransformE
gYf:_Array_InternalArray__ICollection_Add_TisClientCertificateType_t1004704908_m2622721177_gshared
qw:__ZN17PackedFloatVector8TransferI18StreamedBinaryReadILb0EEEEvRT_
kzb:__ZN7Cubemap23VirtualRedirectTransferER17RemapPPtrTransfer
oce:__ZN5physx12SubSortQuick5sort4EPjjRNS_6shdfnd5ArrayINS_11RTreeNodeNQENS2_19ReflectionAllocatorIS4_EEEERjRNS_10PxBounds3VEj
Muc:__Z37Register_UnityEngine_Screen_get_widthv
X8c:__ZN5physx6shdfnd5ArrayIPNS_2Sc8BodyCoreENS0_19ReflectionAllocatorIS4_EEE15growAndPushBackERKS4_
HRi:_Uri_get_Authority_m3816772302
xlc:__ZN22BlockMemoryCacheWriter11GetPathNameEv
w8g:_BigInteger_op_Division_m3713793389
_Ud:__ZN5physx16PxsBroadPhaseMBPC2ERNS_19PxcScratchAllocatorERNS_2Cm13EventProfilerERKNS_11PxSceneDescEPNS_14PxsAABBManagerE
V9i:_ParameterInfo__ctor_m3269320476
cge:__ZN14PhysicsManager23VirtualRedirectTransferER14SafeBinaryRead
LL:__ZN6Avatar23VirtualRedirectTransferER14SafeBinaryRead
rJi:_X509SubjectKeyIdentifierExtension_FromHexChars_m3244835916
v1e:_Single_CompareTo_m2785801815
cid:__ZN5physx7NpActor14onActorReleaseEPNS_7PxActorE
A_c:__ZN5physx3Cct26CharacterControllerManager19computeInteractionsEfPNS_26PxControllerFilterCallbackE
nq:stackAlloc
n7c:__ZN5physx6shdfnd8PoolBaseINS_2Cm5BlockIhLj256EEENS0_19ReflectionAllocatorIS4_EEE12allocateSlabEv
qsc:__Z44Camera_CUSTOM_INTERNAL_CALL_ScreenPointToRayP12Il2CppObjectRK8Vector3fR3Ray
EZa:__ZN25SingleBlockMemoryFileData4LockEPPv
vBm:_glProgramParameteri__wrapper
sgj:_AnimatorControllerPlayable_GetLayerName_m3343344720
Ncm:_Rect_Equals_m866904981
IUi:_HttpResponse_get_IsUnauthorized_m2587878629
ztc:__Z32RectOffset_Get_Custom_PropBottomP12Il2CppObject
_Lg:_Collection_1_CheckWritable_m3225530705_gshared
VBm:_emscripten_glGetObjectParameterivARB__wrapper
Oom:_stat
zj:_JS_Eval_ClearTimeout
Aqm:__ZNSt3__212basic_stringIcNS_11char_traitsIcEENS_9allocatorIcEEEaSERKS5_
Dkl:_Physics_RaycastAll_m4127090769
nda:__ZN14SerializedFile14SerializedTypeD2Ev
dNh:_DefaultComparer_Equals_m3770904334_gshared
pYf:_Array_InternalArray__ICollection_Add_TisKeyValuePair_2_t3699644050_m4052349323_gshared
Och:_CipherSuiteCollection_System_Collections_IList_get_Item_m2175128671
NOa:__ZN7ApiGLES16SetPatchVerticesEi
gYd:__ZN5physx2Gu21findUniqueConvexEdgesEjPNS0_10ConvexEdgeEjPKNS0_15HullPolygonDataEPKh
pIj:_InternalEnumerator_1_System_Collections_IEnumerator_get_Current_m3853320011_AdjustorThunk
eBd:__ZN5physx20NpRigidActorTemplateINS_14PxRigidDynamicEED0Ev
qa:invoke_iiiiiiiiiiii
LIf:_DateTime_System_IConvertible_ToType_m1242864300_AdjustorThunk
TSd:__ZN5physx43solveContactCoulombPreBlock_WriteBackStaticEPKNS_23PxcSolverConstraintDescEjRNS_16PxcSolverContextEPNS_25PxcThresholdStreamElementEjPi
NNj:_InternalEnumerator_1_get_Current_m2446410893_AdjustorThunk
xrb:__ZN10TagManager13RegisterLayerEjRKN4core12basic_stringIcNS0_20StringStorageDefaultIcEEEE
l7c:__ZN5physx2Sc5Scene23allocateConstraintBlockEj
jWh:__Z99RuntimeInvoker_RuntimeObject_RuntimeObject_RuntimeObject_StreamingContext_t3711869237_RuntimeObjectPFvvEPK10MethodInfoPvPS4_
xuc:__Z43Register_UnityEngine_GameObject_SendMessagev
tki:_MethodCall_InitMethodProperty_m1333573177
kga:__ZNSt3__26__treeINS_12__value_typeIN4core12basic_stringIcNS2_20StringStorageDefaultIcEEEES6_EENS_19__map_value_compareIS6_S7_NS_4lessIS6_EELb1EEE13stl_allocatorIS7_L18MemLabelIdentifier12ELi16EEE7destroyEPNS_11__tree_nodeIS7_PvEE
xwg:_List_1_CheckMatch_m625721216_gshared
Bof:_LayoutRebuilder_PerformLayoutControl_m4241054021
bok:__ZN6il2cpp2vm17SetupFieldsLockedEP11Il2CppClassRKNS_2os12FastAutoLockE
Eml:_ScriptPlayableOutput__ctor_m1160016899
gnd:__ZN5physx9NpPhysics31registerDeletionListenerObjectsERNS_18PxDeletionListenerEPKPKNS_6PxBaseEj
B8c:__ZN5physx2Sc5Actor15onElementDetachERNS0_7ElementE
kQh:__Z132RuntimeInvoker_Int32_t2950945753_RuntimeObject_Int32_t2950945753_Int32_t2950945753_RuntimeObject_Int32_t2950945753_Int32_t2950945753PFvvEPK10MethodInfoPvPS4_
cnb:__ZN16MemoryFileSystem4NameEv
Sdm:_Vector2_op_Subtraction_m1387382396
ege:__ZN14PhysicsManager9onContactERKN5physx19PxContactPairHeaderEPKNS0_13PxContactPairEj
gCc:__ZNK8GUIStyle8CalcSizeER10GUIContent
EOc:__ZN5physx3Cct13BoxController13setHalfHeightEf
mKd:__ZN5physx3Scb13ObjectTracker5clearEv
P5g:_X509CertificateEnumerator_System_Collections_IEnumerator_get_Current_m418791713
ose:_UNITY_FT_New_Size
pR:__Z96Register_UnityEngine_Animations_AnimatorControllerPlayable_INTERNAL_CALL_PlayInFixedTimeInternalv
LPc:__ZL28GeomMTDCallback_PlaneCapsuleRN5physx6PxVec3ERfRKNS_10PxGeometryERKNS_11PxTransformES5_S8_
VPc:__ZL23GeomMTDCallback_BoxMeshRN5physx6PxVec3ERfRKNS_10PxGeometryERKNS_11PxTransformES5_S8_
J_l:__ZL73ArgumentCache_t2187958399_CustomAttributesCacheGenerator_m_ObjectArgumentP21CustomAttributesCache
Z2f:_Array_swap_TisRaycastResult_t3360306849_TisRaycastResult_t3360306849_m3400922624_gshared
Uti:_CspParameters__ctor_m2741097571
Zqd:__ZNK5physx7NpCloth22getNbCollisionCapsulesEv
Qwa:__ZNSt3__27__sort4IRPFbRKNS_4pairIN9ShaderLab16FastPropertyNameEN18UnityPropertySheet11UnityTexEnvEEES8_EPS6_EEjT0_SD_SD_SD_T_
tAe:_cf2_hintmap_build
RMj:_InternalEnumerator_1_get_Current_m348524980_AdjustorThunk
iJg:_Collection_1_IsFixedSize_m3976162163_gshared
Dla:__ZN15dense_hashtableINSt3__24pairIKN4core12basic_stringIcNS2_20StringStorageDefaultIcEEEE10vector_setI4PPtrI11SpriteAtlasENS0_4lessISB_EE13stl_allocatorISB_L18MemLabelIdentifier79ELi16EEEEES6_20StringHash32FunctionIS6_EN14dense_hash_mapIS6_SH_SK_NS0_8equal_toIS6_EESE_ISI_LSF_79ELi16EEE9SelectKeyESN_SO_E5clearEv
hye:_Line_Up
DPc:__ZL28GeomMTDCallback_SphereSphereRN5physx6PxVec3ERfRKNS_10PxGeometryERKNS_11PxTransformES5_S8_
Qqg:_List_1_CheckIndex_m3070453556_gshared
Se:_emscripten_glBufferSubData
v3e:_String_ReplaceUnchecked_m1381393810
Sbd:__ZN5physx6shdfnd5ArrayIPvNS0_15InlineAllocatorILj256ENS0_19ReflectionAllocatorINS_7NpShapeEEEEEE15growAndPushBackERKS2_
Otb:__ZN11HaloManager10UpdateHaloEiR9Transform11ColorRGBA32fjP6Object
Xxa:__ZN6prcoreL12RemapGenericI15TexFormatRGB88817TexFormatARGB8888EEvPKNS_9InnerInfoE
Oq:__Z17CalculateGlobalRS23TransformAccessReadOnly
Vnh:_Socket_get_SupportsIPv6_m1296530017
Y3k:__ZNSt3__210__list_impIPN6il2cpp5utils10MemoryPool6RegionENS_9allocatorIS5_EEE5clearEv
Dcd:__ZNK5physx14NpArticulation22computeImpulseResponseEPNS_18PxArticulationLinkERNS_6PxVec3ES4_RKNS_24PxArticulationDriveCacheERKS3_S9_
T3c:__ZN5physx2Sc19ContactReportBuffer23reallocateNotThreadSafeEjRjjj
wPa:__ZN17GenericDynamicVBO17DrawChunkInternalERK21DynamicVBOChunkHandle17ShaderChannelMaskS3_P17VertexDeclarationP16DrawBuffersRangeij
x6c:__ZN5physx2Sc5Actor19registerInteractionEPNS0_11InteractionE
E2b:__ZN22MemoryCacherReadBlocks14LockCacheBlockEjPPhS1_
WTi:_U3CU3Ec__DisplayClass1_U3CContainsTwiceU3Eb__0_m606634874
h_k:__ZN4utf88internal15increase_safelyIPKcEENS0_9utf_errorERT_S5_
nre:__ZN20TextRenderingPrivate8FontImpl16CacheFontForTextEPtiifjPK13dynamic_arrayINS_16TextFormatChangeELj4EE
Dvf:_CharEnumerator_get_Current_m525608209
Ane:__ZN13PhysicsModule19CreateNxHeightFieldEPv
ETe:__Z21ArrayElementTypeCheckP11Il2CppArrayPv
zAm:_emscripten_glTexSubImage2D__wrapper
Jpi:_BinaryCommon_SwapBytes_m3963737189
bNf:_StackTrace_init_frames_m641783388
Erh:_PublicKey_DecodeRSA_m1824703659
Gqm:__ZNSt3__212basic_stringIcNS_11char_traitsIcEENS_9allocatorIcEEE6appendEjc
wKe:__Z42Register_UnityEngine_Canvas_get_rootCanvasv
NSb:__Z14resize_trimmedINSt3__26vectorI8MonoPPtr13stl_allocatorIS2_L18MemLabelIdentifier1ELi16EEEEEvRT_j
Af:_TTF_RenderText_Solid
tlm:_Vector2_get_up_m2097679404
dsg:_List_1__ctor_m3947764094_gshared
pbl:_GUIStyle_get_stretchWidth_m333378588
_ec:__ZN13HandleManager14RegisterBitSetEPPjS0_b
Zvk:_compress_block_11154
vQi:_Parser_IsIgnorePatternWhitespace_m2107132682
Noh:_HttpRequestCreator_Create_m400548686
XQe:__ZN11UnityEngine7Connect16PersistentValuesC2Ev
Ouh:_TcpClient_Dispose_m929096288
qVg:_ReadOnlyCollection_1_System_Collections_IList_Insert_m134149130_gshared
N_g:_BigInteger_get_Rng_m4216817480
zSf:_Array_InternalArray__ICollection_Remove_TisDateTime_t3738529785_m2250893026_gshared
zSa:__Z15IsIEEE754Format14GraphicsFormat
QVb:__Z19TransferField_ArrayI17RemapPPtrTransfer27Converter_UnityEngineObjectEvRK23StaticTransferFieldInfoR31RuntimeSerializationCommandInfoRT0_
IMb:__ZN19StreamedBinaryWriteILb0EE8TransferI13dynamic_arrayI16SplashScreenLogoLj4EEEEvRT_PKc17TransferMetaFlags
wzf:_KeyNotFoundException__ctor_m541499307
bFd:__ZNK5physx2Sc7BodySim13isConnectedToERKNS0_8RigidSimERb
jUf:_SetPropertyUtility_SetStruct_TisSpriteState_t1362986479_m665096788_gshared
FSf:_Array_InternalArray__ICollection_Remove_TisIntPtr_t_m3807208150_gshared
age:__ZN14PhysicsManager23VirtualRedirectTransferER17RemapPPtrTransfer
yEf:_DateTime__ctor_m1095105629
FKa:__ZN13GfxDeviceGLES15UploadTexture2DE9TextureID16TextureDimensionPKhiii14GraphicsFormati18TextureUploadFlags16TextureUsageMode
tdj:_AnimationLayerMixerPlayable_IsLayerAdditiveInternal_m821069548
mW:__ZN4FMOD6System9createDSPEP20FMOD_DSP_DESCRIPTIONPPNS_3DSPE
tCl:__ZL87Thread_t2300836069_CustomAttributesCacheGenerator_Thread_GetCompressedStack_m2923422412P21CustomAttributesCache
Jih:_SslClientStream_get_ClientCertificates_m998716871
$C:__ZN7mecanim9animation26DestroyControllerWorkspaceEPNS0_19ControllerWorkspaceERNS_6memory9AllocatorE
CS:__ZN4FMOD8ChannelI11EndCallbackEv
WBc:__ZN8GUIStyle14SetDefaultFontEPN13TextRendering4FontE
MCb:__ZN15QualitySettings23VirtualRedirectTransferER24GenerateTypeTreeTransfer
pqi:_ObjectReader_ReadValue_m3145979203
x3j:_GenericEqualityComparer_1_Equals_m408365937_gshared
UYd:__ZN5physx2Gu32PCMConvexVsMeshContactGeneration35generateTriangleFullContactManifoldERNS0_9TriangleVEjPKjhRKNS0_13PolygonalDataEPNS0_16SupportLocalImplIS2_EEPNS0_12SupportLocalEPNS0_21MeshPersistentContactERjRKNS_6shdfnd3aos6FloatVERNSI_5Vec3VE
SVi:_ClientSslConfiguration_get_ClientCertificateSelectionCallback_m1068755265
vwc:__Z59Register_UnityEngine_MonoBehaviour_Internal_CancelInvokeAllv
t5l:__ZL68Scrollbar_t1494447233_CustomAttributesCacheGenerator_m_NumberOfStepsP21CustomAttributesCache
uJ:__ZN14SafeBinaryRead21TransferSTLStyleArrayI22OffsetPtrArrayTransferI9OffsetPtrIN7mecanim12statemachine17ConditionConstantEEEEEvRT_17TransferMetaFlags
Zqk:__ZN30dense_hashtable_const_iteratorINSt3__24pairIK10KeyWrapperIPK19Il2CppGenericMethodEPK26Il2CppGenericMethodIndicesEES6_N6il2cpp8metadata23Il2CppGenericMethodHashEN14dense_hash_mapIS6_SA_SE_NS6_14EqualsComparerINSD_26Il2CppGenericMethodCompareEEENS0_9allocatorISB_EEE9SelectKeyESI_SK_EppEv
KOd:__ZNK16OBBAABBTest_SIMDclERKN5physx2Sq9BucketBoxE
Sre:_UNITY_FT_Request_Metrics
_Ok:__ZN6il2cpp6icalls8mscorlib6System10Reflection10MonoMethod29get_IsGenericMethodDefinitionEP22Il2CppReflectionMethod
vLk:__ZN6il2cpp2vm6Thread21AllocThreadStaticDataEi
zjm:_Texture2D_GetPixelBilinear_m1491830209
_$i:_Default_SelectMethod_m469311730
Po:FUNCTION_TABLE_difi
UYk:__ZN30dense_hashtable_const_iteratorINSt3__24pairIK10KeyWrapperIPK19Il2CppGenericMethodEP10MethodInfoEES6_N6il2cpp8metadata23Il2CppGenericMethodHashEN14dense_hash_mapIS6_S9_SD_NS6_14EqualsComparerINSC_26Il2CppGenericMethodCompareEEENS0_9allocatorISA_EEE9SelectKeyESH_SJ_EppEv
LFi:_UInt32_ToString_m2066897296_AdjustorThunk
A_:__Z13RegisterClassI13AudioListenerEvv
gP:__ZN23AnimationOffsetPlayable11GetPositionEv
Vzf:_Enumerator_Reset_m4274366540
uHc:__Z18Transfer_BlittableI9JSONWriteLb0E8Vector3fEvRK29SerializationCommandArgumentsR31RuntimeSerializationCommandInfo
Qjl:_Object_FindSceneObjectsOfType_m1091134095
yg:_emscripten_glUniform4i
ZYc:__ZN16RayRTreeCallbackILi0ELb1EED2Ev
Lf:_emscripten_glUniform4f
hGa:__ZN6Object22CheckInstanceIDsLoadedEPii
ck:___unlock
rkh:_TlsCipherSuite_ComputeServerRecordMAC_m3941098609
gR:__Z105Register_UnityEngine_Animations_AnimatorControllerPlayable_INTERNAL_CALL_GetAnimatorClipInfoCountInternalv
dhe:__ZN14SphereCollider10SmartResetEv
i_e:_X509Certificate_Equals_m3784196370
ICg:_List_1__ctor_m3376067838_gshared
RX:__ZN20SoundChannelInstance19setReverbPropertiesEP29FMOD_REVERB_CHANNELPROPERTIES
odk:_Enumerator_MoveNext_m1446151600_gshared
$Xe:_SHA1Internal_ProcessFinalBlock_m1403775421
DO:__ZNK26AnimatorControllerPlayable14IsInTransitionEi
Fzc:__Z40Register_UnityEngine_Transform_IsChildOfv
b_c:__ZN5physx3Cct17CapsuleController15setClimbingModeENS_21PxCapsuleClimbingMode4EnumE
LQd:__ZN5physx6shdfnd9atomicAddEPVii
UAh:_Enumerator_System_Collections_IDictionaryEnumerator_get_Key_m2998519522_gshared
ZPj:_InternalEnumerator_1_get_Current_m2356858238_AdjustorThunk
otc:__Z45Register_UnityEngine_Display_GetSystemExtImplv
D3g:_RSAManaged_ImportParameters_m1844641996
vLd:__ZN5physx6shdfnd5ArrayINS_3Scb13MaterialEventENS0_19ReflectionAllocatorIS3_EEE6resizeEjRKS3_
Gyh:_Enumerator_System_Collections_IDictionaryEnumerator_get_Value_m3325938730_AdjustorThunk
Pz:__ZN7mecanim9animation23TransformValuesFromClipEiiiRKNS_10ValueArrayERKNS0_10ClipOutputERKNS0_12ClipBindingsERS1_RNS_14ValueArrayMaskEb
HWd:__ZNK5physx14SingleAABBTask25updateNumFastMovingShapesEv
qEc:__Z46GUIStyle_CUSTOM_Internal_DrawWithTextSelectionP12Il2CppObjectR43MonoInternal_DrawWithTextSelectionArguments
bGh:_ValueCollection_System_Collections_ICollection_get_SyncRoot_m1114275063_gshared
Jag:_Guid_Equals_m1866984197
CGe:__ZNSt3__218__insertion_sort_3IRNS_6__lessIN2UI14DepthSortEntryES3_EEPS3_EEvT0_S7_T_
Ibe:__ZN5physx17ConvexMeshBuilder16computeGaussMapsEv
C_i:_PlatformNotSupportedException__ctor_m1787918017
pia:__ZN13RuntimeStaticI15DirectorManagerLb0EE16StaticInitializeEPv
wSg:_ReadOnlyCollection_1_System_Collections_ICollection_CopyTo_m2643246984_gshared
qLb:__ZN11TimeManager6UpdateEv
dHa:__ZN6Shader18LoadDefaultShadersEv
_cl:_GUISkin_set_scrollView_m1195652016
X$g:_BigInteger_op_Multiply_m3854773313
Gcd:__ZNK5physx2Sc16ArticulationCore22computeImpulseResponseERNS0_8BodyCoreERNS_6PxVec3ES5_RKNS_9PxcFsDataERKS4_SA_
i_d:__ZN5physx21PxsBodyTransformVaultC2Ev
dcf:_CanvasScaler_get_fallbackScreenDPI_m2811935689
R5f:_DateTimeFormatInfo_ReadOnly_m890935083
dYd:__ZL6IsInYZffPPK10VertexInfo
Cce:__ZN5physx19TriangleMeshBuilderD0Ev
Vom:_fflush
RCa:__ZN17LightProbeContext4InitERK16LightmapSettingsRK14RenderSettings
acb:__ZN18DeferredRenderLoop14RenderLightingER21ActiveLightingContextP13RenderTexture9TextureIDPS3_iRK8Vector4fRK14LightingLayersR10MinMaxAABBb12ObjectHandleI17RenderSurface_TagP17RenderSurfaceBaseE
H7k:__GLOBAL__sub_I_Error_cpp
CNf:_Double_System_IConvertible_ToInt16_m3591921965
iDa:__ZN9Texture3DD2Ev
bjm:_TextGenerator_PopulateWithError_m1581928191
Zml:_Quaternion_ToString_m127166294
Tdm:_Vector2_op_Addition_m2157034339
PDf:_Convert_ToChar_m2796006345
v$f:_Array_InternalArray__Insert_TisContentType_t1787303396_m3566390691_gshared
Xod:__ZN5physx2CmlsERNS0_12RenderOutputERKNS0_10DebugArrowE
qJ:__ZN14SafeBinaryRead21TransferSTLStyleArrayI22OffsetPtrArrayTransferI9OffsetPtrIN7mecanim12statemachine21SelectorStateConstantEEEEEvRT_17TransferMetaFlags
Vwf:_ArrayListWrapper_GetEnumerator_m2336495952
ueb:__Z34ProcessIndexListIsNodeVisibleStep2RK22SceneCullingParametersPK9SceneNodePK4AABBR9IndexList
dQb:__ZN10MonoScriptD2Ev
Vuc:__Z39Input_CUSTOM_INTERNAL_get_mousePositionP8Vector3f
xpf:_SimpleEnumerator__ctor_m353509656
ixe:_tt_cmap13_char_next
C0l:__ZL117EventSystem_t1003666588_CustomAttributesCacheGenerator_EventSystem_t1003666588____lastSelectedGameObject_PropertyInfoP21CustomAttributesCache
l1a:__ZN9ShaderLab4Pass16SetupPassOptionsEv
$oj:_Collider_ClosestPointOnBounds_m3962929942
Mh:_JS_Sound_ReleaseInstance
GJa:__ZN13GfxDeviceGLES19DrawBuffersIndirectEP9GfxBufferPK18VertexStreamSourceiP17VertexDeclaration17ShaderChannelMask16GfxPrimitiveType15ComputeBufferIDj
lag:_Guid_CheckArray_m921056615
DUh:__Z33RuntimeInvoker_Single_t1397266774PFvvEPK10MethodInfoPvPS4_
tVj:_ConfigHandler_ReadLifetine_m208994800
uAh:_Enumerator_System_Collections_IDictionaryEnumerator_get_Entry_m3417028588_AdjustorThunk
g5d:__ZN5physx16PxsCCDBlockArrayINS_13PxsCCDOverlapELi128EE8pushBackEv
_Di:_UInt16_System_IConvertible_ToByte_m3185614807_AdjustorThunk
Ixc:__Z21Resources_CUSTOM_LoadP12Il2CppStringP12Il2CppObject
hn:FUNCTION_TABLE_diddi
MLk:__ZN6il2cpp6icalls8mscorlib6System5Array8FastCopyEP11Il2CppArrayiS5_ii
Pxc:__Z26Material_CUSTOM_SetIntImplP12Il2CppObjectii
DPf:_Exception_get_ClassName_m2428844642
iGe:__ZNK2UI14CanvasRenderer22GetTypeVirtualInternalEv
Ntc:__Z42Register_UnityEngine_RectOffset_get_bottomv
wom:_newlocale
ONd:__ZN5physx14PxsAABBManagerD2Ev
wym:_emscripten_glUniform1f__wrapper
Ism:dynCall_di
L1k:_GC_reclaim_clear
yNd:__ZN5physx16PxsIslandManagerD2Ev
Zqe:__ZN20TextRenderingPrivate19NativeTextGeneratorC2ERK11UTF16StringPNS_8FontImplE11ColorRGBA32ifRK8Vector2fbifiibffbbbP13dynamic_arrayIN2UI8UIVertexELj4EE
bHc:__Z28RegisterModule_JSONSerializev
R8b:__ZN2UI13RectTransform8TransferI14SafeBinaryReadEEvRT_
fIc:__Z35Transfer_Blittable_FixedBufferFieldI9JSONWriteaEvRK29SerializationCommandArgumentsR31RuntimeSerializationCommandInfo
knc:__Z20IsHumanControllingUsv
y2a:__ZNK19RenderEventsContext21ExecuteCommandBuffersEijR17ShaderPassContextR15RenderNodeQueueP19ProfilerInformationi
QEh:_Enumerator_MoveNext_m181298207_gshared
che:__ZN14SphereCollider5ResetEv
Yt:__ZN7mecanim5human9HumanGoal8TransferI14SafeBinaryReadEEvRT_
ktl:__ZL51TextInfo_t3810425522_CustomAttributesCacheGeneratorP21CustomAttributesCache
Dqb:__ZN10systeminfo21GetPersistentDataPathEv
xJa:__ZN13GfxDeviceGLES17DestroyGpuProgramEPK10GpuProgram
w0f:_Array_InternalArray__set_Item_TisRaycastResult_t3360306849_m730888808_gshared
jRb:__Z44InitializeTransferFunctionScriptingTraitsForI18StreamedBinaryReadILb0EEEvR31TransferFunctionScriptingTraits
qEh:_Enumerator_System_Collections_IEnumerator_Reset_m53411943_gshared
oab:__ZNSt3__218__insertion_sort_3IR23CompareReflectionProbesP31RuntimeReflectionProbeBlendInfoEEvT0_S5_T_
_Vb:__ZN12NativeBufferI27Converter_SimpleNativeClassI8GradientEE15SetupForWritingER9ArrayInfo
u$g:_Kernel_RightShift_m2207393597
Zka:__ZNSt3__213__stable_sortIRNS_4lessIN4core12basic_stringIcNS2_20StringStorageDefaultIcEEEEEENS_11__wrap_iterIPS6_EEEEvT0_SC_T_NS_15iterator_traitsISC_E15difference_typeEPNSF_10value_typeEi
r8l:__ZL48Shadow_t773074319_CustomAttributesCacheGeneratorP21CustomAttributesCache
Pla:__ZN12_GLOBAL__N_113StaticDestroyEPv
uIe:__ZZN2UI14CanvasRenderer15InitializeClassEvEN34FunctorImpl_827kCanvasGroupChanged4CallEPviR11MessageData
aBc:__ZNK8GUIStyle4DrawER8GUIStateRK5RectTIfER10GUIContentbbbb
n2g:_SmallXmlParser_Read_m3485223434
ADm:_glUnmapBuffer__wrapper
Agm:_StackTraceUtility_IsSystemStacktraceType_m1310175426
Ovc:__Z32Mesh_CUSTOM_ExtractArrayFromListP12Il2CppObject
WZi:_U3CU3Ec__DisplayClass16_U3CReadFrameAsyncU3Eb__13_m2867817552
ALc:__ZN8JSONRead21TransferSTLStyleArrayINSt3__26vectorI8Gradient13stl_allocatorIS3_L18MemLabelIdentifier1ELi16EEEEEEvRT_17TransferMetaFlags
NLb:__ZNSt3__218__insertion_sort_3IRNS_6__lessINS_4pairIPKN5Unity4TypeE7Hash128EES8_EEPS8_EEvT0_SC_T_
ilf:_InputField_set_onValueChanged_m3658917578
AXb:__ZN10RectOffset8TransferI24GenerateTypeTreeTransferEEvRT_
_eg:_BinaryReader__ctor_m2266204403
voc:__Z18GetResourceManagerv
_0g:__ZN21InterfaceFuncInvoker5IiP22ByteU5BU5D_t4116647657iiS1_iE6InvokeEjP11Il2CppClassP12Il2CppObjectS1_iiS1_i
EMi:_Enumerator_System_Collections_IEnumerator_Reset_m24787251
pGe:__ZN2UI13CanvasManager19RemoveDirtyRendererEPNS_6CanvasEPNS_14CanvasRendererE
mod:__ZN5physx7NpShape18setQueryFilterDataERKNS_12PxFilterDataE
xnm:_isspace
Goi:_BinaryFormatter__ctor_m2620705134
hDa:__ZN9Texture3DC2E18MemLabelIdentifier18ObjectCreationMode
V$d:__ZN5physx20PxcNpCacheStreamPair5resetEv
c5:__ZN11UnityEngine15CloudWebService17WebFileDownloaderINS0_20WebRequestRestClientENS0_23WebRequestRestHeaderMapEED2Ev
rc:invoke_vi
m2g:_SmallXmlParser_HandleWhitespaces_m549588711
sYa:__ZN15dense_hashtableINSt3__24pairIKN4core12basic_stringIcNS2_20StringStorageDefaultIcEEEEP20ArchiveStorageReaderEES6_20StringHash32FunctionIS6_EN14dense_hash_mapIS6_S9_SC_NS0_8equal_toIS6_EE13stl_allocatorISA_L18MemLabelIdentifier54ELi16EEE9SelectKeyESF_SI_ED2Ev
pc:invoke_vd
Kb:invoke_vf
tMi:_Regex_get_RightToLeft_m2317867572
Jea:__ZNK10GameObject8IsActiveEv
Nsc:__Z34Component_Get_Custom_PropTransformP12Il2CppObject
oSa:__ZN18GfxFramebufferGLES23SetupDefaultFramebufferEPP17RenderSurfaceBaseS2_N2gl6HandleILNS3_10ObjectTypeE9EEE
bpm:_mbsinit
i8c:__ZN5physx2Sq16computeWorldAABBERKNS_3Scb5ShapeERKNS1_5ActorE
Sef:_DefaultControls_CreateDropdown_m3286664171
xma:__ZN13ScreenManager18RequestOrientationE17ScreenOrientation
Aok:__ZN6il2cpp2vm5Class12SetupMethodsEP11Il2CppClass
pWd:__ZN5physx14PxsAABBManager31updateAggregateBPOverlapRecordsEv
drc:__Z39DeleteLastPathNameComponentWithAnySlashRKN4core12basic_stringIcNS_20StringStorageDefaultIcEEEE
cBc:__ZN10GUIManager14InitGUIManagerEv
AEi:_UInt16_Equals_m642257745
LZi:_WebSocketFrame_readMaskingKeyAsync_m3046785579
gil:_Mesh_get_vertices_m1585974779
bpf:_Array_System_Collections_IList_IndexOf_m3301661616
wTf:_PlayableHandle_IsPlayableOfType_TisAnimationClipPlayable_t3189118652_m2574916184_gshared
sSj:_RuntimeResourceSet_CloneDisposableObjectIfPossible_m2725520898
Ije:__ZN5physx7profile10DataBufferINS_6shdfnd6MutexTINS0_26WrapperReflectionAllocatorIhEEEENS0_14ScopedLockImplIS6_EEED2Ev
GEc:__Z37Register_UnityEngine_GUIStyle_Cleanupv
Xa:invoke_iiifii
aAj:_SliderEvent__ctor_m3149452941
y5g:_DeriveBytes__cctor_m1212925033
dDi:_Type_IsAssignableFrom_m3195021585
zhf:_Graphic_OnDisable_m1097930217
$xk:__ZN6il2cpp6icalls8mscorlib6System8MonoType13IsPointerImplEP20Il2CppReflectionType
JSi:_Ext_GetCookies_m2563282468
Afe:__ZN9Rigidbody16AddNonConvexMeshER8ListNodeI12MeshColliderE
vj:_emscripten_glFramebufferRenderbuffer
hVj:_ClientIdentity_set_ClientProxy_m3470388302
Bhb:__ZN9Transform30EnsureTransformHierarchyExistsEv
tCi:_Type_FilterName_impl_m2651733559
cLd:__ZN5physx2Sc14ConstraintCore15getPxConstraintEv
Ade:__ZNK8Collider12GetRigidbodyEv
dp:FUNCTION_TABLE_viiiiiiii
trc:__Z46Register_UnityEngine_Application_get_isPlayingv
DP:__Z94Register_UnityEngine_Animations_AnimationLayerMixerPlayable_INTERNAL_CALL_CreateHandleInternalv
jh:___cxa_find_matching_catch_4
Yoc:__ZN13MonoBehaviour13StopCoroutineEPKc
ykb:__ZNSt3__26vectorINS_4pairIN4core12basic_stringIcNS2_20StringStorageDefaultIcEEEEPK17MessageIdentifierEENS_9allocatorISA_EEE12__move_rangeEPSA_SE_SE_
u6a:__ZN14qsort_internal17MedianOfThreeSwapIP17RODataReplacement19ROSorterReplacementEEvT_S4_S4_T0_
u2e:_String_Split_m3646115398
rnk:__ZNK15dense_hashtableINSt3__24pairIK10KeyWrapperIPK22Il2CppGenericParameterEP11Il2CppClassEES6_N6il2cpp5utils11PointerHashIS4_EEN14dense_hash_mapIS6_S9_SE_NS6_14EqualsComparerINS0_8equal_toIS5_EEEENS0_9allocatorISA_EEE9SelectKeyESJ_SL_E3endEv
$qc:__ZN17TransformInternal36OnScaleChangedCalculateTransformTypeE15TransformAccess
Q_a:__ZN17ArchiveFileSystem10ToAbsoluteEPKc
x3f:_Dictionary_2_Do_ICollectionCopyTo_TisKeyValuePair_2_t71524366_m795489160_gshared
Yki:_LogicalCallContext_GetObjectData_m841612502
tXf:_Array_InternalArray__IndexOf_TisSByte_t1669577662_m4156538463_gshared
Mwc:__Z53PlayableHandle_CUSTOM_INTERNAL_CALL_GetPlayableTypeOfR9HPlayable
GE:__ZN7mecanim6CRCKeyENS_7eStringE
qlj:_AudioMixerPlayable_GetAutoNormalizeInternal_m510630892
K9b:__ZL12SetPrefValueRKN4core12basic_stringIcNS_20StringStorageDefaultIcEEEERK9PrefValue
w8:__ZN19ShaderPropertySheet20ReservePropertyCountEj
PZk:__ZN6il2cpp5utils11StringUtils6PrintfEPKcz
rKk:__ZNSt3__26vectorIN6il2cpp8metadata18GenericArrayMethodENS_9allocatorIS3_EEE7reserveEj
bxa:__ZN15NameToObjectMapI6ShaderNSt3__23mapI4PPtrIS0_EN4core12basic_stringIcNS5_20StringStorageDefaultIcEEEENS1_4lessIS4_EENS1_9allocatorINS1_4pairIKS4_S9_EEEEEENS1_8multimapIS9_S4_NSA_IS9_EENSC_INSD_IKS9_S4_EEEEEEE4FindERSK_
wEa:__ZN24GenerateTypeTreeTransfer21TransferResourceImageE19ActiveResourceImagePKcR13StreamingInfoPvjiPKN5Unity4TypeE
H2f:_Array_Sort_TisVector3_t3722313464_m1030213405_gshared
zUk:__ZN6il2cpp2vm6Object5CloneEP12Il2CppObject
ike:__ZN5physx6shdfnd8PoolBaseINS_24NpPtrTableStorageManager8PtrBlockILi16EEENS0_19ReflectionAllocatorIS4_EEED2Ev
p5k:__ZN6il2cpp6icalls8mscorlib6System9Threading5Mutex20CreateMutex_internalEbP12Il2CppStringPb
WCm:_emscripten_glLinkProgram__wrapper
vok:__ZN6il2cpp2vm5Class12GetFinalizerEP11Il2CppClass
Zbl:_GUISettings_Internal_GetCursorFlashSpeed_m3465667052
Mwb:__ZNSt3__212__deque_baseI18ReflectionProbeJobNS_9allocatorIS1_EEED2Ev
cE:__ZN11UnityEngine9Animation27DestroyAnimationSetBindingsEPNS0_20AnimationSetBindingsERN7mecanim6memory9AllocatorE
O3b:__ZN15dense_hashtableINSt3__24pairIKiN4core17string_with_labelILi1EEEEEi18SInt32HashFunctionN14dense_hash_mapIiS5_S7_NS0_8equal_toIiEE13stl_allocatorIS6_L18MemLabelIdentifier1ELi16EEE9SelectKeyESA_SD_E13set_empty_keyERKS6_
Fid:__ZN5physx2Sc9ShapeCore23setSimulationFilterDataERKNS_12PxFilterDataE
V3j:_GenericEqualityComparer_1_Equals_m1705889345_gshared
sN:__ZN8Animator12CleanupClassEv
yLc:__Z13TransferFieldI8JSONReadLb0E27Converter_SimpleNativeClassI10RectOffsetEEvRK23StaticTransferFieldInfoR31RuntimeSerializationCommandInfoRT1_
mRj:_Comparer_1_System_Collections_IComparer_Compare_m2537217645_gshared
Joh:_FtpWebRequest__cctor_m699542155
BRk:__GLOBAL__sub_I_GenericMetadata_cpp
tje:__ZN5physx7profile12MemoryBufferINS0_21WrapperNamedAllocatorEE5writeIyEEvRKT_
e2k:_setup_header
tth:_NetworkStream_Write_m172181053
Nlh:_NameObjectCollectionBase_GetEnumerator_m3677320185
wAc:__ZNK8GUIStyle4DrawER8GUIStateRK5RectTIfER10GUIContentib
nxk:__ZN6il2cpp6icalls8mscorlib6System8MonoType18GetFields_internalEP20Il2CppReflectionTypeiS5_
Vdb:__Z24CalculateSpotLightBoundsffRK10Matrix4x4fR15SpotLightBounds
kJh:_Dictionary_2_TryGetValue_m3495031886_gshared
t1:__ZN23CloudWebServicesManager23VirtualRedirectTransferER14SafeBinaryRead
w5g:_PKCS12_AddCertificate_m3857004455
ipi:_WellKnownClientTypeEntry_ToString_m1119458503
tPb:__Z19ShouldTransferFieldR32SerializationCommandQueueBuilder17ScriptingClassPtriR18TransferField_InfoRK20CoreScriptingClasses
$lg:_Math_Cos_m1874044299
ulm:_Vector2_get_right_m3899147925
H$e:_SecurityElement_IsValidText_m1346599242
B9i:_MonoMethod_get_ContainsGenericParameters_m3860345224
rX:__ZN5audio5mixer22UpdateAudioMixerMemoryERKNS0_18AudioMixerConstantERNS0_16AudioMixerMemoryEfPN4FMOD6SystemEf
Mpe:__ZL21InitializeCachedStripPv
CJh:_Dictionary_2_System_Collections_Generic_ICollectionU3CSystem_Collections_Generic_KeyValuePairU3CTKeyU2CTValueU3EU3E_Add_m3652125112_gshared
hMk:__ZN6il2cpp6icalls8mscorlib6System9Threading6Thread23GetCachedCurrentCultureEP12Il2CppThread
v6a:__ZNK6Camera22GetWorldToCameraMatrixEv
fGc:__ZN8JSONRead32GetValueForKeyWithNameConversionEPKN9rapidjson12GenericValueINS0_4UTF8IcEE13JSONAllocatorEEPKc
PUk:__ZN6il2cpp2vm12GenericClass11IsValueTypeEP18Il2CppGenericClass
IOb:__ZN13MonoBehaviour7SetNameEPKc
Dli:_MethodDictionary_IsOverridenKey_m946843558
YNd:__ZN5physx6shdfnd8PoolBaseINS_2Sc26ActorPairContactReportDataENS0_19ReflectionAllocatorIS3_EEE15disposeElementsEv
B7j:_U3CStartU3Ec__Iterator0_MoveNext_m4270440387_gshared
ssk:__ZN10KeyWrapperIN6il2cpp5utils13dynamic_arrayIPK10Il2CppTypeLj4EEEEC2ERKS7_
xRg:_ReadOnlyCollection_1_System_Collections_IList_Remove_m4129318771_gshared
VBa:__ZN18AwakeFromLoadQueue5ClearEv
Ohg:_FileStream_SetLength_m99749826
W6d:__ZN5physx6shdfnd5ArrayIfNS0_19ReflectionAllocatorIfEEE8recreateEj
Ecb:__ZNSt3__27__sort5IR15ReflProbeSorterPP15ReflectionProbeEEjT0_S6_S6_S6_S6_T_
Zia:__ZN8Playable10DisconnectEPS_i
_k:_glGenTransformFeedbacks
AGa:__ZN13LoadOperationD2Ev
DSd:__ZN5physx20PxsSolverCoreGeneral6createEv
Bbg:_Int16_System_IConvertible_ToType_m3672347013
i4c:__ZL29GeomOverlapCallback_SphereBoxRKN5physx10PxGeometryERKNS_11PxTransformES2_S5_PNS_2Gu12TriggerCacheE
oDg:_List_1_CheckIndex_m3933537097_gshared
Rwa:__ZNSt3__27__sort5IRPFbRKNS_4pairIN9ShaderLab16FastPropertyNameEN18UnityPropertySheet11UnityTexEnvEEES8_EPS6_EEjT0_SD_SD_SD_SD_T_
WNa:__ZNK7ApiGLES18GetExtensionStringEv
PCg:_List_1_System_Collections_IList_IndexOf_m2444653486_gshared
xym:_emscripten_glVertexAttrib1f__wrapper
uhl:_Mathf_SmoothDamp_m1005916951
ZZa:__ZNK12HandlerChain4SizeERK13FileEntryData
lq:FUNCTION_TABLE_iiiiiiiii
tqd:__ZN5physx7NpCloth15setInertiaScaleEf
VSg:_ReadOnlyCollection_1_System_Collections_Generic_ICollectionU3CTU3E_Remove_m4177779688_gshared
ivf:_Char_IsLetter_m3996985877
gEg:_Queue_1_Peek_m2302800625_gshared
RXd:__ZN5physx20PxcContactCapsuleBoxERKNS_2Gu13GeometryUnionES3_RKNS_11PxTransformES6_RKfRNS_10PxcNpCacheERNS0_13ContactBufferE
hae:__ZN5physx6shdfnd4sortIPvNS0_4LessIS2_EENS0_19ReflectionAllocatorIN17PxcPoolMallocData10PoolData16EEEEEvPT_jRKT0_RKT1_j
tTc:__Z19sweepBox_SphereGeomRKN5physx10PxGeometryERKNS_11PxTransformERKNS_2Gu3BoxERKNS_6PxVec3EfRNS_10PxSweepHitENS_7PxFlagsINS_9PxHitFlag4EnumEtEEf
A0k:_GC_allochblk
_Ba:__Z15UnloadGameScenev
h_f:_Array_InternalArray__ICollection_CopyTo_TisKeyframe_t4206410242_m2132255743_gshared
vDm:_glCheckFramebufferStatus__wrapper
a8d:__ZNK5physx13GuMeshFactory15getHeightFieldsEPPNS_13PxHeightFieldEjj
njf:_Image__ctor_m2551076292
_Hh:_Dictionary_2_System_Collections_ICollection_CopyTo_m3143696177_gshared
cfe:__ZN15CapsuleCollider9SetRadiusEf
OSh:__Z103RuntimeInvoker_Void_t1185182177_Int32_t2950945753_Int32_t2950945753_Int32_t2950945753_SByte_t1669577662PFvvEPK10MethodInfoPvPS4_
Jhm:_TextEditor_SelectToEndOfPreviousWord_m3158328110
nDd:__ZN5physx2Cm20visualizeJointFramesERNS0_12RenderOutputEfRKNS_11PxTransformES5_
NXd:__ZN5physx22PxcContactPlaneCapsuleERKNS_2Gu13GeometryUnionES3_RKNS_11PxTransformES6_RKfRNS_10PxcNpCacheERNS0_13ContactBufferE
Guc:__Z36Renderer_Get_Custom_PropSortingOrderP12Il2CppObject
zal:_GUILayoutUtility_Layout_m2226961424
ODk:__ZNK15dense_hashtableINSt3__24pairIK10KeyWrapperIPK10Il2CppTypeEjEES6_N6il2cpp8metadata14Il2CppTypeHashEN14dense_hash_mapIS6_jSB_NS6_14EqualsComparerINSA_26Il2CppTypeEqualityComparerEEENS0_9allocatorIS8_EEE9SelectKeyESF_SH_E13find_positionERS7_
Cpa:__ZN8Material10SetTextureEN9ShaderLab16FastPropertyNameEP7Texture
Sdc:__ZN26SkinnedMeshRendererManagerD2Ev
YId:__ZNK5physx2Sc5Scene8getStatsERNS_22PxSimulationStatisticsE
sWb:__Z18Transfer_BlittableI24GenerateTypeTreeTransferLb0E8Vector2fEvRK29SerializationCommandArgumentsR31RuntimeSerializationCommandInfo
kWj:_Context_get_HasDynamicSinks_m3952434387
cwi:_Latin1Encoding_GetByteCount_m1145650505
jWb:__Z18Transfer_BlittableI24GenerateTypeTreeTransferLb1EhEvRK29SerializationCommandArgumentsR31RuntimeSerializationCommandInfo
ZZc:__ZN5physx3Cct17CapsuleController9setRadiusEf
qqc:__ZNK16TypeTreeIterator10ByteOffsetEv
gtm:dynCall_iiifii
Iha:__ZnwjRKSt9nothrow_t
vH:__ZN8Animator11ClearObjectEv
Kdk:_Nullable_1_GetHashCode_m4232053575_gshared
WNb:__ZNSt3__26vectorIi13stl_allocatorIiL18MemLabelIdentifier12ELi16EEE8__appendEj
Ige:__ZN9Rigidbody17MainThreadCleanupEv
X6g:_ApplicationException__ctor_m2557611022
iva:__ZN14SafeBinaryRead19TransferSTLStyleMapINSt3__23mapI39DeprecatedFastPropertyNameSerializationN18UnityPropertySheet11UnityTexEnvENS1_4lessIS3_EENS1_9allocatorINS1_4pairIKS3_S5_EEEEEEEEvRT_17TransferMetaFlags
Awc:__Z45Register_UnityEngine_MonoBehaviour_IsInvokingv
pAg:_List_1_CheckMatch_m579516778_gshared
$sf:_Buffer_ByteLengthInternal_m1388208719
fnd:__ZN5physx9NpPhysics26unregisterDeletionListenerERNS_18PxDeletionListenerE
gpc:__Z35UnregisterSerializationCacheBuilderPFv17ScriptingClassPtrR23CachedSerializationDataRbE
Mdg:_Int64_System_IConvertible_ToUInt32_m109903525_AdjustorThunk
Ita:__Z30GetBuiltinVectorParamArraySize24BuiltinShaderVectorParam
o_f:_Array_InternalArray__ICollection_CopyTo_TisUICharInfo_t75501106_m4268526610_gshared
Rbg:_Int32_GetFormatException_m519586683
ybk:_Enumerator_MoveNext_m1131351993_gshared
J_i:_RankException__ctor_m2226473861
N8j:_Array_InternalArray__get_Item_TisVector2_t2156229523_m2502961026_gshared
Efb:__ZN21RendererUpdateManager11AddRendererER8Renderer
jbc:__Z13RegisterClassI15ResourceManagerEvv
Jfd:__ZNK5physx18NpArticulationLink15getArticulationEv
NRb:__Z35Transfer_Blittable_FixedBufferFieldI14SafeBinaryReadsEvRK29SerializationCommandArgumentsR31RuntimeSerializationCommandInfo
WFb:__ZN14SafeBinaryRead21TransferSTLStyleArrayI13dynamic_arrayIfLj4EEEEvRT_17TransferMetaFlags
TDf:_Convert_ToDateTime_m3802186295
QZk:__ZN6il2cpp5utils11StringUtils11Utf16ToUtf8EPKDs
tGi:_UInt64_CompareTo_m1614517204_AdjustorThunk
XNe:__ZN11UnityEngine15PlatformWrapper20IsRootedOrJailbrokenEv
X0a:__ZZ23InitPlayerLoopCallbacksvEN52PreLateUpdateScriptRunBehaviourLateUpdateRegistrator7ForwardEv
Qdb:__Z33IntersectAABBPlaneBoundsOptimizedRK4AABBPKN4math7_float4Ei
KJa:__ZN9GfxDevice19EndGeometryJobFrameEv
wkf:_InputField_get_shouldActivateOnSelect_m3055465770
dWb:__ZN27Converter_SimpleNativeClassI17AnimationCurveTplIfEE17ScriptingToNativeER18ScriptingObjectPtrPS1_
sCi:_Type__cctor_m2371893800
kgd:__ZN5physx2Sc15CoreInteraction17isCoreInteractionEPNS0_11InteractionE
j6k:__ZN6il2cpp8metadata24Il2CppGenericInstCompare7CompareERK10KeyWrapperIPK17Il2CppGenericInstES8_
mje:__ZThn132_N5physx7profile8ZoneImplINS_28PxProfileNameProviderForwardEED0Ev
FOc:__ZN5physx3Cct13BoxController17setHalfSideExtentEf
s5h:__Z110RuntimeInvoker_Void_t1185182177_PlayableHandleU26_t645981773_Int32_t2950945753_SByte_t1669577662_RuntimeObjectPFvvEPK10MethodInfoPvPS4_
Wqk:__ZNK15dense_hashtableINSt3__24pairIK10KeyWrapperIPK19Il2CppGenericMethodEPK26Il2CppGenericMethodIndicesEES6_N6il2cpp8metadata23Il2CppGenericMethodHashEN14dense_hash_mapIS6_SA_SE_NS6_14EqualsComparerINSD_26Il2CppGenericMethodCompareEEENS0_9allocatorISB_EEE9SelectKeyESI_SK_E5beginEv
Pu:__ZNSt3__26vectorIN13AnimationClip15QuaternionCurveE13stl_allocatorIS2_L18MemLabelIdentifier25ELi16EEE8__appendEj
k7e:_ExecuteEvents_Execute_m3049310229
cy:__ZN27AnimationLayerMixerPlayable21UpdateLayerParametersEv
nWi:_Cookie_ToString_m2573143396
SXi:_WebSocket_remove_OnMessage_m4082911949
Lcc:__ZNK17AnimationCurveTplIfE8EvaluateEfPNS0_5CacheE
$$a:__Z31ManagerContextInitializeClassesv
cTg:_ReadOnlyCollection_1_System_Collections_IList_Contains_m2650112051_gshared
YQf:_Array_get_swapper_TisVector3_t3722313464_m1221246401_gshared
use:_UNITY_FT_List_Finalize
z7a:__Z20LightAttenuateApproxRKfS0_
gca:__ZN9Scripting30SetCachedPtrOnScriptingWrapperE18ScriptingObjectPtrP6Object
fZb:__Z18Transfer_BlittableI19StreamedBinaryWriteILb0EELb0EdEvRK29SerializationCommandArgumentsR31RuntimeSerializationCommandInfo
WMj:_InternalEnumerator_1_get_Current_m1232221964_gshared
bOf:_Double_ToString_m1229922074_AdjustorThunk
XXi:_WebSocket_validateSecWebSocketProtocolServerHeader_m1290973321
bLi:_RepeatContext_get_IsMinimum_m3640286252
$qi:_ObjectRecord_ChainFixup_m1889316362
hL:__ZN7mecanim9animation21BlendTreeNodeConstant8TransferI19StreamedBinaryWriteILb0EEEEvRT_
sFa:__ZN18BlockRangeInternal16PopLastNodeIndexEP10BlockRangeji
Vqd:__ZN5physx7NpCloth19setCollisionSpheresEPKNS_22PxClothCollisionSphereEj
uaf:_TouchInputModule_UpdateModule_m2582897964
qFb:__ZN4MeshD0Ev
aTe:__ZL42RequestRecreateEyeTexturesBeforeNextUpdatev
Ysa:__ZNK6Camera20IsCurrentlyRenderingEv
Oz:__ZN21AnimationClipPlayable23ProcessRootMotionNoClipEPK35AnimationPlayableEvaluationConstantPK32AnimationPlayableEvaluationInputP33AnimationPlayableEvaluationOutput
$Ie:__Z36CanvasRenderer_CUSTOM_SetPopMaterialP12Il2CppObjectS0_i
mIc:__Z18Transfer_BlittableI9JSONWriteLb0EdEvRK29SerializationCommandArgumentsR31RuntimeSerializationCommandInfo
c2e:_String_System_IConvertible_ToDouble_m3740733360
Nsb:__ZN6Camera8TransferI19StreamedBinaryWriteILb0EEEEvRT_
lsj:_Event_Finalize_m1421083088
zKf:_DBNull_System_IConvertible_ToSByte_m3533624679
JKj:_InternalEnumerator_1_System_Collections_IEnumerator_get_Current_m4235876088_gshared
fK:__ZN15SerializeTraitsI9OffsetPtrIN7mecanim9animation17BlendTreeConstantEEE8TransferI24GenerateTypeTreeTransferEEvRS4_RT_
Snm:_wctomb
w5e:_BaseInput_GetMouseButtonDown_m1318884233
Zuf:_Char_CompareTo_m42489266
yfi:__Z67RuntimeInvoker_Void_t1185182177_Int32_t2950945753_Double_t594665363PFvvEPK10MethodInfoPvPS4_
usc:__Z27Camera_CUSTOM_GetAllCamerasP11Il2CppArray
D_h:__Z75RuntimeInvoker_TimeSpan_t881159249_DateTime_t3738529785_TimeSpan_t881159249PFvvEPK10MethodInfoPvPS4_
Ed:___cxa_rethrow
X8d:__ZN5physx20InternalTriangleMesh17allocateFaceRemapEv
CGf:_Convert_ToSByte_m2991657475
zaj:_ParameterInfo_GetCustomAttributes_m2376494592
MJc:__Z18Transfer_BlittableI8JSONReadLb1EhEvRK29SerializationCommandArgumentsR31RuntimeSerializationCommandInfo
rhf:_Graphic_get_canvasRenderer_m315509948
oJg:_Collection_1_System_Collections_IList_Contains_m3397768605_gshared
Eym:_glBindRenderbuffer__wrapper
M6f:_CultureInfo_construct_internal_locale_from_name_m3254739477
mih:_RSASslSignatureDeformatter_VerifySignature_m1061897602
vhb:__ZN13MonoBehaviour8SetClassE17ScriptingClassPtr18ScriptingObjectPtr
CGd:__ZNK5physx7NpScene26getBounceThresholdVelocityEv
aNd:__ZN5physx6shdfnd8PoolBaseINS_2Sc12SimStateDataENS0_19ReflectionAllocatorIS3_EEE15disposeElementsEv
Y_f:_Array_InternalArray__Insert_TisLabelFixup_t858502054_m171542753_gshared
rPj:_InternalEnumerator_1_System_Collections_IEnumerator_get_Current_m3539708496_AdjustorThunk
Gma:__ZN20LocalFileSystemPosix4ReadER13FileEntryDatayyPvPy
bbb:__ZNSt3__211__sift_downIRN23ForwardShaderRenderLoop18RenderObjectSorterILb0EEEP21ForwardRenderPassDataEEvT0_S7_T_NS_15iterator_traitsIS7_E15difference_typeES7_
l_e:_SecurityPermission__ctor_m1462427327
bvm:dynCall_iiiiiiffiiiiiiiiiffffiiii
YOb:__ZN13MonoBehaviour5DoGUIENS_13GUILayoutTypeEii
xUj:_ChannelData_get_ClientProviders_m594662942
PKi:_QuickSearch_GetChar_m1297698557
oob:__ZNK12TLSAllocatorI14StackAllocatorE8ContainsEPKv
sLb:__ZN11TimeManager8TransferI18StreamedBinaryReadILb0EEEEvRT_
O8d:__ZNK5physx13GuMeshFactory19getNbTriangleMeshesEv
Fal:_GUILayoutUtility_INTERNAL_CALL_Internal_MoveWindow_m2775961852
n8b:__ZN15SerializeTraitsINSt3__23mapI4PPtrI6ShaderEN4core12basic_stringIcNS5_20StringStorageDefaultIcEEEENS0_4lessIS4_EENS0_9allocatorINS0_4pairIKS4_S9_EEEEEEE8TransferI24GenerateTypeTreeTransferEEvRSH_RT_
eEf:_DateTime__ParseEnum_m253019513
xHf:_Convert_ToUInt32_m2194577773
DFb:__ZN14BlendShapeData8TransferI14SafeBinaryReadEEvRT_
UTc:__ZN5physx2Gu15getPolygonIndexERKNS0_13PolygonalDataEPNS0_12SupportLocalERKNS_6shdfnd3aos5Vec3VE
nAf:_Hashtable_Remove_m4032631466
q1g:_DSAManaged_GenerateKeyPair_m2236915969
V1d:__ZN5physx36normalizePartitionsWithArticulationsERNS_6shdfnd5ArrayIjNS0_19ReflectionAllocatorIjEEEEPNS_23PxcSolverConstraintDescEPKNS_13PxcSolverBodyEjjS5_Pjj
Qyb:__ZN7Texture25ReloadFromStorageIfNeededEPvb
PWf:_Array_InternalArray__IndexOf_TisBoolean_t97287965_m1161209222_gshared
oHc:__Z35Transfer_Blittable_FixedBufferFieldI9JSONWritehEvRK29SerializationCommandArgumentsR31RuntimeSerializationCommandInfo
P4k:__ZN6il2cpp2os12Cryptography24OpenCryptographyProviderEv
ebj:_UnityAnalyticsHandler_InternalCreate_m3731354484
XJd:__ZN5physx2Sq17SceneQueryManager17processSimUpdatesEv
Ixf:_SynchronizedArrayListWrapper_Clear_m2191301493
pDe:_Update_Max
Rrk:__ZNK15dense_hashtableI10KeyWrapperIPK19Il2CppGenericMethodES4_N6il2cpp8metadata23Il2CppGenericMethodHashEN14dense_hash_setIS4_S7_NS4_14EqualsComparerINS6_26Il2CppGenericMethodCompareEEENSt3__29allocatorIS4_EEE8IdentityESB_SE_E10test_emptyERK30dense_hashtable_const_iteratorIS4_S4_S7_SG_SB_SE_E
VLk:__ZN6il2cpp6icalls8mscorlib6SystemL15ThrowNoWideningEv
jkl:_Physics_Raycast_m2941825911
Ebd:__ZN5physx6shdfnd5ArrayIPvNS0_19ReflectionAllocatorINS_13NpRigidStaticEEEE15growAndPushBackERKS2_
Ucc:__ZNK23TransformChangeDispatch24GetChangeMaskForInterestENS_12InterestTypeE
jzc:__Z45Transform_CUSTOM_INTERNAL_CALL_TransformPointP12Il2CppObjectRK8Vector3fRS1_
cJd:__ZN5physx10PxsContext25setVisualizationParameterENS_24PxVisualizationParameter4EnumEf
l4i:_GenericTypeParameterBuilder_InvokeMember_m1647304778
gjf:_HorizontalOrVerticalLayoutGroup_set_childControlWidth_m3261460516
Scl:_GUISkin_set_verticalScrollbar_m2480836745
Hva:__ZNSt3__26__treeINS_12__value_typeI39DeprecatedFastPropertyNameSerializationfEENS_19__map_value_compareIS2_S3_NS_4lessIS2_EELb1EEENS_9allocatorIS3_EEE7destroyEPNS_11__tree_nodeIS3_PvEE
Iee:__ZN8Collider16TransformChangedEi
Zwc:__Z81Register_UnityEngine_Playables_PlayableHandle_INTERNAL_CALL_GetInputCountInternalv
Nwe:_tt_cmap4_char_index
RN:__ZN7mecanim4hand13FingerDoFNameEj
H0e:_SecurityFrame_get_Assembly_m2874566710
FDg:_Enumerator_System_Collections_IEnumerator_Reset_m1487823313_gshared
h_a:__ZNK12HandlerChain8IsHiddenERK13FileEntryData
tVb:__ZL26Transfer_SimpleNativeClassI17RemapPPtrTransfer10RectOffsetLb0EEvRK29SerializationCommandArgumentsR31RuntimeSerializationCommandInfo
uic:__ZN16GraphicsSettings12CleanupClassEv
jdg:_Int32_ToString_m2507389746_AdjustorThunk
oGf:_Decimal_op_Explicit_m438967917
_mh:_DeflateStream_CloseZStream_m3729759613
PAb:__ZN21EnlightenSceneMapping16BuildRemapTablesEv
T4b:__ZNSt3__26vectorIN9ShaderLab20SerializedSubProgram13BufferBindingENS_9allocatorIS3_EEEC2ERKS6_
clf:_InputField_set_selectionColor_m2084640295
M2f:_Array_swap_TisByte_t1134296376_m4273963059_gshared
Kta:__ZNK9ShaderLab20ShaderBlendStateDesc15ToGfxBlendStateEPK19ShaderPropertySheetS3_R13GfxBlendState
moe:__Z37Collider_Get_Custom_PropContactOffsetP12Il2CppObject
HD:__ZN11UnityEngine9AnimationL22GenericBindingCallbackEPvS1_i
hPd:__ZN5physx2Sq8AABBTree11shiftOriginERKNS_6PxVec3E
Z7b:__ZN9ShaderLab9IntShaderC2Ev
gyk:__ZN6il2cpp6icalls8mscorlib6SystemL9IsPrivateEPK9EventInfo
F4k:__ZN6il2cpp6icalls8mscorlib6System10Reflection4Emit11TypeBuilder20setup_internal_classEP27Il2CppReflectionTypeBuilderS7_
Zae:__ZN5physx11AdjacenciesD2Ev
EDd:__ZN5physx6shdfnd8PoolBaseINS_2Sc24ElementInteractionMarkerENS0_19ReflectionAllocatorIS3_EEE12allocateSlabEv
COd:__ZN5physx2Sq16BucketPrunerCore11shiftOriginERKNS_6PxVec3E
oXf:_Array_InternalArray__IndexOf_TisILTokenInfo_t2325775114_m2602704009_gshared
s0:__Z58AudioPlayableOutput_CUSTOM_INTERNAL_CALL_InternalSetTargetR15HPlayableOutputP12Il2CppObject
kQ:__Z69AnimatorControllerPlayable_CUSTOM_INTERNAL_CALL_GetLayerIndexInternalR9HPlayableP12Il2CppString
Uwi:_StringBuilder_AppendFormat_m3255666490
y_i:_OverflowException__ctor_m4029085969
b0i:_Default_GetBetterMethod_m3232777160
C6i:_TypeBuilder_GetGenericArguments_m2872156836
qJd:__ZN5physx6shdfnd5ArrayIPNS_3Scb5ShapeENS0_19ReflectionAllocatorIS4_EEE6resizeEjRKS4_
X_c:__ZN5physx3Cct15ObstacleContextD2Ev
bnk:__ZN13Il2CppHashMapIPK22Il2CppGenericParameterP11Il2CppClassN6il2cpp5utils11PointerHashIS1_EENSt3__28equal_toIS2_EENS9_9allocatorINS9_4pairIK10KeyWrapperIS2_ES4_EEEEEC2EjRKS8_RKSB_
qNe:__ZN11UnityEngine15PlatformWrapper19GetPhysicalMemoryMBEv
Fna:__Z15CreateDirectoryRKN4core12basic_stringIcNS_20StringStorageDefaultIcEEEE
cDa:__Z21CalculateGlobalMatrix23TransformAccessReadOnly
D6i:_TypeBuilder_GetGenericTypeDefinition_m1632720438
oRf:_Array_InternalArray__ICollection_Contains_TisLink_t544317964_m163190451_gshared
WJf:_DateTimeOffset_System_IComparable_CompareTo_m176229495_AdjustorThunk
xLb:__ZNK13BuildSettings22GetTypeVirtualInternalEv
Skc:__ZN13MonoBehaviour20SetScriptingDataFromERKS_
R$f:_Array_InternalArray__set_Item_TisKeyValuePair_2_t1377593753_m556360506_gshared
Rgj:_AnimatorControllerPlayable_GetAnimatorTransitionInfo_m427368255_AdjustorThunk
NCl:__ZL56AppDomainSetup_t123196401_CustomAttributesCacheGeneratorP21CustomAttributesCache
NPd:__ZN5physx2Cm10FanoutTaskC2EPKc
sBg:_List_1_CheckIndex_m2250397830_gshared
kMd:__ZNK5physx2Sc5Scene17prefetchForRemoveERKNS0_8BodyCoreE
j3e:_String_LastIndexOf_m578673845
b9c:__ZN5physx2Sc8RigidSimD2Ev
zLi:_Interval_get_Empty_m3617514670
e$i:_Assembly_GetName_m981771927
$B:__ZN7mecanim12statemachine24CreateStateMachineOutputEPKNS0_20StateMachineConstantEjRNS_6memory9AllocatorE
EId:__ZNK5physx13NpVolumeCache7raycastERKNS_6PxVec3ES3_fRNS_13PxHitCallbackINS_12PxRaycastHitEEENS_7PxFlagsINS_9PxHitFlag4EnumEtEERKNS_17PxQueryFilterDataEPNS_21PxQueryFilterCallbackE
hKa:__ZNK9GfxDevice27GetActiveRenderSurfaceWidthEv
q2l:__ZL114StandaloneInputModule_t2760469101_CustomAttributesCacheGenerator_StandaloneInputModule_ForceAutoSelect_m2837047882P21CustomAttributesCache
h_d:__ZN5physx16PxsIslandManagerC2EjRNS_19PxcScratchAllocatorEPNS_2Cm13EventProfilerE
INe:__ZN11UnityEngine15PlatformWrapper28GetCleanGraphicsFixedVersionEv
Guj:_MaskableGraphic_RecalculateClipping_m1772937317
Hlg:_UnmanagedMemoryStream_SetLength_m3752964620
YBk:__ZN6il2cpp2vm4Type7GetTypeEPK10Il2CppType
_Wd:__ZN5physx13ActorAABBTask11runInternalEv
Edc:__ZN16SpriteRenderData28PrepareRenderingDataIfNeededEv
r7g:_ArgumentOutOfRangeException_GetObjectData_m1344552880
Big:_MemoryStream_SetLength_m974389318
YBl:__ZL100CompressedStack_t1202932761_CustomAttributesCacheGenerator_CompressedStack_GetObjectData_m2451703776P21CustomAttributesCache
dme:__ZZN8Collider15InitializeClassEvEN32FunctorImpl_795kTransformChanged4CallEPviR11MessageData
lKj:_InternalEnumerator_1_get_Current_m165106323_AdjustorThunk
Exi:_UTF32Encoding_GetByteCount_m3610769032
aza:__ZN6prcoreL17RemapGenericFloatI18TexFormatRGBAFloat17TexFormatRGBAHalfEEvPKNS_9InnerInfoE
Wzd:__ZN5physx14NpRigidDynamic18setKinematicTargetERKNS_11PxTransformE
BMi:_MatchCollection_CopyTo_m3807326147
HAb:__ZN10GISettings8TransferI14SafeBinaryReadEEvRT_
lo:FUNCTION_TABLE_vifff
y6l:__ZL54Text_t1901882714_CustomAttributesCacheGenerator_m_TextP21CustomAttributesCache
uVe:_MD5CryptoServiceProvider__ctor_m3271163125
Ejb:__ZN19CustomRenderTexture12ClearGPUDataEv
O$h:__Z130RuntimeInvoker_Int32_t2950945753_IntPtr_t_RuntimeObject_Int32_t2950945753_Int32_t2950945753_Int32_t2950945753_Int32U26_t1369213839PFvvEPK10MethodInfoPvPS4_
Lgj:_AnimatorControllerPlayable_INTERNAL_CALL_GetNextAnimatorStateInfoInternal_m772491608
cra:__ZN13RenderTexture13ApplySettingsEv
bec:__ZN26SkinnedMeshRendererManager14FinalizeUpdateEP17SkinBoundsJobData18MemLabelIdentifier
O5i:_ModuleBuilderTokenGenerator_GetToken_m2588853565
jsf:_Boolean_System_IConvertible_ToDecimal_m3176932461_AdjustorThunk
Ef:_JS_Sound_SetListenerPosition
co:FUNCTION_TABLE_fiffi
wR:__Z86Register_UnityEngine_Animations_AnimatorControllerPlayable_INTERNAL_CALL_SetBoolStringv
Byj:_ScrollRect_OnInitializePotentialDrag_m3139711961
nqd:__ZN5physx7NpCloth21setLinearInertiaScaleENS_6PxVec3E
nAm:_glGetActiveUniform__wrapper
ikg:_StreamWriter_LowLevelWrite_m1081676583
zia:__ZZN15DirectorManager15InitializeClassEvEN45FixedUpdateDirectorFixedSampleTimeRegistrator7ForwardEv
gBa:__ZNK8Material16MarkDependenciesER27GarbageCollectorThreadState
hAj:_Slider_set_handleRect_m1101657556
jKf:_DateTimeOffset_ToString_m3985341516_AdjustorThunk
pIc:__ZL17Transfer_GUIStyleI9JSONWriteLb0EEvRK29SerializationCommandArgumentsR31RuntimeSerializationCommandInfo
N5a:__Z28GetHaloVertexPositionsStereoP8Vector3fRKS_S2_f
bne:__ZN17TriggerStayStates20executeDeferredEraseEv
Rza:__ZN6prcoreL27StretchGenericFloatBilinearI15TexFormatRGHalfEEvPKNS_9InnerInfoE
Z9f:_SortKey_GetHashCode_m3547067087
rWd:__ZN5physx14PxsAABBManager22processAggregateSingleERKNS_19AggregateSortedDataERKNS_9AggregateEjPNS_2Cm10BitMapBaseINS_6shdfnd9AllocatorEEE
u6l:__ZL71SpriteState_t1362986479_CustomAttributesCacheGenerator_m_DisabledSpriteP21CustomAttributesCache
Frh:_PublicKey_DecodeDSA_m3490622362
Lxc:__Z49Register_UnityEngine_Resources_GetBuiltinResourcev
c$d:__ZN5physx2Sc17ParticleSystemSim20scheduleCollisionCpuERNS0_16InteractionSceneERKNS_6shdfnd5ArrayIPS1_NS4_19ReflectionAllocatorIS6_EEEERNS_10PxBaseTaskE
jDi:_Type_GetMethod_m1479779718
Zwe:_tt_cmap10_char_index
Udh:_TlsException__ctor_m3242533711
Ajl:_Object_Internal_InstantiateSingle_m2978472292
k9g:_BitConverterLE_GetUIntBytes_m795219058
IBf:_SortedList__ctor_m3676552745
Fnk:__ZN15dense_hashtableINSt3__24pairIK10KeyWrapperIPK22Il2CppGenericParameterEP11Il2CppClassEES6_N6il2cpp5utils11PointerHashIS4_EEN14dense_hash_mapIS6_S9_SE_NS6_14EqualsComparerINS0_8equal_toIS5_EEEENS0_9allocatorISA_EEE9SelectKeyESJ_SL_E3endEv
u0f:_Array_InternalArray__set_Item_TisColor32_t2600501292_m1891325855_gshared
D6b:__ZN9ShaderLab22SerializedBindChannels8TransferI19StreamedBinaryWriteILb0EEEEvRT_
lCc:__ZN5IMGUI20MoveWindowFromLayoutER8GUIStateiRK5RectTIfE
Ase:_UNITY_FT_Stream_ReadUShort
Stc:__Z51Register_UnityEngine_GUILayer_INTERNAL_CALL_HitTestv
nAc:__Z50Register_UnityEngine_Object_FindSceneObjectsOfTypev
hva:__ZNSt3__26__treeINS_12__value_typeIN4core12basic_stringIcNS2_20StringStorageDefaultIcEEEES6_EENS_19__map_value_compareIS6_S7_NS_4lessIS6_EELb1EEE13stl_allocatorIS7_L18MemLabelIdentifier1ELi16EEE7destroyEPNS_11__tree_nodeIS7_PvEE
V0i:_AssemblyBuilder_get_Location_m384539722
dAi:_Thread_get_ManagedThreadId_m1068113671
$Oa:__Z13IsDepthFormat14GraphicsFormat
uMb:__ZN12AspectRatios8TransferI24GenerateTypeTreeTransferEEvRT_
Ang:_MonoType_GetFields_m4176012508
G0c:__Z12FormatBufferPciPKcz
YQc:__ZN37ConvexVsMeshContactGenerationCallback10processHitERKN5physx12PxRaycastHitERKNS0_6PxVec3ES6_S6_RfPKj
tg:_emscripten_glUniform1fv
i1d:__ZL28removeBrokenEdgesFromIslandsPKjjS0_jS0_RKN5physx11NodeManagerERNS1_11EdgeManagerERNS1_13IslandManagerERNS1_2Cm10BitMapBaseINS1_6shdfnd9AllocatorEEEPSD_
Rnk:__ZN6il2cpp2vm5Class13GetArrayClassEP11Il2CppClassj
O9e:_StandaloneInputModule_set_inputActionsPerSecond_m4057208843
eV:__ZN4FMOD7Channel7setModeEj
Ykj:_AudioClipPlayable_SetPauseDelayInternal_m1968594105
MHc:__Z35Transfer_Blittable_FixedBufferFieldI9JSONWritetEvRK29SerializationCommandArgumentsR31RuntimeSerializationCommandInfo
so:FUNCTION_TABLE_iifff
sCc:__ZN11IMGUIModule12AddGUIScriptER8ListNodeI13MonoBehaviourE
Gb:invoke_difi
azm:_glDeleteSamplers__wrapper
jha:__ZL50StaticRegisterSceneLoadedCallback_LightmapSettingsPv
$kh:_HybridDictionary_set_Item_m2997363718
xn:FUNCTION_TABLE_iiffi
PPj:_InternalEnumerator_1_get_Current_m1477715453_AdjustorThunk
Mqd:__ZNK5physx7NpCloth24getSeparationConstraintsEPNS_35PxClothParticleSeparationConstraintE
lGi:_UInt64_System_IConvertible_ToUInt32_m2784653358
IOa:__ZN21GLESGpuProgramApplier11ApplyVectorERKN20GpuProgramParameters14ValueParameterEPK8Vector4ft
odb:__Z17PrepareSceneNodesP11CullResults
Asi:_SByte_System_IConvertible_ToDecimal_m2548745278
mze:_cff_size_done
Ldb:__ZN29ExtractProjectionPlanesHelperILb1EE5ApplyERK10Matrix4x4fP5Plane
M1d:__ZN5physx6shdfnd5ArrayINS_17PxcSolverBodyDataENS0_16AlignedAllocatorILj128ENS0_19ReflectionAllocatorIS2_EEEEE6resizeEjRKS2_
lPc:__ZN5physx2Cm12RenderOutputlsEj
Xjb:__ZN6Camera34UpdatePreviousViewProjectionMatrixEv
cua:__ZN9ShaderLab11ShaderState25RemoveUnsupportedProgramsEPK6Shader
q7b:__ZL23AddGpuProgramParametersR20GpuProgramParametersRKNSt3__26vectorIN9ShaderLab20SerializedSubProgram15MatrixParameterENS1_9allocatorIS5_EEEERKNS2_INS4_15VectorParameterENS6_ISB_EEEEiP16PropertyNamesSet
fAc:__Z44Register_UnityEngine_Object_DestroyImmediatev
Jkg:_SynchronizedWriter_WriteLine_m1552352268
atc:__Z47Register_UnityEngine_Component_BroadcastMessagev
Apc:__Z26scripting_class_has_parent17ScriptingClassPtrS_
LOk:__ZN6il2cpp6icalls8mscorlib6System2IO6MonoIO4ReadE12Il2CppIntPtrP11Il2CppArrayiiPi
lga:__ZN13RuntimeStaticI21AssetReferenceStorageLb0EE16StaticInitializeEPv
ejm:_TextGenerator_PopulateAlways_m3684656810
qcg:_Int32_System_IConvertible_ToByte_m3832391412_AdjustorThunk
w7k:__ZN6il2cpp8metadata25Il2CppGenericClassCompare7CompareEPK18Il2CppGenericClassS4_
hH:__ZNK8Animator20IsInMatchTargetStateEv
F0f:_Array_InternalArray__set_Item_TisUILineInfo_t4195266810_m2313892078_gshared
mDc:__Z36Register_UnityEngine_GUI_set_changedv
sWj:_Context_GetServerContextSinkChain_m3154465897
k5i:_MethodBase_get_IsVirtual_m2008546636
rGf:_Convert_ToInt64_m2075293963
fqd:__ZN5physx7NpCloth13setTargetPoseERKNS_11PxTransformE
wB:__ZN27AnimationLayerMixerPlayable18SetInputConnectionEP8Playablei
REc:__Z42Register_UnityEngine_GUIStyle_get_wordWrapv
bB:__ZN7mecanim28TransformValueArrayBlendNodeEiiiRKNS_10ValueArrayERKNS_14ValueArrayMaskERS0_RS3_RNS_16ValueArrayWeightEf
m2i:_DerivedType_MakeGenericType_m100846339
$Rg:_ReadOnlyCollection_1_System_Collections_IList_Remove_m3588765115_gshared
qpk:__ZN6il2cpp2vm5Class40GetInterfaceInvokeDataFromVTableSlowPathEPK12Il2CppObjectPK11Il2CppClassj
tff:_Dropdown_set_value_m1048320169
oub:__ZN20TierGraphicsSettings8TransferI18StreamedBinaryReadILb0EEEEvRT_
QCl:__ZL150ApplicationIdentity_t1917735356_CustomAttributesCacheGenerator_ApplicationIdentity_System_Runtime_Serialization_ISerializable_GetObjectData_m995105840P21CustomAttributesCache
Pcg:_Int32_System_IConvertible_ToUInt64_m2502338186_AdjustorThunk
rva:__ZN14SafeBinaryRead8TransferINSt3__24pairIN9ShaderLab16FastPropertyNameE10ColorRGBAfEEEEvRT_PKc17TransferMetaFlags
Elk:__ZL9rshift128PyS_
lcg:_Int16_ToString_m2072232391_AdjustorThunk
Rck:_Enumerator_VerifyState_m169680537_AdjustorThunk
MIk:__ZN14dense_hash_mapI10KeyWrapperINSt3__24pairIPK12PropertyInfoP11Il2CppClassEEEj17ReflectionMapHashIS8_ENS9_14EqualsComparerINS1_8equal_toIS8_EEEENS1_9allocatorINS2_IKS9_jEEEEE13set_empty_keyERSH_
Lk:_glRenderbufferStorage
CQk:__ZNK15dense_hashtableINSt3__24pairIK10KeyWrapperINS1_IPKcS4_EEEiEES6_24NamespaceAndNamePairHashN14dense_hash_mapIS6_iS9_NS6_14EqualsComparerI26NamespaceAndNamePairEqualsEENS0_9allocatorIS8_EEE9SelectKeyESD_SF_E13find_positionERS7_
pvc:__Z45Register_UnityEngine_Input_get_touchSupportedv
MNe:__ZN11UnityEngine15PlatformWrapper28GetTextureFormatSupportFlagsEv
Pue:_UNITY_FT_Create_Class_pshinter_module_class
NHi:_Version_Clone_m1749041863
WQi:_Uri_EscapeString_m3864445955
Idm:_RectTransform_SendReapplyDrivenProperties_m3862170524
Rze:_cf2_setError
FFb:__ZN14SafeBinaryRead21TransferSTLStyleArrayI13dynamic_arrayI12BoneWeights4Lj16EEEEvRT_17TransferMetaFlags
hzh:_Enumerator_MoveNext_m465222849_AdjustorThunk
C$i:_AssemblyName_get_FullName_m3351492191
XCa:__Z33InterpolateLightProbeCoefficientsRK17LightProbeContextRK29LightProbeSamplingCoordinatesR20SphericalHarmonicsL2
x0a:__ZZ23InitPlayerLoopCallbacksvEN35PreUpdateSendMouseEventsRegistrator7ForwardEv
uff:_Dropdown_Awake_m3140021404
Hh:_glDisable
nKe:__Z44Register_UnityEngine_Canvas_get_pixelPerfectv
j_k:__ZN6il2cpp5utils11StringUtils15StringDuplicateEPKDsj
KOi:_Regex_Match_m4145799399
nB:__ZN17AnimationPlayable17ProcessRootMotionEP35AnimationPlayableEvaluationConstantP32AnimationPlayableEvaluationInputP33AnimationPlayableEvaluationOutput
o3e:_String_IsNullOrEmpty_m2969720369
ZDh:_Enumerator_MoveNext_m2602845255_gshared
Y_g:_BigInteger_LowestSetBit_m3082714978
I_f:_Array_InternalArray__Insert_TisKeyValuePair_2_t2530217319_m1769848997_gshared
LUc:__ZN5physx10getInverseERNS_7PxMat33ERNS_6PxVec3ERKS0_RKS2_
cha:__ZNSt3__26vectorINS_4pairIyP17VertexDeclarationEENS_9allocatorIS4_EEE6assignIPS4_EENS_9enable_ifIXaasr21__is_forward_iteratorIT_EE5valuesr16is_constructibleIS4_NS_15iterator_traitsISB_E9referenceEEE5valueEvE4typeESB_SB_
$Bm:b118
aCm:b119
K1a:__ZNK8Material12GetPassCountEv
yXe:_RSAParameters_t1728406613_marshal_pinvoke
ELi:_Interval_IsDisjoint_m1532171337_AdjustorThunk
MAm:b112
OAm:b114
TAm:b115
UAm:b116
o_k:__ZN6il2cpp6icalls8mscorlib6System15MonoCustomAttrs17IsDefinedInternalEP12Il2CppObjectP20Il2CppReflectionType
xvk:__ZN6il2cpp6icalls6System6System3Net7SocketsL32end_point_info_to_socket_addressERKNS_2os12EndPointInfoE
Atm:dynCall_diii
Gtj:_LayoutUtility_GetFlexibleWidth_m22831835
aQd:__ZN5physx6shdfnd5ArrayIPhNS0_19ReflectionAllocatorIS2_EEE8recreateEj
Kpi:_BinaryFormatter__ctor_m971003555
zEj:_ArrayReadOnlyList_1_ReadOnlyError_m865416608_gshared
Tyf:_CollectionBase_System_Collections_IList_get_Item_m3743372945
kQa:__ZN4crnd12crn_unpacker22decode_alpha_endpointsEv
seb:__Z23CullDynamicObjectsUmbraPK4AABBPKN5Umbra15OcclusionBufferER9IndexList
UC:__ZThn148_NK26AnimatorControllerPlayable41GetStateMachineBehaviourVectorDescriptionEv
Owe:_tt_cmap4_char_next
C7h:__Z69RuntimeInvoker_Void_t1185182177_Vector2_t2156229523_SByte_t1669577662PFvvEPK10MethodInfoPvPS4_
Gdf:_ColorTween_set_startColor_m2562993758_AdjustorThunk
HPh:__Z50RuntimeInvoker_Boolean_t97287965_Int16_t2552820387PFvvEPK10MethodInfoPvPS4_
lFf:_Convert_ToDecimal_m1233667008
H3h:__Z44RuntimeInvoker_RuntimeObject_Ray_t3785851493PFvvEPK10MethodInfoPvPS4_
$Lc:__ZN8JSONRead21TransferSTLStyleArrayI13dynamic_arrayIsLj2EEEEvRT_18MemLabelIdentifier17TransferMetaFlags
RU:__ZN4FMOD7Channel11setPositionEjj
yi:_glBindSampler
Ach:_ClientContext_get_ClientHelloProtocol_m1654639078
ugd:__ZN5physx2Sc8BodyCore20clearSpatialVelocityEbb
Ci:_glGetVertexAttribiv
oEh:_Enumerator_System_Collections_IEnumerator_get_Current_m1975949486_gshared
fNi:_PatternCompiler_EmitSub_m193323684
YYg:_MSCompatUnicodeTable_Category_m1834196420
SFe:__ZN2UI11CanvasGroup23VirtualRedirectTransferER18StreamedBinaryReadILb0EE
W_d:__ZN5physx2Sc27ConstraintProjectionManagerC2Ev
hLc:__ZN8JSONRead8TransferIbEEvRT_PKc17TransferMetaFlagsb
V3c:__ZN5physx6shdfnd5ArrayIPvNS0_19ReflectionAllocatorINS_2Sc24ElementInteractionMarkerEEEE4copyINS0_15InlineAllocatorILj256ES6_EEEEvRKNS1_IS2_T_EE
drj:_CullingGroup_t2096318768_marshal_pinvoke
_Bi:_TimeSpan_ToString_m1128692466
Ynd:__ZNK5physx7NpShape15getGeometryTypeEv
D5j:_AesManaged_CreateEncryptor_m2294080233
rAb:__ZN26CustomRenderTextureManager19PreAllocateMaterialEP19CustomRenderTexture
Jth:_Socket_SetSocketOption_internal_m2890815837
mij:_AnimatorControllerPlayable_PlayInFixedTime_m411307614_AdjustorThunk
i0k:_GC_promote_black_lists
SDf:_Convert_ToChar_m3757390865
ULc:__Z29Transfer_Blittable_ArrayFieldI8JSONRead8Vector4fEvRT_R9ArrayInfoRK23StaticTransferFieldInfo
a9h:__Z88RuntimeInvoker_RuntimeObject_RuntimeObject_SByte_t1669577662_RuntimeObject_RuntimeObjectPFvvEPK10MethodInfoPvPS4_
yp:FUNCTION_TABLE_vd
Ap:FUNCTION_TABLE_vi
Hfa:__ZN13RuntimeStaticI37UnityShaderCompilerExtPluginConfigureLb0EE16StaticInitializeEPv
oPe:__ZN11UnityEngine7Connect17DeviceStatusEvent20SetDeviceAspectRatioEf
yoc:__ZN10systeminfo24GetRuntimePlatformStringEv
Vwi:_StringBuilder_AppendFormat_m2403596038
WTe:_DSASignatureDeformatter_SetHashAlgorithm_m3186995552
HQg:_ReadOnlyCollection_1_System_Collections_Generic_ICollectionU3CTU3E_Clear_m2772202961_gshared
GTd:__ZN5physxL25solveContact4_StaticBlockEPKNS_23PxcSolverConstraintDescERNS_16PxcSolverContextE
rO:__ZNK8Animator17HasBoundPlayablesEv
nSj:_ResourceSet_ReadResources_m3663669011
yzi:_SynchronizationContext_SetSynchronizationContext_m1249070039
QAh:_Enumerator_Reset_m54102781_gshared
DZc:__ZNK5physx3Cct17CapsuleController15getFootPositionEv
HFd:__ZN5physx7NpScene15removeAggregateERNS_11PxAggregateEb
fBg:_List_1_AddEnumerable_m1267044261_gshared
iUh:__Z99RuntimeInvoker_Void_t1185182177_RuntimeObject_Int32_t2950945753_SByte_t1669577662_SByte_t1669577662PFvvEPK10MethodInfoPvPS4_
yyk:__ZN6il2cpp2vm7Runtime9SetConfigEPKc
za:invoke_iiifiii
pTi:_Cookie_tryCreatePorts_m880988800
etj:_InvokableCall_Invoke_m3416177260
xNk:__ZN6il2cpp2vm9Exception11FromNameMsgEPK11Il2CppImagePKcS6_S6_
Rn:FUNCTION_TABLE_fiiifii
NTd:__ZN5physx25solveContact_BStaticBlockEPKNS_23PxcSolverConstraintDescEjRNS_16PxcSolverContextE
I8:__Z14GetTimeManagerv
Nqb:__Z12GUIDToStringRK9UnityGUIDPc
XBm:_emscripten_glDrawArrays__wrapper
Ycg:_Int32_Equals_m2976157357
F1h:__Z110RuntimeInvoker_Int32_t2950945753_Int32_t2950945753_Int32_t2950945753_Int32U26_t1369213839_Int32U26_t1369213839PFvvEPK10MethodInfoPvPS4_
qSc:__ZL4facejjjRN5physx6PxVec3ERKS0_S3_S3_PfRf
CJd:__ZN5physx6shdfnd5ArrayIPNS_2Sc14ConstraintCoreENS0_19ReflectionAllocatorIS4_EEE6resizeEjRKS4_
Ohh:_TlsException__ctor_m3717683709
g_k:__ZN4utf88internal20is_overlong_sequenceIiEEbjT_
hfk:_CachedInvokableCall_1_Invoke_m2658403652_gshared
Lbl:_GUILayoutGroup_SetVertical_m2369884376
D2d:__ZL18getFrictionPatchesRN5physx26PxcFrictionPatchStreamPairERNS_20PxcCorrelationBufferEPKhjRKNS_11PxTransformES8_f
NRi:_Uri_get_Query_m2772518875
gtc:__Z41Register_UnityEngine_Cursor_get_lockStatev
B9a:__Z14SetupLightmapsRK8Vector4fS1_R17ShaderPassContext
kHk:__ZN14dense_hash_mapI10KeyWrapperIPK14Il2CppAssemblyEPK22Il2CppMonoAssemblyNameN6il2cpp5utils11PointerHashIS2_EENS4_14EqualsComparerINSt3__28equal_toIS3_EEEENSD_9allocatorINSD_4pairIKS4_S7_EEEEE13set_empty_keyERSJ_
E1a:__ZL20InitializeGUIShadersv
Gag:_Guid_CompareTo_m243656946
Kcc:__Z20DestroyObjectDelayedP6Objectf
C6:__ZN20DynamicHeapAllocatorI17LowLevelAllocatorED0Ev
O3h:__Z159RuntimeInvoker_Boolean_t97287965_Vector3U26_t3464235976_Vector3U26_t3464235976_RaycastHitU26_t2429360258_Single_t1397266774_Int32_t2950945753_Int32_t2950945753PFvvEPK10MethodInfoPvPS4_
eee:__ZN8Collider16RecreateColliderEPK9Rigidbody
Y6a:__ZN9DepthPassD2Ev
RT:__ZN11AudioFilter6GetDSPEv
xXe:_RSACryptoServiceProvider_OnKeyGenerated_m863837376
gld:__ZN5physx2Sc14ConstraintCore9setBodiesEPNS0_9RigidCoreES3_
Qwj:_Scrollbar_OnDrag_m4289602768
Laa:__ZN19RuntimeSceneManager14CanUnloadSceneEP10UnityScene
$6a:__Z22ExtractRenderNodeQueueRK11CullResults15ExtractionFlagsR15RenderNodeQueue
vke:__ZN5physx6shdfnd8PoolBaseINS_24NpPtrTableStorageManager8PtrBlockILi64EEENS0_19ReflectionAllocatorIS4_EEE12allocateSlabEv
dT:__ZN24AudioScriptBufferManagerC2Ev
lNc:__ZN11UnityEngine9Analytics18SceneLoadTimeEvent12ToJsonStringER9JSONWrite
Fcj:_AnimationEvent_get_animatorStateInfo_m3909257444
ure:__ZNSt3__26vectorIh13stl_allocatorIhL18MemLabelIdentifier1ELi16EEE8__appendEj
JNj:_InternalEnumerator_1_System_Collections_IEnumerator_get_Current_m3854084659_AdjustorThunk
zkf:_OnValidateInput_Invoke_m1009124904
CDj:_U3CGetEnumeratorU3Ec__Iterator0_System_Collections_IEnumerator_get_Current_m283764921_gshared
xre:__ZN20TextRenderingPrivate8FontImpl16ResetPackingDataEv
r6f:_CultureInfo_get_IcuName_m2258611679
pHc:__Z18Transfer_BlittableI9JSONWriteLb0EfEvRK29SerializationCommandArgumentsR31RuntimeSerializationCommandInfo
qra:__Z21GetAsyncUploadManagerv
nk:_emscripten_glDetachShader
Kvk:__ZN6il2cpp6icalls6System6System3Net7SocketsL19check_thread_statusEv
pdd:__ZNK5physx2Sc15ArticulationSim16createDriveCacheEfj
xPa:__ZN17GenericDynamicVBO20ReleaseChunkInternalERK21DynamicVBOChunkHandlejj
zEe:__ZL27CleanupModule_TextRenderingv
L$i:_AssemblyName_GetObjectData_m1516383869
S3g:_SymmetricTransform_OFB_m3842617151
m_b:__Z18Transfer_BlittableI18StreamedBinaryReadILb1EELb1E4AABBEvRK29SerializationCommandArgumentsR31RuntimeSerializationCommandInfo
v1c:__ZN5physx6shdfnd5ArrayIPNS_3Scb5ActorENS0_19ReflectionAllocatorIS4_EEE6resizeEjRKS4_
xsa:__ZN12CachedWriter11Align4WriteEv
d8a:__Z20DoDeferredRenderLoopR17RenderLoopContextR13dynamic_arrayI16RenderObjectDataLj4EES4_RK11CullResultsRP13RenderTextureSA_Pb
GGa:__ZN19RuntimeSceneManager11CreateSceneEv
OMi:_PatternCompiler_Emit_m1540115729
cze:_ps_get_standard_strings
cab:__Z27SetupBakedOcclusionForLightbRK15SharedLightDataR17ShaderPassContext
UXh:__Z70RuntimeInvoker_Boolean_t97287965_TimeSpan_t881159249_SByte_t1669577662PFvvEPK10MethodInfoPvPS4_
qec:__ZNK25BlendshapePropertyBinding9BindValueER6ObjectRKN11UnityEngine9Animation14GenericBindingERNS3_10BoundCurveE
Gv:__ZN24GenerateTypeTreeTransfer8TransferIN13AnimationClip9PPtrCurveEEEvRT_PKc17TransferMetaFlags
Gui:_EncoderFallbackException__ctor_m1051987327
kmd:__ZN5physx7NpScene14removeMaterialERNS_10NpMaterialE
F7c:__ZN5physx16PxsIslandManager24setEdgeArticulationJointERKNS_20PxsIslandManagerHookIjLj4294967295EEE
UKf:_Decimal_System_IConvertible_ToBoolean_m1123794670
mgd:__ZN5physx2Sc10NPhaseCore25addToDirtyInteractionListEPNS0_15CoreInteractionE
tdi:__Z98RuntimeInvoker_Int32_t2950945753_RaycastResult_t3360306849_RaycastResult_t3360306849_RuntimeObjectPFvvEPK10MethodInfoPvPS4_
Rtj:_Mask__ctor_m1269055150
p3e:_String_PadLeft_m1263950263
uvh:_WebRequest_AddPrefix_m3187775913
eu:__ZNSt3__26vectorIN13AnimationClip9PPtrCurveE13stl_allocatorIS2_L18MemLabelIdentifier25ELi16EEE6assignINS_11__wrap_iterIPS2_EEEENS_9enable_ifIXaasr21__is_forward_iteratorIT_EE5valuesr16is_constructibleIS2_NS_15iterator_traitsISC_E9referenceEEE5valueEvE4typeESC_SC_
w2a:__Z18RenderImageFiltersR10RenderLoopb
k7:__Z19free_alloc_internalPv18MemLabelIdentifier
XIe:__Z43CanvasRenderer_Get_Custom_PropMaterialCountP12Il2CppObject
OWi:_WebHeaderCollection_add_m1104401249
_hb:__ZN10GameObjectD2Ev
MRg:_ReadOnlyCollection_1_System_Collections_Generic_ICollectionU3CTU3E_Add_m2327307210_gshared
Dxg:_List_1_Remove_m1457733883_gshared
I3d:__ZN5physx2Cm12DelegateTaskINS_2Sc5SceneEXadL_ZNS3_19islandGenSecondPassEPNS_10PxBaseTaskEEEE11runInternalEv
CK:__ZN18StreamedBinaryReadILb0EE21TransferSTLStyleArrayI22OffsetPtrArrayTransferI9OffsetPtrIN7mecanim12statemachine18TransitionConstantEEEEEvRT_17TransferMetaFlags
mpc:__ZN19RuntimeSceneManager32LoadSceneAsyncByNameOrBuildIndexERKN4core12basic_stringIcNS0_20StringStorageDefaultIcEEEEiNS_11LoadingModeEb
QSi:_Cookie_set_Version_m1303767385
Eld:__ZN5physx6shdfnd4sortIPvNS0_4LessIS2_EENS0_19ReflectionAllocatorINS_10NpMaterialEEEEEvPT_jRKT0_RKT1_j
gah:_MD4Managed_Encode_m386285215
Gga:__ZN10InputEventD2Ev
Iyh:_Enumerator_MoveNext_m3398155861_AdjustorThunk
Imc:__ZN24CompressedAnimationCurve18DecompressTimeKeysI11QuaternionfEEvR17AnimationCurveTplIT_E
Dba:__ZL23OutOfBoundsReadingErrorPKN5Unity4TypeEiiR6Object
ySe:__ZN22UnityWebRequestManagerD2Ev
Dhj:_AnimatorControllerPlayable_INTERNAL_CALL_CrossFadeInFixedTimeInternal_m2290688589
J_c:__ZN5physx3Cct15ObstacleContext13onOriginShiftERKNS_6PxVec3E
Znm:_isalpha
ODf:_Convert_ToChar_m1442101407
hjh:_SslClientStream_OnLocalPrivateKeySelection_m1934775249
wEd:__ZN5physx6shdfnd8PoolBaseINS_2Gu31SpherePersistentContactManifoldENS0_19ReflectionAllocatorIS3_EEE12allocateSlabEv
b8c:__ZN5physx6shdfnd5ArrayIPNS_2Sc7BodySimENS0_19ReflectionAllocatorIS4_EEE8recreateEj
uwk:__ZN6il2cpp2vmL17IsSocketAsyncCallEP14Il2CppDelegate
SAf:_Slot_t3975888750_marshal_pinvoke_back
Mqg:_List_1_GetIndex_m3976890482_gshared
Azj:_Selectable_get_image_m1928917691
ysb:__ZN6Camera23VirtualRedirectTransferER19StreamedBinaryWriteILb0EE
Z7k:_UnityEventBase_GetValidMethodInfo_m1761163145
Dl:_time
vdf:_ContentSizeFitter_set_verticalFit_m1831566876
KZe:_TripleDESCryptoServiceProvider_CreateDecryptor_m740960117
e9h:__Z122RuntimeInvoker_Void_t1185182177_Color_t2555686324_Single_t1397266774_SByte_t1669577662_SByte_t1669577662_SByte_t1669577662PFvvEPK10MethodInfoPvPS4_
Q2c:__ZNK5physx2Sc8ShapeSim15getPxsRigidCoreEv
Ila:__ZN18SpriteAtlasManagerD2Ev
U3c:__ZN5physx2Sc20ContactStreamManager28fillInContactReportExtraDataEPNS_17PxContactPairPoseEjRKNS0_8RigidSimEb
yAe:_cf2_stack_free
grd:__ZN5physx7NpCloth23removeCollisionTriangleEj
LYe:_SHA512Managed_HashCore_m2377807474
Xdg:_Int64_Parse_m3309897583
GQf:_CompareInfo_IndexOf_m667936183
Vz:__ZN7mecanim9animation19EvaluateFloatValuesEPKNS0_18ClipMuscleConstantEPKNS_18ValueArrayConstantEPKNS0_12ClipBindingsEPKNS0_10ClipOutputEPNS0_18AnimationNodeStateEfbb
jba:__ZN15dense_hashtableINSt3__24pairIKiP6ObjectEEi21InstanceIDHashFunctorN14dense_hash_mapIiS4_S6_NS0_8equal_toIiEE13stl_allocatorIS5_L18MemLabelIdentifier65ELi16EEE9SelectKeyES9_SC_E12resize_deltaEjj
MH:__ZN8Animator31ClearInternalControllerPlayableEv
$$e:_SecurityContext_Capture_m1047743382
GIi:_X509EnhancedKeyUsageExtension_ToString_m350388564
LRd:__ZNK5physx2Gu29EPASupportMapPairRelativeImplINS0_9TriangleVENS0_11ConvexHullVEE9doSupportERKNS_6shdfnd3aos5Vec3VERS7_SA_SA_
cDk:__ZN15dense_hashtableINSt3__24pairIK10KeyWrapperINS1_IPK9FieldInfoP11Il2CppClassEEEjEES9_17ReflectionMapHashIS8_EN14dense_hash_mapIS9_jSD_NS9_14EqualsComparerINS0_8equal_toIS8_EEEENS0_9allocatorISB_EEE9SelectKeyESI_SK_E4findERSA_
vxf:_SimpleEnumerator_MoveNext_m3113120129
TCa:__ZNK9Transform21GetLocalToWorldMatrixEv
mxc:__Z38RectTransform_CUSTOM_INTERNAL_get_rectP12Il2CppObjectP5RectTIfE
xgb:__ZN13RenderTexture19SetAutoGenerateMipsEb
vxa:__Z20GetTextureFormatInfo13TextureFormat
PEc:__Z43Register_UnityEngine_GUIStyle_get_alignmentv
xhc:__Z40InitializeLightAnimationBindingInterfacev
kbh:_RSAManaged_ToXmlString_m2369501989
FC:__ZN26AnimatorControllerPlayable8GetFloatEiRf
DLi:_Interval_get_Size_m4163671410_AdjustorThunk
iok:__ZN6il2cpp2vm5Class4InitEP11Il2CppClass
gGe:__ZN2UI14CanvasRenderer13AwakeFromLoadE17AwakeFromLoadMode
Wnl:__ZL64String_t_CustomAttributesCacheGenerator_String_Split_m3580120853P21CustomAttributesCache
CZi:_WebSocketFrame_CreatePingFrame_m267888540
$3k:__ZN6il2cpp5utils10MemoryPool6MallocEj
yS:__ZN11SoundHandle8InstanceD2Ev
ZRj:_ResourceEnumerator_Reset_m3754276504
Uja:__ZN31CanvasBatchIntermediateRenderer13StaticDestroyEPv
yHd:__ZN5physx13NpVolumeCache13onOriginShiftERKNS_6PxVec3E
bId:__ZNK5physx2Sc5Scene20getBroadPhaseRegionsEPNS_22PxBroadPhaseRegionInfoEjj
Rvc:__Z29Mesh_CUSTOM_RecalculateBoundsP12Il2CppObject
Ymh:_DeflateStream_Dispose_m959848075
zzm:_emscripten_glBindProgramARB__wrapper
dtc:__Z41Register_UnityEngine_CullingGroup_Disposev
oid:__ZN5physx14NpShapeManagerD2Ev
jNi:_PatternCompiler_EmitRepeat_m697083858
izb:__ZN7Cubemap23VirtualRedirectTransferER19StreamedBinaryWriteILb0EE
y4h:__Z101RuntimeInvoker_Boolean_t97287965_PlayableGraph_t3515989261_RuntimeObject_PlayableHandleU26_t645981773PFvvEPK10MethodInfoPvPS4_
svk:__ZNSt3__214__split_bufferIN6il2cpp2os11PollRequestERNS_9allocatorIS3_EEEC2EjjS6_
kZa:__ZN25MultiBlocksMemoryFileData5WriteEyyPKv
kHi:_UnhandledExceptionEventHandler_Invoke_m1545705626
ap:FUNCTION_TABLE_iiiiiiiiiiffffii
CRj:_ResourceReader_Read7BitEncodedInt_m3568166465
Z0g:_BlockProcessor_Core_m2138791525
Ssc:__Z35Component_CUSTOM_SendMessageUpwardsP12Il2CppObjectP12Il2CppStringS0_i
lpf:_Array_get_LongLength_m978104875
sRa:__ZL17ProgramUniform2fvPK7ApiGLESjiihPKv
U9k:_GUIStyle_Draw_m2539426750
Dhd:__ZN5physx2Sc5Scene16removeConstraintERNS0_14ConstraintCoreE
pre:__ZN20TextRenderingPrivate8FontImpl21HasCharacterInTextureEjijfPj
NIf:_DateTime_System_IConvertible_ToUInt16_m4182197229_AdjustorThunk
Gjh:_SslStreamBase_get_CheckCertRevocationStatus_m2739906607
tpm:_htonl
shl:_Mathf_Clamp01_m4133291925
UMa:__Z20GetBufferManagerGLESv
yym:b82
VYe:_SHA512Managed_Sigma1_m922902398
F1b:__ZN18StreamedBinaryReadILb0EE21TransferSTLStyleArrayI31ArrayOfManagedObjectsTransfererEEvRT_17TransferMetaFlags
tLd:__ZN5physx2Sc18ParticleSystemCore18addDeltaVelocitiesERKNS_2Cm10BitMapBaseINS_6shdfnd9AllocatorEEEPKNS_6PxVec3Ef
F$f:_Array_InternalArray__set_Item_TisArraySegment_1_t283560987_m1816477927_gshared
hKc:__Z18Transfer_BlittableI8JSONReadLb0EtEvRK29SerializationCommandArgumentsR31RuntimeSerializationCommandInfo
m0d:__ZN5physx6shdfnd8PoolBaseINS_2Sc16ActorElementPairENS0_19ReflectionAllocatorIS3_EEE12allocateSlabEv
S6f:_CultureInfo_CreateCulture_m1493441763
DZe:_TripleDES_IsWeakKey_m2147489852
Omd:__ZNK5physx9NpPhysics17getNbClothFabricsEv
mD:__ZN34AnimationStateMachineMixerPlayable13EndTransitionEv
uU:__ZN12AudioManager21FixMasterGroupRoutingEv
z3a:__ZNK19ShaderPropertySheet11HasPropertyERKN9ShaderLab16FastPropertyNameE
Ztm:dynCall_viffffii
qci:__Z81RuntimeInvoker_Boolean_t97287965_NavigationU26_t1807167253_Navigation_t3049316579PFvvEPK10MethodInfoPvPS4_
hkm:_Transform_INTERNAL_get_localPosition_m2432827925
yqh:_SslStream_EndRead_m3563632709
Mif:_GridLayoutGroup_SetLayoutHorizontal_m2838109254
abe:__ZL10UpdateLinkjjjjPN5physx11AdjTriangleERKNS_17ADJACENCIESCREATEE
Tef:_Dropdown_RefreshShownValue_m2806045241
w6c:__ZN5physx2Sc16InteractionScene19registerInteractionEPNS0_11InteractionEb
KRb:__Z18Transfer_BlittableI14SafeBinaryReadLb1E4AABBEvRK29SerializationCommandArgumentsR31RuntimeSerializationCommandInfo
jTd:__ZN5physx19solveContactCoulombERKNS_23PxcSolverConstraintDescERNS_16PxcSolverContextE
g3k:_GC_set_no_dls
Tcf:_ColorBlock_set_normalColor_m254595671_AdjustorThunk
eHi:_UnauthorizedAccessException__ctor_m40101894
fia:__Z22CreateMutexLockedQueue18MemLabelIdentifier
CMj:_InternalEnumerator_1_get_Current_m1007906068_gshared
I3c:__ZNK5physx2Sc9ActorPair23createContactReportDataEv
Ppk:__ZN15dense_hashtableINSt3__24pairIK10KeyWrapperIPK11Il2CppClassEPKcEES6_N6il2cpp5utils11PointerHashIS3_EEN14dense_hash_mapIS6_S9_SE_NS6_14EqualsComparerINS0_8equal_toIS5_EEEENS0_9allocatorISA_EEE9SelectKeyESJ_SL_E15set_deleted_keyERKSA_
xxf:_SimpleEnumerator_Reset_m1520014659
jT:__ZN9AudioClip7WWWOpenEPKciPjPPvS4_
Ndh:_ClientRecordProtocol_createServerHandshakeMessage_m2804371400
ufd:__ZN5physx18NpArticulationLink18setAngularVelocityERKNS_6PxVec3Eb
DRb:__Z18Transfer_BlittableI14SafeBinaryReadLb0E8Vector2fEvRK29SerializationCommandArgumentsR31RuntimeSerializationCommandInfo
HQk:__ZN15dense_hashtableINSt3__24pairIK10KeyWrapperINS1_IPKcS4_EEEiEES6_24NamespaceAndNamePairHashN14dense_hash_mapIS6_iS9_NS6_14EqualsComparerI26NamespaceAndNamePairEqualsEENS0_9allocatorIS8_EEE9SelectKeyESD_SF_E12resize_deltaEjj
y4b:__ZN15SerializeTraitsIN9ShaderLab20SerializedSubProgram16TextureParameterEE8TransferI14SafeBinaryReadEEvRS2_RT_
Hni:_RemotingServices_GetRemoteObject_m2117098022
FXf:_Array_InternalArray__IndexOf_TisRaycastResult_t3360306849_m2722567441_gshared
iMg:_Collection_1_System_Collections_IList_IndexOf_m4256072926_gshared
bTh:__Z132RuntimeInvoker_Boolean_t97287965_RuntimeObject_Int32_t2950945753_Int32_t2950945753_RuntimeObject_Int32_t2950945753_Int32_t2950945753PFvvEPK10MethodInfoPvPS4_
kvc:__Z53Register_UnityEngine_Input_INTERNAL_get_mousePositionv
h3g:_EncryptedPrivateKeyInfo_get_Salt_m3453455261
vkf:_InputField_get_shouldHideMobileInput_m2205078558
gEf:_DateTime__ParseNumber_m1240316250
_Nd:__ZN5physx6shdfnd8PoolBaseINS_2Sc19ShapeInstancePairLLENS0_19ReflectionAllocatorIS3_EEE15disposeElementsEv
m1e:_Single_System_IConvertible_ToSingle_m1939829239_AdjustorThunk
vXj:_LeaseManager__ctor_m4015084757
jgm:_Sprite_get_associatedAlphaSplitTexture_m3995405540
kJj:_InternalEnumerator_1_get_Current_m3839250771_gshared
q6f:_CultureInfo_get_TextInfo_m2342840448
GVc:__ZN5physx2Gu14sweepTriSphereERKNS_10PxTriangleERKNS_6PxVec3ES6_fS6_Rf
KOe:__ZThn1044_N18UnityConnectClientD0Ev
Asj:_Event_set_type_m2244193504
Qd:_SDL_GetTicks
qMf:_Delegate_GetCandidateMethod_m640765260
qHe:__ZN2UI14CanvasRenderer11SyncCullingENS0_8SyncFlagE
XEk:__ZN15dense_hashtableINSt3__24pairIK10KeyWrapperINS1_IPK11Il2CppImageP11Il2CppClassEEEjEES9_17ReflectionMapHashIS8_EN14dense_hash_mapIS9_jSD_NS9_14EqualsComparerINS0_8equal_toIS8_EEEENS0_9allocatorISB_EEE9SelectKeyESI_SK_E6insertERKSB_
Xdb:__Z21CreateShadowCullerJobP30CreateUmbraShadowCullerJobData
lrd:__ZNK5physx7NpCloth21getNbVirtualParticlesEv
Y2d:__ZN5physx17PxcNpMemBlockPool23releaseConstraintBlocksERNS_6shdfnd5ArrayIPNS_13PxcNpMemBlockENS1_19ReflectionAllocatorIS4_EEEE
$Tg:_ReadOnlyCollection_1_System_Collections_Generic_ICollectionU3CTU3E_Remove_m4072504734_gshared
kRa:__ZL18ProgramUniform2uivPK7ApiGLESjiihPKv
Kbf:_U3COnFinishSubmitU3Ec__Iterator0_MoveNext_m2729496168
oBm:_glUniform4iv__wrapper
Tab:__Z33GenerateShadowCasterPartsSortDataRK16ShadowCasterDatajRK15RenderNodeQueueRKNSt3__26vectorI20ShadowCasterPartData13stl_allocatorIS7_L18MemLabelIdentifier2ELi16EEEERK10Matrix4x4fRjP20ShadowCasterSortData
DBi:_TimeSpan_Compare_m753151303
pgd:__ZN5physx2Sq17SceneQueryManager13markForUpdateEPNS0_10ActorShapeE
Lze:_cf2_computeDarkening
P5:__GLOBAL__sub_I_runtime_gfxdevice_lump_cpp
K9i:_MonoPropertyInfo_get_property_info_m1599555644
mTe:_DESTransform_CipherFunct_m3527261721
E0k:_GC_expand_hp_inner
hSk:__ZNK15dense_hashtableI10KeyWrapperIP18Il2CppGenericClassES3_N6il2cpp8metadata22Il2CppGenericClassHashEN14dense_hash_setIS3_S6_NS3_14EqualsComparerINS5_25Il2CppGenericClassCompareEEENSt3__29allocatorIS3_EEE8IdentityESA_SD_E12test_deletedEj
Juc:__Z25Screen_Get_Custom_PropDpiv
aOi:_Parser_ParseSpecial_m1961501104
XZk:__ZN4utf812find_invalidIPKcEET_S3_S3_
at:__ZNK13AnimationClip8IsLegacyEv
mmf:_InputField_OnEndDrag_m4127187089
yWg:_ReadOnlyCollection_1_System_Collections_IList_RemoveAt_m2555465054_gshared
Y$k:_GC_err_printf
vkj:_AudioClipPlayable_INTERNAL_CALL_GetClipInternal_m91145426
qch:_CipherSuite_Write_m1172814058
r3:__ZN11UnityEngine15CloudWebService20WebRequestRestClient7PrepareEv
S8i:_MonoField_CheckGeneric_m453069507
dre:__ZN20TextRenderingPrivate19NativeTextGenerator23FixLineHorizontalOffsetEiii
OJ:__ZN15SerializeTraitsIN7mecanim6bitsetILj70EEEE8TransferI14SafeBinaryReadEEvRS2_RT_
Dxf:_SynchronizedArrayListWrapper_get_IsFixedSize_m3396437476
VFc:__Z54Register_UnityEngine_GUIUtility_Internal_SetHotControlv
nqi:_ObjectReader_ReadArrayOfString_m3550800559
Amg:_MonoCustomAttrs_GetCustomAttributesInternal_m648304078
xE:__ZN7mecanim9animation19DestroyAnimationSetEPNS0_12AnimationSetERNS_6memory9AllocatorE
gwm:_emscripten_glDepthRange__wrapper
Pmb:__ZN16MemoryFileSystem4OpenER13FileEntryData14FilePermission16FileAutoBehavior
NI:__ZNK18AnimatorController28HasMultiThreadedStateMachineEv
CQf:_CompareInfo_GetSortKey_m1915852346
Hja:__ZN13RuntimeStaticI13RendererSceneLb0EE13StaticDestroyEPv
CQj:_DefaultComparer_Compare_m1297750557_gshared
cdh:_CipherSuiteCollection_get_Item_m3790183696
UWb:__Z18Transfer_BlittableI24GenerateTypeTreeTransferLb1E12PropertyNameEvRK29SerializationCommandArgumentsR31RuntimeSerializationCommandInfo
rCj:_Toggle_OnEnable_m1421694809
vhc:__ZN5Light15InitializeClassEv
FLb:__ZN14SafeBinaryRead21TransferSTLStyleArrayI10vector_mapIPKN5Unity4TypeE7Hash128NSt3__24lessIS5_EENS7_9allocatorINS7_4pairIS5_S6_EEEEEEEvRT_17TransferMetaFlags
wcm:_Rect_get_xMax_m2926206058_AdjustorThunk
iT:__ZN9AudioClip18GetQueuedAudioDataEPPvj
nEe:__ZN20TextRenderingPrivate21TextMeshGeneratorImpl14GarbageCollectEv
ymc:__ZNK9Texture2D17CheckHasPixelDataEv
jrd:__ZNK5physx7NpCloth16getCollisionDataEPNS_22PxClothCollisionSphereEPjPNS_21PxClothCollisionPlaneES3_PNS_24PxClothCollisionTriangleE
H6a:__Z18SetShadowsKeywordsR17ShaderPassContext9LightType10ShadowType16ShadowProjectionbb
Ohf:_Graphic_GetPixelAdjustedRect_m3729397999
LIk:__ZN14dense_hash_mapI10KeyWrapperINSt3__24pairIPK12PropertyInfoP11Il2CppClassEEEj17ReflectionMapHashIS8_ENS9_14EqualsComparerINS1_8equal_toIS8_EEEENS1_9allocatorINS2_IKS9_jEEEEEC2EjRKSB_RKSF_
khc:__ZN17CollisionMeshDataC2Ev
wIh:_Dictionary_2_ToTValue_m692436965_gshared
DOd:__ZN5physx2Sq11PruningPool11preallocateEj
ETj:_Marshal_Copy_m1222846562
yAb:__ZN16LightmapSettings23VirtualRedirectTransferER19StreamedBinaryWriteILb0EE
vCf:_Stack_Resize_m3124769495
O0a:__ZZ23InitPlayerLoopCallbacksvEN47PostLateUpdateMemoryFrameMaintenanceRegistrator7ForwardEv
Dp:FUNCTION_TABLE_viiififii
p1k:_GC_push_next_marked
HFa:__ZN18IDCollectorFunctor18GenerateInstanceIDEi17TransferMetaFlags
Slh:_NameObjectCollectionBase_BaseAdd_m3437748750
Qgd:__ZN5physx2Sc17ParticleSystemSim15onRbShapeChangeERKNS0_19ParticlePacketShapeERKNS0_8ShapeSimE
Csk:__ZN15dense_hashtableINSt3__24pairIK10KeyWrapperIN6il2cpp5utils13dynamic_arrayIPK10Il2CppTypeLj4EEEEPFvvEEESA_NS3_8metadata19Il2CppSignatureHashEN14dense_hash_mapISA_SD_SG_NSA_14EqualsComparerINSF_22Il2CppSignatureCompareEEENS0_9allocatorISE_EEE9SelectKeyESK_SM_E12maybe_shrinkEv
tne:__ZN13PhysicsModule24CapsuleColliderSetHeightER15CapsuleColliderf
O3d:__ZN5physx27updateIslandsSecondPassMainEjRNS_2Cm10BitMapBaseINS_6shdfnd9AllocatorEEEPKjjRNS_11NodeManagerERNS_11EdgeManagerERNS_13IslandManagerERNS_23ArticulationRootManagerERNS_33ProcessSleepingIslandsComputeDataERNS_30IslandManagerUpdateWorkBuffersEPNS0_13EventProfilerE
oSg:_ReadOnlyCollection_1_System_Collections_Generic_ICollectionU3CTU3E_Add_m69722965_gshared
iI:__ZN8Animator8TransferI19StreamedBinaryWriteILb0EEEEvRT_
Cea:__ZNSt3__27__sort4IRNS_6__lessI14ObjectLoadDataS2_EEPS2_EEjT0_S6_S6_S6_T_
Qxj:_ScrollRect_get_rectTransform_m2442061719
Kwc:__Z22PlayableValidityChecksRK9HPlayableb
LMb:__ZN15ResourceManagerD2Ev
AIb:__Z22SkinVerticesGenericCPUILi2ELb1ELb1EEvPKhiiiiPhiPKvS4_
Ksc:__Z41Register_UnityEngine_Camera_GetAllCamerasv
gej:_AnimationOffsetPlayable_INTERNAL_CALL_SetPositionInternal_m2907024768
eQa:__ZN4crnd12crn_unpacker10unpack_dxnEPPhjjjjjj
uOi:_Assertion__ctor_m2128950829
VPe:__ZN28PerformanceReportingSettings8TransferI14SafeBinaryReadEEvRT_
M2b:__ZN15CacheWriterBase18GetAddressOfMemoryEv
atf:_Buffer_BlockCopy_m2884209081
ssj:_Event_get_current_m357379773
$ld:__ZN5physx10NpMaterial17resolveReferencesERNS_24PxDeserializationContextE
SMk:__ZN6il2cpp2vm22EmbeddedResourceRecordC2ERKS1_
vki:_MethodCall_GetObjectData_m3807460959
dzb:__ZN9Texture2D13AwakeFromLoadE17AwakeFromLoadMode
hjj:_AnimatorTransitionInfo_IsUserName_m2064408313
ZTf:_SetPropertyUtility_SetStruct_TisColorBlock_t2139031574_m1748367426_gshared
aFh:_Enumerator_MoveNext_m1359058366_AdjustorThunk
EUk:__ZN6il2cpp2vm3RCW14QueryInterfaceILb0EEEP14Il2CppIUnknownP15Il2CppComObjectRK10Il2CppGuid
HJb:__ZThn328_N14SpriteRendererD0Ev
q_j:_X509Store_get_Certificates_m56224934
rof:_LayoutRebuilder__cctor_m2273545693
Eya:__ZN6prcoreL17RemapGenericFloatI15TexFormatRFloat18TexFormatARGBFloatEEvPKNS_9InnerInfoE
jyj:_ScrollRect_UpdateBounds_m359586673
Wbh:_CipherSuite__ctor_m2440635082
CXe:_RSAPKCS1KeyExchangeFormatter_SetRSAKey_m1477802943
iNi:_PatternCompiler_EmitJump_m3915926156
q$e:_EvidenceEnumerator_get_Current_m1264365535
dld:__ZN5physx7NpActor15removeConnectorERNS_7PxActorENS_15NpConnectorType4EnumEPNS_6PxBaseEPKc
VWd:__ZN5physx19ActorAABBUpdateTask11runInternalEv
L5:__GLOBAL__sub_I_runtime_camera_renderlayers_lump_cpp
XOe:__ZN11UnityEngine15PlatformWrapper20GetPlayerPrefsUInt64ERKN4core12basic_stringIcNS1_20StringStorageDefaultIcEEEEy
CTj:_Marshal_copy_from_unmanaged_m2834266824
pum:dynCall_iiiifii
rab:__ZN20ReflectionProbeCacheC2ER13BatchRendererR15RenderLoopStats
tka:__ZN18AssetBundleManagerC2Ev
GZh:__Z59RuntimeInvoker_Int32_t2950945753_DateTimeOffset_t3229287507PFvvEPK10MethodInfoPvPS4_
z_a:__ZNK12HandlerChain6ExistsERK13FileEntryData
_3d:__ZN5physx10PxsContext28runModifiableContactManagersEv
ibb:__Z30FindDirectAttenuationFromProbeP18ForwardLightsBlockbiRK10RenderNodeRK23FindForwardLightsParamsf
LKb:__ZN12InputManager23VirtualRedirectTransferER24GenerateTypeTreeTransfer
r9b:__ZN9Transform23VirtualRedirectTransferER24GenerateTypeTreeTransfer
r0d:__ZN5physx21PxsBodyTransformVault7addBodyERKNS_11PxsBodyCoreE
XAc:__ZN12GUIClipState10BeginOnGUIER10InputEvent
G7b:__ZNSt3__26vectorIN9ShaderLab20SerializedSubProgram12UAVParameterENS_9allocatorIS3_EEE21__push_back_slow_pathIKS3_EEvRT_
Ail:_MeshCollider_get_inflateMesh_m592069037
gsd:__ZN5physx6shdfnd5ArrayINS_35PxClothParticleSeparationConstraintENS0_19ReflectionAllocatorIS2_EEE6resizeEjRKS2_
h$h:__Z87RuntimeInvoker_RuntimeObject_Byte_t1134296376_RuntimeObject_RuntimeObject_RuntimeObjectPFvvEPK10MethodInfoPvPS4_
Odh:_HandshakeMessage_Process_m810828609
rCe:_UNITY_tt_size_ready_bytecode
Ope:__ZN13TextRendering4FontD2Ev
Jse:_UNITY_FT_Stream_Open
sGe:__GLOBAL__sub_I_runtime_ui_lump_cpp
qif:_GraphicRegistry__cctor_m1805310505
B4i:_GenericTypeParameterBuilder_GetGenericArguments_m2988765390
aJa:__ZN13GfxDeviceGLES26UpdateViewProjectionMatrixEv
z1f:_Array_Resize_TisColor32_t2600501292_m2781660956_gshared
kQk:_il2cpp_z_crc32
_ym:_glDrawBuffers__wrapper
Ghm:_TextEditor_SelectDown_m2889372270
Lhc:__ZZL23RegisterLightPropertiesR22GenericPropertyBindingEN22Wrapper_LightIntensity13SetFloatValueEPvf
OR:__ZN4FMOD3DSP12setParameterEif
joa:__ZN13MemoryManager16StaticInitializeEv
u6f:_CultureInfo_Equals_m1360976324
hfm:_Screen_get_dpi_m1361565183
Sy:__ZN21AnimationClipPlayable16ProcessHumanPassEPK35AnimationPlayableEvaluationConstantPK32AnimationPlayableEvaluationInputP33AnimationPlayableEvaluationOutput
Y_l:__ZL69PersistentCall_t3407714124_CustomAttributesCacheGenerator_m_CallStateP21CustomAttributesCache
AV:__ZN4FMOD22FakeModChannelCallbackEPv
ag:_emscripten_glValidateProgram
N2a:__ZN4Mesh10CreateMeshEv
Kej:_AnimatorControllerPlayable_Create_m379233326
fWe:_RijndaelManagedTransform__ctor_m1033522223
Vmc:__ZN17CollisionMeshData21GetSharedNxConvexMeshER4Mesh
nJf:_DateTime_CompareTo_m3889078633
hAe:_cf2_stack_clear
$sm:dynCall_viiiiiiiiiiiiiiiiiiiiiiiiiiiiiiiiii
p7f:_NumberFormatter_set_CurrentCulture_m1358228087
Jmh:_Win32Exception_GetObjectData_m2897703401
ygb:__ZN7Texture13SetAnisoLevelEi
Kmm:_UserAuth_getUserId_m1776055631
qlm:_Vector2_op_Division_m1480625254
uNc:__ZN27PerformanceReportingManager23VirtualRedirectTransferER24GenerateTypeTreeTransfer
mue:_raccess_guess_vfat
MXh:__Z78RuntimeInvoker_IntPtr_t_SByte_t1669577662_RuntimeObject_BooleanU26_t4125257963PFvvEPK10MethodInfoPvPS4_
cKe:__Z44Canvas_CUSTOM_GetETC1SupportedCanvasMaterialv
Toi:_SoapServices_GetNameKey_m1553516689
jia:__ZN33InstancedMeshIntermediateRenderer13StaticDestroyEPv
eGd:__ZN5physx7NpScene26setSimulationEventCallbackEPNS_25PxSimulationEventCallbackEh
ePk:__ZN14dense_hash_mapI10KeyWrapperIP14Il2CppIUnknownEjN6il2cpp5utils11PointerHashIS1_EENS3_14EqualsComparerINSt3__28equal_toIS2_EEEENS9_9allocatorINS9_4pairIKS3_jEEEEE13set_empty_keyERSF_
_sb:__Z21DestroyShadowMapCacheP14ShadowMapCache
_B:__ZN7mecanim9animation25CreateControllerWorkspaceEPKNS0_18ControllerConstantERNS_6memory9AllocatorE
r5f:_Array_InternalArray__get_Item_TisLabelFixup_t858502054_m3276643490_gshared
Z6h:__Z68RuntimeInvoker_Vector2_t2156229523_RuntimeObject_Vector2_t2156229523PFvvEPK10MethodInfoPvPS4_
jIk:__ZN15dense_hashtableINSt3__24pairIK10KeyWrapperIPK10Il2CppTypeEjEES6_N6il2cpp8metadata14Il2CppTypeHashEN14dense_hash_mapIS6_jSB_NS6_14EqualsComparerINSA_26Il2CppTypeEqualityComparerEEENS0_9allocatorIS8_EEE9SelectKeyESF_SH_E14squash_deletedEv
ZMk:__ZN6il2cpp2vm13LivenessState5ResetEv
F2c:__ZN5physx6shdfnd4sortIPvNS0_4LessIS2_EENS0_19ReflectionAllocatorINS_2Sc16ActorElementPairEEEEEvPT_jRKT0_RKT1_j
oGc:__ZN9JSONWrite8TransferI11KeyframeTplIfEEEvRT_PKc17TransferMetaFlags
nnh:_DeflateStream_EndRead_m4289412642
TBf:_SortedList_GetImpl_m3689246167
z5h:__Z115RuntimeInvoker_Void_t1185182177_PlayableHandleU26_t645981773_Int32_t2950945753_Single_t1397266774_Int32_t2950945753PFvvEPK10MethodInfoPvPS4_
fbe:__ZN5physx2Gu15EdgeListBuilder18ComputeActiveEdgesEjPKjPKtPKNS_6PxVec3Ef
NXa:__ZN24BuiltinShaderParamValuesC2Ev
fHc:__ZL41CreateJSONTransferFunctionScriptingTraitsv
Z2b:__ZN6Shader23VirtualRedirectTransferER14SafeBinaryRead
yEd:__ZN5physx17PxsContactManagerC2EPNS_10PxsContextEj
Y0a:__Z23GetLateBehaviourManagerv
qpe:__Z46Register_UnityEngine_SphereCollider_get_radiusv
tAc:__ZN5IMGUI9GUIButtonER8GUIStateRK5RectTIfER10GUIContentR8GUIStylei
U$c:__ZN5physx6shdfnd5ArrayIPNS_7PxShapeENS0_15InlineAllocatorILj64ENS0_19ReflectionAllocatorIS3_EEEEE6resizeEjRKS3_
Uea:__ZN10MemoryPool10DeallocateEPv
qIc:__ZL17Transfer_GUIStyleI9JSONWriteLb1EEvRK29SerializationCommandArgumentsR31RuntimeSerializationCommandInfo
hYf:_Array_InternalArray__ICollection_Add_TisArraySegment_1_t283560987_m4183283420_gshared
Zte:_cff_driver_class_pic_free
RRd:__ZN5physx2Gu22gjkRelativePenetrationINS0_9TriangleVENS0_10ShrunkBoxVEEEjRKT_RKT0_RKNS_6shdfnd3aos15PsMatTransformVERKNSB_6FloatVERNSB_5Vec3VESJ_SJ_RSF_PhSL_Rh
BMc:__ZNK9rapidjson12GenericValueINS_4UTF8IcEE13JSONAllocatorE6AcceptINS_6WriterI16TempBufferWriterS2_S2_S3_EEEEbRT_
Mtm:dynCall_vif
Ntm:dynCall_vid
JGf:_Convert_ToSByte_m4075629912
Ptm:dynCall_vii
nub:__ZN4PPtrI8MaterialE8TransferI18StreamedBinaryReadILb0EEEEvRT_
Ydl:_GUIStyle_INTERNAL_set_Internal_clipOffset_m3722073701
$1g:_KeyPairPersistence_FromXml_m746585742
G4e:_Decoder__ctor_m4046021500
u1b:__Z18Transfer_BlittableI18StreamedBinaryReadILb0EELb0EdEvRK29SerializationCommandArgumentsR31RuntimeSerializationCommandInfo
nqh:_SslStream_OnCertificateSelection_m2780604417
Lbf:_ColorBlock_get_fadeDuration_m121071467
L6a:__ZNK17InstancedPropInfo14IsInstanceableERK19ShaderPropertySheet
jpb:__ZN5Unity9Component16CheckConsistencyEv
ERg:_ReadOnlyCollection_1_System_Collections_IList_set_Item_m4166186676_gshared
bSa:__ZN7ApiGLES11CheckShaderERjb
Wpa:__ZN19ShaderPropertySheet37CreateTextureAuxPropertyUninitializedEN9ShaderLab16FastPropertyNameES1_PKc
hDj:_Action_2_Invoke_m4187243487_gshared
XYb:__ZL26Transfer_SimpleNativeClassI19StreamedBinaryWriteILb0EE10RectOffsetLb1EEvRK29SerializationCommandArgumentsR31RuntimeSerializationCommandInfo
fPe:__ZN11UnityEngine7Connect17DeviceStatusEventD2Ev
tDm:b128
JDk:__ZN15dense_hashtableINSt3__24pairIK10KeyWrapperIPK10Il2CppTypeEjEES6_N6il2cpp8metadata14Il2CppTypeHashEN14dense_hash_mapIS6_jSB_NS6_14EqualsComparerINSA_26Il2CppTypeEqualityComparerEEENS0_9allocatorIS8_EEE9SelectKeyESF_SH_E3endEv
kbb:__Z28GetNonInterpolatedLightProbeRK17LightProbeContextjR20SphericalHarmonicsL2
dBh:_Enumerator_Reset_m54102781_AdjustorThunk
HLa:__ZN13GfxDeviceGLES17SetGpuProgramNameEP10GpuProgramPKc
E3:__ZNK11UnityEngine15CloudWebService25WebRequestDownloadHandler11GetProgressEv
tqh:_SslStream_CheckConnectionAuthenticated_m3995332768
Wuk:__ZN6il2cpp2vm13MetadataCache28GetMethodDefinitionFromIndexEi
sFc:__Z68Register_UnityEngine_GUIStyle_INTERNAL_CALL_Internal_DrawPrefixLabelv
oYk:__ZN6il2cpp2os20FileErrnoToErrorCodeEi
kva:__ZN14SafeBinaryRead19TransferSTLStyleMapINSt3__23mapI39DeprecatedFastPropertyNameSerialization10ColorRGBAfNS1_4lessIS3_EENS1_9allocatorINS1_4pairIKS3_S4_EEEEEEEEvRT_17TransferMetaFlags
ZEf:_Decimal_ThrowAtPos_m1170269346
Jh:_atexit
Bzj:_Selectable_set_image_m3625164794
RWf:_Array_InternalArray__IndexOf_TisChar_t3634460470_m1022396423_gshared
weg:_IntPtr_System_Runtime_Serialization_ISerializable_GetObjectData_m1980135475
vFd:__ZNK5physx7NpScene8getFlagsEv
IVg:_ReadOnlyCollection_1_System_Collections_Generic_IListU3CTU3E_Insert_m1818924748_gshared
MGk:__ZN6il2cpp2vmL31GetObjectForMissingDefaultValueEj
Yaf:_AspectRatioFitter__ctor_m2468506840
o7c:__ZN5physx6shdfnd8PoolBaseINS_2Cm5BlockIhLj384EEENS0_19ReflectionAllocatorIS4_EEE12allocateSlabEv
PQd:__Z13sweepAABBAABBRKN5physx6PxVec3ES2_S2_S2_S2_S2_
zZj:_X509Certificate_get_Hash_m410033711
g5b:__ZN9ShaderLab14SerializedPassC2ERKS0_
sfd:__ZN5physx18NpArticulationLink17setLinearVelocityERKNS_6PxVec3Eb
Vmd:__ZN5physx9NpPhysics20createParticleSystemEjb
l:STACKTOP
RBe:_cff_get_name_index
Fbe:__ZN5physx17ConvexHullBuilder14CreateEdgeListEv
aRb:__ZNSt3__26vectorI4PPtrI10MonoScriptE13stl_allocatorIS3_L18MemLabelIdentifier76ELi16EEE8__appendEj
dlc:__ZN17TransformInternal27UpdateDeepChildCountUpwardsER18TransformHierarchyii
U0e:_Single_System_IConvertible_ToBoolean_m1716619219_AdjustorThunk
n7e:_ExecuteEvents_Execute_m3613826831
BRd:__ZN5physxL24PxcSweepCapsuleTrianglesERKNS_11PxsCCDShapeES2_RKNS_11PxTransformES5_S5_S5_fRNS_6PxVec3ES7_RNS_10PxcNpCacheERNS_18PxcNpThreadContextERKNS_2Cm23FastVertex2ShapeScalingERNS_2Gu9TriangleVEf
Cef:_Image_set_type_m2038193736
A:tempBigIntD
Ofb:__ZNK25CameraStackRenderingState25CalculateCameraTargetTypeEv
z:tempBigIntI
y:tempBigIntR
x:tempBigIntS
w:tempBigIntP
io:FUNCTION_TABLE_viffi
gse:_open_face_PS_from_sfnt_stream
uij:_AnimatorControllerPlayable_Play_m2430703661_AdjustorThunk
Gea:__ZN6Object18RegisterInstanceIDEPS_
BWb:__Z18Transfer_BlittableI24GenerateTypeTreeTransferLb1EsEvRK29SerializationCommandArgumentsR31RuntimeSerializationCommandInfo
aUk:__ZN15dense_hashtableINSt3__24pairIK10KeyWrapperIP12Il2CppObjectEN6il2cpp2gc9CachedCCWEEES5_NS7_5utils11PointerHashIS3_EEN14dense_hash_mapIS5_S9_SD_NS5_14EqualsComparerINS0_8equal_toIS4_EEEENS0_9allocatorISA_EEE9SelectKeyESI_SK_E11set_deletedER30dense_hashtable_const_iteratorISA_S5_SD_SM_SI_SK_E
bJa:__ZNK9GfxDevice18GetWorldViewMatrixEv
kai:__Z70RuntimeInvoker_Single_t1397266774_Single_t1397266774_Int32_t2950945753PFvvEPK10MethodInfoPvPS4_
B5a:__Z20LookRotationToMatrixRK8Vector3fS1_P10Matrix3x3f
GWi:_HttpUtility__cctor_m2962732424
lHf:_Convert_ToUInt16_m3902921832
ljm:_TextGenerator_get_characters_m1598813519
Z_i:_Assembly_GetTypes_m1724781913
wul:__ZL54TypeBuilder_t1073948154_CustomAttributesCacheGeneratorP21CustomAttributesCache
nRf:_Array_InternalArray__ICollection_Contains_TisKeyValuePair_2_t1377593753_m2905547387_gshared
T_k:__ZN6il2cpp6icalls8mscorlib6System7Convert17Base64ToByteArrayEPDsib
r2g:_SmallXmlParser_ReadComment_m1578426707
UZd:__ZN5physx2Gu18pcmContactPlaneBoxERKNS0_13GeometryUnionES3_RKNS_11PxTransformES6_RKfRNS0_5CacheERNS0_13ContactBufferE
vRk:__ZN6il2cpp2vm5Image20EmbeddedResourceDataC2EOS2_
jll:_PlayableAsset_Internal_GetPlayableAssetDuration_m2619304944
Brg:_List_1_AddEnumerable_m376418521_gshared
Hth:_Socket_SendTo_nochecks_m2955493341
m$h:__Z79RuntimeInvoker_Void_t1185182177_Byte_t1134296376_Byte_t1134296376_RuntimeObjectPFvvEPK10MethodInfoPvPS4_
gsk:__ZNSt3__218__insertion_sort_3IRN6il2cpp5utils11collections13ArrayValueMapIPK10Il2CppType17Il2CppInteropData26InteropDataToTypeConverterNS1_8metadata14Il2CppTypeLessENSA_26Il2CppTypeEqualityComparerEE12SortComparerEPS8_EEvT0_SH_T_
LGe:__ZN2UI39SendIgnoreNextTransformChangedRecursiveEPK9TransformPKNS_6CanvasE
qgd:__ZN5physx6shdfnd5ArrayIPNS_2Sq10ActorShapeENS0_19ReflectionAllocatorIS4_EEE15growAndPushBackERKS4_
fJa:__ZNK9GfxDevice25GetDeviceProjectionMatrixEv
ra:invoke_iidiii
HWb:__Z18Transfer_BlittableI24GenerateTypeTreeTransferLb1EtEvRK29SerializationCommandArgumentsR31RuntimeSerializationCommandInfo
IMc:__ZN9rapidjson12PrettyWriterI16TempBufferWriterNS_4UTF8IcEES3_13JSONAllocatorE11WriteIndentEv
HUc:__ZL13midPhaseQueryRKN5physx22PxTriangleMeshGeometryERKNS_11PxTransformERNS_2Gu3BoxERNS6_9ContainerE
vJc:__ZN9JSONWrite8TransferI13dynamic_arrayI4AABBLj4EEEEvRT_PKc17TransferMetaFlags
E0:__ZN5physx14PxLightCpuTask15removeReferenceEv
YVk:__ZN6il2cpp6icalls8mscorlib6System6String22RedirectToCreateStringEv
lul:__ZL99ILGenerator_t1388622344_CustomAttributesCacheGenerator_ILGenerator_Mono_GetCurrentOffset_m993338688P21CustomAttributesCache
vof:_LayoutRebuilder_ReapplyDrivenProperties_m2581469389
_1d:__ZN5physx6shdfnd5ArrayINS_24PxsConstraintBatchHeaderENS0_19ReflectionAllocatorIS2_EEE8recreateEj
wil:_MeshCollider_get_sharedMesh_m647137065
ene:__ZN14PhysicsManagerC2E18MemLabelIdentifier18ObjectCreationMode
bqa:__ZN9ShaderLab6TexEnvC2ERKNS_25SerializedTexturePropertyE
Hmf:_InputField_Append_m687033660
bre:__ZN20TextRenderingPrivate19NativeTextGeneratorD2Ev
ewk:__ZN6il2cpp2vm19SocketPollingThread14DequeueRequestEv
WXk:__ZL10RevealLinkPv
eIf:_DateTime__ctor_m12900168_AdjustorThunk
N3c:__ZN5physx6shdfnd8PoolBaseINS_2Sc26ActorPairContactReportDataENS0_19ReflectionAllocatorIS3_EEE12allocateSlabEv
Eeh:_ClientSessionCache_FromContext_m343076119
lj:___cxa_end_catch
xZe:_ToBase64Transform_TransformBlock_m2497349397
OHb:__ZN19SkinnedMeshRenderer23RendererBecameInvisibleEv
sZi:_WebSocket_U3CopenU3Eb__11_m3167653887
mmh:_NameValueCollection_Add_m2418530856
ymi:_ReturnMessage_get_MethodSignature_m399735125
XFd:__ZN5physx7NpScene12createClientEv
kKe:__Z43Register_UnityEngine_Canvas_set_scaleFactorv
MZg:_SortKeyBuffer_AppendLevel5_m3963841125
CQi:_PositionAssertion_Compile_m2500980346
$wf:_ArrayListWrapper_ToArray_m3192696690
nue:_raccess_guess_linux_cap
G1b:__Z19TransferField_ArrayI18StreamedBinaryReadILb0EE27Converter_UnityEngineObjectEvRK23StaticTransferFieldInfoR31RuntimeSerializationCommandInfoRT0_
erf:_Attribute_GetCustomAttribute_m4034845276
qvb:__ZN5Light8TransferI24GenerateTypeTreeTransferEEvRT_
hSc:__ZN26ContactCapsuleMeshCallback10processHitERKN5physx12PxRaycastHitERKNS0_6PxVec3ES6_S6_RfPKj
n9:__Z33InitializeBuiltinShaderParamNamesv
eYi:_WebSocketFrame_get_Rsv3_m4039948876
vDi:_Type_GetConstructor_m2219014380
Ccf:_CanvasUpdateRegistry_SortLayoutList_m471948466
N9c:__ZN5physx6shdfnd5ArrayINS_19PxHeightFieldSampleENS0_19ReflectionAllocatorIS2_EEE6resizeEjRKS2_
CWd:__ZN5physx14PxsAABBManager25removeAggregateSinglePairEjPNS_9AggregateEPNS_2Cm10BitMapBaseINS_6shdfnd9AllocatorEEE
Rra:__ZNK16TypeTreeIterator4TypeEv
Aum:dynCall_vd
XXa:__ZN10FileSystem25MountDataFolderFileSystemERKN4core12basic_stringIcNS0_20StringStorageDefaultIcEEEES6_
V3g:_ArgumentOutOfRangeException__ctor_m282481429
aN:__ZN6MotionC2E18MemLabelIdentifier18ObjectCreationMode
Vj:_glGetUniformLocation
qKa:__ZN13GfxDeviceGLES32CreateColorRenderSurfacePlatformEP17RenderSurfaceBase19RenderTextureFormat
US:__ZN12AudioManager24CreateFMODSoundFromMovieEP9AudioClip
KMc:__ZN9rapidjson6WriterI16TempBufferWriterNS_4UTF8IcEES3_13JSONAllocatorE8WriteIntEi
YCd:__ZN5physx2Sc10NPhaseCore9visualizeERNS_2Cm12RenderOutputE
w9d:__ZN5physx2Gu12TriangleMesh15exportExtraDataERNS_22PxSerializationContextE
Vtk:__ZN6il2cpp2vm13MetadataCache24GetGenericInstanceMethodEPK10MethodInfoPK20Il2CppGenericContext
O0k:_GC_hblk_fl_from_blocks
H8i:_MonoField_GetParentType_m2478933781
f_b:__Z18Transfer_BlittableI18StreamedBinaryReadILb1EELb0E8Vector2fEvRK29SerializationCommandArgumentsR31RuntimeSerializationCommandInfo
Xda:__Z24ConvertSeparatorsToUnityPc
dGk:__ZN6il2cpp2gc19AppendOnlyGCHashMapINSt3__24pairIPK9EventInfoP11Il2CppClassEEP21Il2CppReflectionEvent17ReflectionMapHashIS9_ENS2_8equal_toIS9_EEE3AddERKS9_SB_
sGg:_Collection_1_System_Collections_ICollection_CopyTo_m46221116_gshared
YKb:__ZNSt3__213__vector_baseI9InputAxisNS_9allocatorIS1_EEED2Ev
cLk:__ZN6il2cpp2vm6Thread20FreeThreadStaticDataEP12Il2CppThread
NWf:_Array_InternalArray__IndexOf_TisClientCertificateType_t1004704908_m3457772631_gshared
rOh:__Z28RuntimeInvoker_RuntimeObjectPFvvEPK10MethodInfoPvPS4_
H_i:_Random_NextBytes_m3935257853
L8c:__ZN5physx2Sc8BodyCore17setupSimStateDataEPNS_6shdfnd4PoolINS0_12SimStateDataENS2_19ReflectionAllocatorIS4_EEEEbb
Ktc:__Z41Register_UnityEngine_RectOffset_set_rightv
$af:_AspectRatioFitter_UpdateRect_m1081360677
wAe:_cf2_glyphpath_finalize
zEm:_emscripten_glGetError__wrapper
c_e:_X509Certificate_GetPublicKey_m4184729161
Dwf:_ArrayListWrapper_set_Capacity_m2373297383
Uvd:__Z25computePacketSizeMultLog2ff
hBj:_Text_get_cachedTextGenerator_m2506989875
tum:dynCall_viififi
tbk:_Enumerator_System_Collections_IEnumerator_Reset_m502339360_AdjustorThunk
isl:__ZL58DictionaryEntry_t3123975638_CustomAttributesCacheGeneratorP21CustomAttributesCache
Kij:_Animator_ResetTrigger_m2500195305
Bzg:_List_1_RemoveAt_m4279084788_gshared
jNb:__ZNSt3__26vectorIN15ResourceManager10DependencyE13stl_allocatorIS2_L18MemLabelIdentifier51ELi16EEE6assignINS_11__wrap_iterIPS2_EEEENS_9enable_ifIXaasr21__is_forward_iteratorIT_EE5valuesr16is_constructibleIS2_NS_15iterator_traitsISC_E9referenceEEE5valueEvE4typeESC_SC_
sue:_UNITY_FT_Stream_Free
RKk:__ZN15dense_hashtableINSt3__24pairIK10KeyWrapperINS1_IP11Il2CppClassjEEES4_EES6_N6il2cpp8metadata14ArrayClassHashEN14dense_hash_mapIS6_S4_SB_NS6_14EqualsComparerINSA_17ArrayClassCompareEEENS0_9allocatorIS8_EEE9SelectKeyESF_SH_E12maybe_shrinkEv
Lti:_CryptoConfig_EncodeLongNumber_m4127306320
Oel:_GUIStyle_set_imagePosition_m1939949167
w6h:__Z59RuntimeInvoker_RuntimeObject_Rect_t2360479859_RuntimeObjectPFvvEPK10MethodInfoPvPS4_
tch:_CipherSuite_createEncryptionCipher_m2533565116
_Dd:__ZN5physx16PxsIslandManager18setEdgeUnconnectedERKNS_20PxsIslandManagerHookIjLj4294967295EEE
r4f:_GameObject_GetComponentsInChildren_TisRuntimeObject_m4174741699_gshared
N1:__ZN11UnityEngine15CloudWebService14DataDispatcher25OnDataBlockConsumedStaticEPv
QUi:_WebHeaderCollection_IsMultiValue_m1463500992
NPc:__ZL27GeomMTDCallback_PlaneConvexRN5physx6PxVec3ERfRKNS_10PxGeometryERKNS_11PxTransformES5_S8_
yyg:_List_1_CheckIndex_m3044940639_gshared
Wlg:_Math_Max_m482125436
gUj:_ActivatedServiceTypeEntry_ToString_m1591455874
yRg:_ReadOnlyCollection_1_System_Collections_IList_RemoveAt_m2129436005_gshared
C$e:_SecurityElement_ToXml_m3664345083
__f:_Array_InternalArray__Insert_TisParameterModifier_t1461694466_m3664994573_gshared
ugc:__ZZN8Renderer15InitializeClassEvEN28FunctorImpl_136kLayerChanged4CallEPviR11MessageData
H:Math_pow
Z3b:__Z14resize_trimmedINSt3__26vectorIN9ShaderLab20SerializedSubProgram16SamplerParameterENS0_9allocatorIS4_EEEEEvRT_j
mEd:__ZN5physx6shdfnd5ArrayIPvNS0_15InlineAllocatorILj256ENS0_19ReflectionAllocatorINS_2Gu30LargePersistentContactManifoldEEEEEE15growAndPushBackERKS2_
t2g:_SmallXmlParser_ReadUntil_m2715581630
Lqm:__ZNSt3__212basic_stringIcNS_11char_traitsIcEENS_9allocatorIcEEE6insertEjPKcj
hHc:__Z44InitializeTransferFunctionScriptingTraitsForI8JSONReadEvR31TransferFunctionScriptingTraits
_rd:__ZN5physx2Sc13ClothBulkData15exportExtraDataERNS_22PxSerializationContextE
Jkb:__ZNSt3__26vectorINS_4pairIN4core12basic_stringIcNS2_20StringStorageDefaultIcEEEES6_EE13stl_allocatorIS7_L18MemLabelIdentifier37ELi16EEE6insertENS_11__wrap_iterIPKS7_EERSD_
yHa:__ZNSt3__27__sort4IRNS_4lessIN22BuiltinResourceManager8ResourceEEEPS3_EEjT0_S7_S7_S7_T_
xlh:_ListDictionary_Add_m3918308031
uqa:__ZN15dense_hashtableINSt3__24pairIKPK17RenderSurfaceBaseP13RenderTextureEES4_19PointerHashFunctionIS4_EN14dense_hash_mapIS4_S7_SA_NS0_8equal_toIS4_EE13stl_allocatorIS8_L18MemLabelIdentifier65ELi16EEE9SelectKeyESD_SG_E12resize_deltaEjj
Jwj:_Selectable_OnDisable_m3225138518
cQa:__ZN4crnd12crn_unpacker11unpack_dxt5EPPhjjjjjj
xem:_RectTransformUtility_INTERNAL_CALL_RectangleContainsScreenPoint_m522477797
n3c:__ZN5physx6shdfnd4sortIPvNS0_4LessIS2_EENS0_19ReflectionAllocatorINS_2Sc19ShapeInstancePairLLEEEEEvPT_jRKT0_RKT1_j
L5j:_AesManaged_CreateEncryptor_m1611897367
K8d:__ZN5physx13GuMeshFactory17createHeightFieldERKNS_17PxHeightFieldDescE
k2b:__Z29Transfer_Blittable_ArrayFieldI18StreamedBinaryReadILb0EE4AABBEvRT_R9ArrayInfoRK23StaticTransferFieldInfo
$dc:__ZN26SkinnedMeshRendererManager21PrepareDispatchUpdateER13RendererScene18MemLabelIdentifier
rhb:__ZN10GameObject34AddFirstTransformComponentInternalEP9Transform
ftc:__Z31Cursor_Get_Custom_PropLockStatev
Wlm:_Vector3_op_Subtraction_m2566684344
E9:__ZNSt3__26__treeINS_12__value_typeINS_4pairIPcS3_EENS_3setIS3_15compare_tstringIPKcENS_9allocatorIS3_EEEEEENS_19__map_value_compareIS4_SD_20smaller_tstring_pairIS8_ELb1EEENSA_ISD_EEE7destroyEPNS_11__tree_nodeISD_PvEE
luc:__Z52Register_UnityEngine_GameObject_GetComponentInParentv
QLb:__ZN15SerializeTraitsINSt3__24pairIPKN5Unity4TypeE7Hash128EEE8TransferI14SafeBinaryReadEEvRS7_RT_
j0k:_GC_number_stack_black_listed
uje:__ZN5physx7profile10EventValue9streamifyINS0_15EventSerializerINS0_12MemoryBufferINS0_21WrapperNamedAllocatorEEEEEEEvRT_RKNS0_11EventHeaderE
Wdb:__Z37GenerateCombinedDynamicVisibleListJobP11CullResults
mJh:_Dictionary_2_ToTKey_m2055624458_gshared
T5:__GLOBAL__sub_I_runtime_graphics_billboard_lump_cpp
oma:__ZNK13ScreenManager21GetCursorInsideWindowEv
sJ:__ZN14SafeBinaryRead21TransferSTLStyleArrayI22OffsetPtrArrayTransferI9OffsetPtrIN7mecanim12statemachine26SelectorTransitionConstantEEEEEvRT_17TransferMetaFlags
w0i:_CustomAttributeData_GetCustomAttributes_m1033457578
RTj:_SafeHandle_DangerousAddRef_m614714386
Sab:__Z20IntersectAABBFrustumRK4AABBPK5Planej
Eyj:_ScrollRect_OnDrag_m688583138
Aic:__ZN13RenderManager15InitializeClassEv
PTb:__ZN15SerializeTraitsI12PropertyNameE8TransferI14SafeBinaryReadEEvRS0_RT_
Rqg:_List_1_Insert_m342490199_gshared
NPg:_ReadOnlyCollection_1_System_Collections_IList_IndexOf_m3120991897_gshared
Oki:_Header__ctor_m1921907550
qie:__ZN5physx7profile8ZoneImplINS_28PxProfileNameProviderForwardEED0Ev
PAj:_Slider_FindSelectableOnUp_m4062600878
Muf:_Convert_ToSByte_m1350241137
cum:dynCall_iiiiiiiiiiffffii
iJc:__ZN9JSONWrite8TransferI11ColorRGBA32EEvRT_PKc17TransferMetaFlags
BLc:__Z22TransferField_NonArrayI8JSONRead27Converter_SimpleNativeClassI8GradientEEvRK23StaticTransferFieldInfoR31RuntimeSerializationCommandInfoRT0_
Amb:__ZNSt3__26__treeIN4core12basic_stringIcNS1_20StringStorageDefaultIcEEEENS_4lessIS5_EE13stl_allocatorIS5_L18MemLabelIdentifier37ELi16EEE7destroyEPNS_11__tree_nodeIS5_PvEE
JRa:__ZNSt3__26vectorI15ComputeShaderCBNS_9allocatorIS1_EEE21__push_back_slow_pathIKS1_EEvRT_
Csf:_Boolean_System_IConvertible_ToUInt16_m3465173538
Ubc:__ZN13ProduceHelperI11MonoManagerLb0EE7ProduceE18MemLabelIdentifier18ObjectCreationMode
UTa:__ZNK18GfxFramebufferGLES15DiscardContentsER12ObjectHandleI17RenderSurface_TagP17RenderSurfaceBaseE
v9g:_ARC4Managed_KeySetup_m2449315676
Quk:__ZN6il2cpp2vm13MetadataCache27GetEventDefinitionFromIndexEi
EHf:_Convert_ToUInt64_m92315402
MDf:_Convert_ToChar_m3776556379
nIc:__Z18Transfer_BlittableI9JSONWriteLb1EdEvRK29SerializationCommandArgumentsR31RuntimeSerializationCommandInfo
Pym:_glGetIntegerv__wrapper
xui:_EncoderExceptionFallback__ctor_m3745979420
ild:__ZN5physx2Sc13ConstraintSim15preBodiesChangeEv
Pka:__ZN14dense_hash_mapIN4core12basic_stringIcNS0_20StringStorageDefaultIcEEEE10vector_setI4PPtrI11SpriteAtlasENSt3__24lessIS8_EE13stl_allocatorIS8_L18MemLabelIdentifier79ELi16EEE20StringHash32FunctionIS4_ENS9_8equal_toIS4_EESC_INS9_4pairIKS4_SF_EELSD_79ELi16EEE15set_deleted_keyERSL_
NJj:_InternalEnumerator_1_System_Collections_IEnumerator_get_Current_m435848551_gshared
zhb:__ZN10GameObject28FinalizeAddComponentInternalEPN5Unity9ComponentE
QQ:__Z64AnimatorControllerPlayable_CUSTOM_INTERNAL_CALL_SetTriggerStringR9HPlayableP12Il2CppString
d4l:__ZL57Image_t2670269651_CustomAttributesCacheGenerator_m_SpriteP21CustomAttributesCache
aAb:__ZN9Texture2DD2Ev
O5:__GLOBAL__sub_I_runtime_geometry_lump_cpp
UGf:_Convert_ToSingle_m164367433
Bge:__ZN14PhysicsManager8TransferI19StreamedBinaryWriteILb0EEEEvRT_
ktd:__ZNK5physx2Sc9ClothCore16getStretchConfigENS_22PxClothFabricPhaseType4EnumE
s5f:_Array_InternalArray__get_Item_TisILTokenInfo_t2325775114_m3110830457_gshared
jFf:_Convert_ToDecimal_m1284410333
BJf:_DateTime_CheckStyle_m1392838900
Xc:invoke_iiiifiiiii
Vzj:_Shadow_set_effectColor_m3910676693
Flh:_NameObjectCollectionBase__ctor_m2090733912
dKi:_Group__cctor_m2230627219
usj:_Event_set_displayIndex_m1870302504
Oaj:_StrongNameKeyPair_System_Runtime_Serialization_ISerializable_GetObjectData_m2655882830
z7g:_BigInteger__cctor_m102257529
gbh:_RSAManaged_EncryptValue_m4149543654
Sr:__ZN13dynamic_arrayIhLj1EE18resize_initializedEjRKh12ResizePolicy
Ihl:_Matrix4x4_ToString_m581223203_AdjustorThunk
UFa:__ZN17PersistentManager27GetLoadErrorMessageFromPathERKN4core12basic_stringIcNS0_20StringStorageDefaultIcEEEE
lYj:_NetscapeCertTypeExtension_ToString_m1800688476
Hm:_glGenRenderbuffers
DOk:__ZN6il2cpp6icalls8mscorlib6System2IO6MonoIO19GetCurrentDirectoryEPi
D4d:__ZN5physx2Sc13ConstraintSim11projectPoseEPNS0_7BodySimE
$Wh:__Z81RuntimeInvoker_Void_t1185182177_Int64_t3736567304_RuntimeObject_Int32_t2950945753PFvvEPK10MethodInfoPvPS4_
p8l:__ZL50Outline_t2536100125_CustomAttributesCacheGeneratorP21CustomAttributesCache
dMb:__ZN14PlayerSettings23VirtualRedirectTransferER17RemapPPtrTransfer
KRi:_Uri_get_IsFile_m2450018824
dzm:_emscripten_glGetIntegerv__wrapper
TXd:__ZN5physx21PxcContactCapsuleMeshERKNS_2Gu13GeometryUnionES3_RKNS_11PxTransformES6_RKfRNS_10PxcNpCacheERNS0_13ContactBufferE
XX:__ZN12AudioManager31GetCurrentSpatializerDefinitionEv
dlh:_HybridDictionary_Add_m912320053
eHb:__ZN12MeshRenderer16UpdateCachedMeshEv
Fne:__ZN9Rigidbody11SetPositionERK8Vector3f
V4j:_KeyBuilder_IV_m3340234014
wTb:__Z19TransferField_ArrayI14SafeBinaryRead27Converter_SimpleNativeClassI8GradientEEvRK23StaticTransferFieldInfoR31RuntimeSerializationCommandInfoRT0_
QMh:_DefaultComparer_Equals_m1163494476_gshared
nSf:_Array_InternalArray__ICollection_Remove_TisDictionaryEntry_t3123975638_m3699186409_gshared
ipg:_Object_Equals_m1397037629
sD:__ZNK27StateMachineBehaviourPlayer25FireStateMachineBehaviourEiiN7mecanim12statemachine19StateMachineMessageE
JRf:_Array_InternalArray__ICollection_Contains_TisX509ChainStatus_t133602714_m795171973_gshared
eal:_GUIUtility_INTERNAL_CALL_Internal_GetNextControlID2_m3559403649
Sgb:__ZN6Camera15SetOrthographicEb
awe:_UNITY_FT_Stream_GetUShort
lJa:__ZN13GfxDeviceGLES14DisableScissorEv
uNd:__ZN5physx17PxcNpMemBlockPool23releaseConstraintMemoryEv
ZDg:_Queue_1__ctor_m2068090025_gshared
_Th:__Z64RuntimeInvoker_Double_t594665363_RuntimeObject_Int32_t2950945753PFvvEPK10MethodInfoPvPS4_
aKi:_Group__ctor_m2243671333
$Gj:_InternalEnumerator_1_System_Collections_IEnumerator_get_Current_m2141782011_AdjustorThunk
LFj:_InternalEnumerator_1_System_Collections_IEnumerator_get_Current_m1295084274_AdjustorThunk
o1d:__ZNK5physx10PxsContext25getManagerTouchEventCountEPiS1_S1_
Ehl:_Matrix4x4_GetColumn_m214529727_AdjustorThunk
Ahh:_RecordProtocol_BeginSendRecord_m615249746
kd:_glVertexAttrib4f
Wmj:_Camera_get_pixelRect_m1345608344
aqg:_Enumerator_System_Collections_IEnumerator_get_Current_m209407522_AdjustorThunk
Qlm:_Vector3_Max_m821979329
FQd:__ZN5physx6shdfnd4sortIPNS_10PxsCCDPairENS_13ToiPtrCompareENS0_19ReflectionAllocatorIS3_EEEEvPT_jRKT0_RKT1_j
lsg:_List_1_System_Collections_IList_Insert_m4074493513_gshared
HQd:__ZN5physx13PxsCCDContext23runCCDModifiableContactEPNS_19PxModifiableContactEjPKNS_12PxsShapeCoreES5_PKNS_12PxsRigidCoreES8_PKNS_12PxsRigidBodyESB_
rqe:__ZNSt3__26vectorINS_4pairINS1_IttEEfEENS_9allocatorIS3_EEE8__appendEj
DRi:_Uri_GetOpaqueWiseSchemeDelimiter_m1909471550
lDe:_UNITY_tt_face_get_location
mgl:_DefaultValueAttribute_Equals_m1292864344
Dvd:__ZN5physx15PxsParticleData6createERNS_30PxvParticleSystemStateDataDescERKNS_9PxBounds3E
N1k:_GC_set_hdr_marks
L2a:__Z17SetupObjectMatrixRK10Matrix4x4fi
avf:_Char_Equals_m1279957088_AdjustorThunk
nwj:_Scrollbar_UpdateVisuals_m2492252165
$ad:__ZN5physx6shdfnd8PoolBaseINS_11NpAggregateENS0_19ReflectionAllocatorIS2_EEE17releaseEmptySlabsEv
Zzc:__Z43Object_CUSTOM_DoesObjectWithInstanceIDExisti
B9:__ZN13RuntimeStaticINSt3__23mapINS0_4pairIPcS3_EEPFbPvR14SafeBinaryReadE20smaller_tstring_pairIPKcENS0_9allocatorINS2_IKS4_S9_EEEEEELb0EE13StaticDestroyES5_
ehg:_FileStream_FlushBufferIfDirty_m4249802951
Xyh:_Enumerator_System_Collections_IEnumerator_Reset_m2020903703_gshared
VQj:_DefaultComparer_Compare_m1916473435_gshared
Oy:__ZN7mecanim9animation16CreateClipMemoryEPKNS0_4ClipEiRNS_6memory9AllocatorE
dse:_open_face
WAh:_Enumerator_System_Collections_IDictionaryEnumerator_get_Key_m2998519522_AdjustorThunk
zgc:__ZZL31RegisterOtherRendererPropertiesR22GenericPropertyBindingEN30Wrapper_RendererReceiveShadows13SetFloatValueEPvf
EIe:__Z17RegisterModule_UIv
P5d:__ZN5physx2Sc17ParticleSystemSim19unlinkParticleShapeEPNS0_19ParticlePacketShapeE
Fmg:_MonoCustomAttrs_GetCustomAttributes_m1347331976
YJa:__ZN9GfxDevice24CreateRenderDepthSurfaceE9TextureIDiiii16TextureDimension17DepthBufferFormat18SurfaceCreateFlags
_Wj:_SynchronizationAttribute_set_Locked_m2760363037
Lbg:_Int16_Equals_m82811458
Qah:_PrivateKeyInfo_Decode_m986145117
MS:__ZN4FMOD5Sound11setUserDataEPv
gw:__ZN7mecanim9animation9DenseClip8TransferI18StreamedBinaryReadILb0EEEEvRT_
pjm:_TextGenerator_get_characterCountVisible_m3014780692
h3b:__ZN14SafeBinaryRead21TransferSTLStyleArrayINSt3__26vectorIN9ShaderLab19SerializedSubShaderENS1_9allocatorIS4_EEEEEEvRT_17TransferMetaFlags
B7e:_ExecuteEvents_Execute_m533210008
rTh:__Z137RuntimeInvoker_Void_t1185182177_Int32_t2950945753_RuntimeObject_RuntimeObject_RuntimeObject_RuntimeObject_RuntimeObject_SByte_t1669577662PFvvEPK10MethodInfoPvPS4_
tJe:__Z56Register_UnityEngine_CanvasRenderer_set_popMaterialCountv
rB:__ZN27AnimationLayerMixerPlayable13SetInputCountEi
JZa:__ZNK25SingleBlockMemoryFileData4SizeEv
VPd:__ZN5physx6shdfnd9SListImpl7getSizeEv
SF:__ZN9BlobWrite8TransferIN7mecanim12statemachine18StateMachineMemoryEEEvRT_PKc17TransferMetaFlags
AQd:__ZN5physx2Cm12DelegateTaskINS_13PxsCCDContextEXadL_ZNS2_12postCCDSweepEPNS_10PxBaseTaskEEEE11runInternalEv
exd:__ZN5physx23NpParticleFluidReadData18setDataAccessFlagsENS_7PxFlagsINS_16PxDataAccessFlag4EnumEhEE
tW:__ZL50UnityAudioEffect_InternalSetFloatParameterCallbackP14FMOD_DSP_STATEif
zTk:__ZNK15dense_hashtableINSt3__24pairIK10KeyWrapperIP12Il2CppObjectEN6il2cpp2gc9CachedCCWEEES5_NS7_5utils11PointerHashIS3_EEN14dense_hash_mapIS5_S9_SD_NS5_14EqualsComparerINS0_8equal_toIS4_EEEENS0_9allocatorISA_EEE9SelectKeyESI_SK_E3endEv
OIf:_DateTime_System_IConvertible_ToUInt32_m3781235049
Xob:__ZN17LowLevelAllocator4FreeEPvj
Kie:__ZN5physx7profile8ZoneImplINS_28PxProfileNameProviderForwardEE10eventValueEtyx
Tne:__ZN9Rigidbody16TransformChangedEi
Xdc:__ZN26SkinnedMeshRendererManagerC2Ev
gQh:__Z92RuntimeInvoker_Int32_t2950945753_RuntimeObject_RuntimeObject_SByte_t1669577662_RuntimeObjectPFvvEPK10MethodInfoPvPS4_
Hdg:_Int64_System_IConvertible_ToType_m3223988955
Xcb:__ZN14qsort_internal5QSortIP16RenderObjectDatai25RenderPrePassObjectSorterEEvT_S4_T0_T1_
bZe:_SymmetricAlgorithm_Dispose_m1120980942
dga:__ZL19StaticCleanupPlayerPv
Gmg:_MonoCustomAttrs_RetrieveAttributeUsage_m2717094301
Pfg:_DirectoryInfo_Initialize_m1389772934
eTd:__ZN5physx24writeBackContactCoulomb4EPKNS_23PxcSolverConstraintDescERNS_16PxcSolverContextEPPKNS_17PxcSolverBodyDataES8_
Pfl:_Input_GetKeyUpString_m163841393
rka:__ZN15dense_hashtableINSt3__24pairIKN4core12basic_stringIcNS2_20StringStorageDefaultIcEEEEP11AssetBundleEES6_20StringHash32FunctionIS6_EN14dense_hash_mapIS6_S9_SC_NS0_8equal_toIS6_EENS0_9allocatorISA_EEE9SelectKeyESF_SH_ED2Ev
mpb:__ZN9Behaviour10DeactivateE19DeactivateOperation
fof:_LayoutGroup_DelayedSetDirty_m2562435574
rEa:__ZN13StreamingInfo8TransferI14SafeBinaryReadEEvRT_
ICc:__Z31Event_Get_Custom_PropClickCountP12Il2CppObject
TRf:_Array_InternalArray__ICollection_Contains_TisContactPoint_t3758755253_m1890115071_gshared
G3b:__ZN15dense_hashtableINSt3__24pairIKiN4core17string_with_labelILi1EEEEEi18SInt32HashFunctionN14dense_hash_mapIiS5_S7_NS0_8equal_toIiEE13stl_allocatorIS6_L18MemLabelIdentifier1ELi16EEE9SelectKeyESA_SD_E15insert_noresizeERKS6_
QNb:__ZN14SafeBinaryRead21TransferSTLStyleArrayINSt3__26vectorIN4core12basic_stringIcNS3_20StringStorageDefaultIcEEEE13stl_allocatorIS7_L18MemLabelIdentifier12ELi16EEEEEEvRT_17TransferMetaFlags
s0c:__GLOBAL__sub_I_runtime_dynamics_lump_cpp
yXk:__ZN6il2cpp2vmL22RaiseOverflowExceptionEv
Mq:__Z23CalculateGlobalRotation23TransformAccessReadOnly
LMd:__ZN5physx2Cm10FanoutTaskD0Ev
TO:__Z25HumanPoseMaskFromBodyMaskRK13dynamic_arrayIjLj4EE
o6i:_TypeBuilder_GetMethodImpl_m3583143647
_fd:__ZN5physx14NpShapeManager26markAllSceneQueryForUpdateERNS_2Sq17SceneQueryManagerE
t7l:__ZL54LayoutGroup_t2436138090_CustomAttributesCacheGeneratorP21CustomAttributesCache
c6c:__ZN5physx2Sc21ConstraintInteractionD2Ev
wgc:__Z43InitializeRendererAnimationBindingInterfacev
mlm:_Vector2_Dot_m1623542685
Rea:__ZL26DestroyGameObjectRecursiveR10GameObjectR11BatchDelete
c2k:_GC_allochblk_nth
B5e:_BaseInput_get_touchSupported_m2634027966
Kyj:_ScrollRect_get_vScrollingNeeded_m1717136831
Qae:__ZNK5physx2Gu9Container8ContainsEjPj
ZGj:_InternalEnumerator_1_System_Collections_IEnumerator_get_Current_m2141782011_gshared
dag:_TextInfo_Equals_m3029092201
Jfc:__Z7HaloTexP9Texture2DPhiiii
Ybk:_Enumerator_MoveNext_m2114485647_gshared
jvm:dynCall_i
t_:__ZN17AudioCustomFilter4InitEv
cUb:__ZN14SafeBinaryRead21TransferSTLStyleArrayI13dynamic_arrayIxLj8EEEEvRT_17TransferMetaFlags
qum:dynCall_f
Tge:__ZN9Rigidbody10DeactivateE19DeactivateOperation
ulh:_ListDictionary_GetEnumerator_m3395631195
dNf:_StackTrace__ctor_m727500069
eXb:__Z35Transfer_Blittable_FixedBufferFieldI24GenerateTypeTreeTransferjEvRK29SerializationCommandArgumentsR31RuntimeSerializationCommandInfo
yxb:__ZN8Playable13SetInputCountEi
wum:dynCall_v
_Sa:__ZN7ApiGLES14TextureSamplerEjjRK24GfxTextureSamplingParams17TextureColorSpace
KBf:_SortedList_System_Collections_IEnumerable_GetEnumerator_m2738760439
uLk:__ZN6il2cpp2vm6Thread8SetStateEP12Il2CppThreadNS0_11ThreadStateE
Csb:__ZN6Camera23VirtualRedirectTransferER14SafeBinaryRead
r6k:__ZNSt3__26vectorINS_12basic_stringIDsNS_11char_traitsIDsEENS_9allocatorIDsEEEENS4_IS6_EEE8__appendEj
lCk:__ZN6il2cpp2vm4Type11IsEmptyTypeEPK10Il2CppType
tOe:__ZN11UnityEngine7Connect13ConnectConfig11ConfigValueD2Ev
kNa:__ZNSt3__26__treeINS_12__value_typeIjP14DataBufferGLESEENS_19__map_value_compareIjS4_NS_4lessIjEELb1EEENS_9allocatorIS4_EEE7destroyEPNS_11__tree_nodeIS4_PvEE
m9g:_ASN1Convert_ToInt32_m2228176117
Ybd:__ZN5physx14NpArticulationD0Ev
gkc:__ZN13PlayableGraph15SetPrepareStageE13DirectorStage
Wb:invoke_viiiiiiii
mbg:_Int16_System_IConvertible_ToDateTime_m3080274979_AdjustorThunk
Bim:_TextEditor_OnDetectFocusChange_m2281007987
l_h:__Z74RuntimeInvoker_RuntimeObject_RuntimeObject_Double_t594665363_RuntimeObjectPFvvEPK10MethodInfoPvPS4_
veb:__ZNK6Camera16GetCullingMatrixEv
Yod:__ZNK5physx2Gu10ConvexMesh14debugVisualizeERNS_2Cm12RenderOutputERKNS2_8Matrix34ERKNS_9PxBounds3Eyfj
lcl:_GUIStyle_INTERNAL_CALL_GetStyleStatePtr_m2353552861
wAb:__ZN16LightmapSettings5ResetEv
GYa:__ZN12FileAccessor4ReadEyPvPy
tYf:_Array_InternalArray__ICollection_Add_TisKeyValuePair_2_t1377593753_m1795698675_gshared
YPh:__Z67RuntimeInvoker_Void_t1185182177_Int16_t2552820387_Int32_t2950945753PFvvEPK10MethodInfoPvPS4_
bDc:__Z42Register_UnityEngine_Event_get_commandNamev
YLg:_Collection_1_IsValidItem_m714924194_gshared
Bea:__ZNK15FileSystemEntry6ExistsEv
PIb:__ZNK9Transform21GetLocalToWorldMatrixER10Matrix4x4f
Nai:__Z78RuntimeInvoker_RuntimeObject_RuntimeObject_Int16_t2552820387_SByte_t1669577662PFvvEPK10MethodInfoPvPS4_
hum:dynCall_iif
vaf:_TouchInputModule_IsModuleSupported_m384818291
p7d:__ZN5physx2Gu10ConvexMesh4loadERNS_13PxInputStreamE
khd:__ZN5physx2Sc5Scene11removeShapeERNS0_8ShapeSimEb
FJf:_DateTime_ToString_m884486936
X6h:__Z83RuntimeInvoker_Int32_t2950945753_Rect_t2360479859_RuntimeObject_Vector2_t2156229523PFvvEPK10MethodInfoPvPS4_
cah:_MD4Managed_HashCore_m3384203071
FT:__ZN13AudioListener23VirtualRedirectTransferER19StreamedBinaryWriteILb0EE
Edh:_ClientRecordProtocol_createClientHandshakeMessage_m3325677558
gae:__ZN5physx6shdfnd5ArrayIPvNS0_19ReflectionAllocatorIN17PxcPoolMallocData10PoolData16EEEE15growAndPushBackERKS2_
NKa:__ZN13GfxDeviceGLES11CopyTextureE9TextureIDS0_
YBf:_SortedList_get_Capacity_m919184864
Brc:__Z72Register_UnityEngine_AssetBundleCreateRequest_DisableCompatibilityChecksv
Zxm:_emscripten_glViewport__wrapper
Ww:__ZN6Motion17MainThreadCleanupEv
Izi:_Thread_ResetAbort_internal_m743805153
tkl:_Physics_Raycast_m2203245451
qce:__ZN5physx6shdfnd5ArrayINS_2Gu10RTreeNodeQENS0_19ReflectionAllocatorIS3_EEE15growAndPushBackERKS3_
$2e:_String_IndexOfOrdinalUnchecked_m460601827
Flj:_AudioPlayableOutput_GetTarget_m3614596847_AdjustorThunk
uVj:_ConfigHandler_ReadChannel_m781299361
x0h:__Z99RuntimeInvoker_Void_t1185182177_Int32_t2950945753_Int32_t2950945753_SByte_t1669577662_RuntimeObjectPFvvEPK10MethodInfoPvPS4_
lCe:_tt_size_select
qXj:_InternalRemotingServices_GetCachedSoapAttribute_m1042302982
d2:__ZN11UnityEngine15CloudWebService17SessionEventQueue15RestoreFromFileER12FileAccessorPvy
F1i:_ConstructorBuilder_GetILGenerator_m1421260830
qNk:__ZN6il2cpp2vm9Exception25RaiseOutOfMemoryExceptionEv
WLb:__ZN14PlayerSettingsD2Ev
yfj:_AnimatorControllerPlayable_INTERNAL_CALL_SetBoolID_m3660382180
sHi:_UnitySerializationHolder_GetRealObject_m1624354633
Kcj:_AnimationClipPlayable_Create_m1642248494
hnl:__ZL51Attribute_t861562559_CustomAttributesCacheGeneratorP21CustomAttributesCache
Tlg:_Math_Ceiling_m625148210
S0k:_GC_reclaim_all
Tia:__ZN13PlayableGraph14DestroyOutputsEv
DEg:_Enumerator_System_Collections_IEnumerator_get_Current_m3895111131_gshared
Vf:___syscall122
eWc:__ZN16RayRTreeCallbackILi1ELb1EED0Ev
ZXd:__ZL18PxcContactHullHullRKN5physx2Gu13PolygonalDataES3_RKNS_9PxBounds3ES6_RKNS_11PxTransformES9_fRNS0_13ContactBufferERKNS_2Cm23FastVertex2ShapeScalingESF_bb
rFf:_Convert_ToDecimal_m2858622624
m_i:_OperatingSystem__ctor_m1545635730
Frd:__ZN5physx7NpCloth16setContactOffsetEf
Drd:__ZN5physx7NpCloth23setSimulationFilterDataERKNS_12PxFilterDataE
Exg:_List_1_RemoveAll_m2406195485_gshared
qPc:__ZN5physx3Cct26CharacterControllerManager21resetObstaclesBuffersEv
ZVh:__Z90RuntimeInvoker_Void_t1185182177_IntPtr_t_RuntimeObject_Int32_t2950945753_Int32_t2950945753PFvvEPK10MethodInfoPvPS4_
l5d:__ZN5physx6shdfnd5ArrayIPNS_10PxsCCDBodyENS0_19ReflectionAllocatorIS3_EEE8recreateEj
h_:__ZN9AudioClip16EnableLegacyModeEv
BWj:_Context_DoCallBack_m749197451
Lsc:__Z52Register_UnityEngine_Camera_INTERNAL_CALL_RaycastTryv
Hkb:__ZN13sorted_vectorINSt3__24pairIN4core12basic_stringIcNS2_20StringStorageDefaultIcEEEES6_EEN10vector_mapIS6_S6_27compare_tstring_insensitiveIS6_E13stl_allocatorIS7_L18MemLabelIdentifier37ELi16EEE13value_compareESD_E10insert_oneERKS7_
UCj:_VerticalLayoutGroup_SetLayoutHorizontal_m84550911
s0d:__ZN5physx6shdfnd8PoolBaseINS_21PxsBodyTransformVault13PxsBody2WorldENS0_19ReflectionAllocatorIS3_EEE12allocateSlabEv
Voh:_HttpWebRequest_get_ServicePoint_m3916606901
zpg:_Enumerator_MoveNext_m29052175_AdjustorThunk
dbl:_GUILayoutEntry_set_style_m3360824771
fqc:__ZN18ScriptingArguments13CopyFromOtherERKS_
B4g:_PKCS12_ReadSafeBag_m1585166574
tye:_ps_hints_close
Kic:__Z16CreateRenderLoopR6Camera
ASd:__ZN5physx20PxcNpCacheStreamPairC2ERNS_17PxcNpMemBlockPoolE
m7:_tlsf_create
fUg:_ReadOnlyCollection_1_System_Collections_IEnumerable_GetEnumerator_m2505713430_gshared
Tnm:_frexpl
qoj:_CanvasRenderer_SplitUIVertexStreamsInternal_m1464171125
LOb:__ZN13MonoBehaviour23VirtualRedirectTransferER18StreamedBinaryReadILb0EE
Q4b:__ZN9ShaderLab20SerializedSubProgramC2ERKS0_
DDa:__ZN9Texture3D17UploadToGfxDeviceEv
Z4f:_Array_InternalArray__get_Item_TisKeyValuePair_2_t71524366_m252172060_gshared
Drm:__ZNK10__cxxabiv121__vmi_class_type_info27has_unambiguous_public_baseEPNS_19__dynamic_cast_infoEPvi
kgm:_Sprite_get_textureRect_m692455054
oog:_MulticastDelegate_CombineImpl_m2857239134
p6h:__Z171RuntimeInvoker_Void_t1185182177_RuntimeObject_RuntimeObject_RuntimeObject_RuntimeObject_RuntimeObject_RuntimeObject_RuntimeObject_RuntimeObject_RuntimeObject_RuntimeObjectPFvvEPK10MethodInfoPvPS4_
bel:_GUIStyle_Internal_GetLineHeight_m3388479899
gQb:__ZN10MonoScript13AwakeFromLoadE17AwakeFromLoadMode
THi:_Version_op_Inequality_m1696193441
CTf:_PlayableHandle_IsPlayableOfType_TisAnimationOffsetPlayable_t2887420414_m3130555375_gshared
HTj:_Marshal_ReadByte_m1960935664
$gc:__ZZN12MeshRenderer15InitializeClassEvEN29FunctorImpl_133kDidDeleteMesh4CallEPviR11MessageData
Yl:_emscripten_glGetActiveUniform
v8a:__Z20RenderFullScreenQuadR9GfxDeviceRK6Camera17ShaderChannelMaskRK5RectTIfEf21MonoOrStereoscopicEye
Twf:_ArrayListWrapper_CopyTo_m3756520478
nae:__ZN5physx7Cooking16platformMismatchEv
NUi:_WebHeaderCollection_checkColonSeparated_m2302368289
Usa:__ZN16RenderTextureMap5QueryEPK17RenderSurfaceBase
ehm:_TextEditor_set_selectIndex_m842797284
$ub:__ZN5Light17MainThreadCleanupEv
d2d:__ZN5physx28solveParallelCouloumFrictionERNS_18PxsDynamicsContextEjjPNS_13PxcSolverBodyEPNS_17PxcSolverBodyDataEjjPNS_25PxcArticulationSolverDescEjPNS_23PxcSolverConstraintDescEjS9_jPiSA_SA_SA_SA_SA_PNS_25PxcThresholdStreamElementEjSA_PNS_2Cm13SpatialVectorEPKPNS_11PxsBodyCoreERNSD_10BitMapBaseINS_6shdfnd9AllocatorEEEPKPNS_15PxsArticulationEjPViRNSL_5ArrayINS_24PxsConstraintBatchHeaderENSL_19ReflectionAllocatorISW_EEEES10_RNSV_IjNSX_IjEEEES13_PPNS_12PxsRigidBodyEj
sel:_GUIStyle_GetCursorPixelPosition_m3309291853
nhc:__ZN8Material12CleanupClassEv
Kgc:__ZN8Material8GetFloatEN9ShaderLab16FastPropertyNameE
Iti:_CryptoConfig_MapNameToOID_m2044758263
PRd:__ZN5physx2Gu18gjkRelativeRayCastINS0_9TriangleVENS0_4BoxVES2_NS0_10ShrunkBoxVEEEbRT_RT0_RKNS_6shdfnd3aos15PsMatTransformVERKNSA_6FloatVERKNSA_5Vec3VESJ_RSE_RSH_SL_fb
Xte:_psnames_module_class_pic_free
WAc:__Z11GetGUIStatev
Ug:_glGetActiveUniform
aXf:_Array_InternalArray__IndexOf_TisSlot_t3975888750_m4250446283_gshared
rid:__ZN5physx2Sc8BodyCoreD2Ev
w8l:__ZL59g_websocketU2Dsharp_Assembly_CustomAttributesCacheGeneratorP21CustomAttributesCache
$g:_emscripten_glGetObjectParameterivARB
SPi:_CharacterClass_AddCharacter_m2370152363
tva:__ZN15SerializeTraitsI10ColorRGBAfE8TransferI14SafeBinaryReadEEvRS0_RT_
SOg:_Collection_1_IsValidItem_m2333176545_gshared
jga:__ZN22BuiltinResourceManager13StaticDestroyEPv
Kea:__ZN10GameObject17GetComponentIndexEPN5Unity9ComponentE
Gqd:__ZN5physx7NpCloth20setMotionConstraintsEPKNS_31PxClothParticleMotionConstraintE
CDb:__ZN14SafeBinaryRead21TransferSTLStyleArrayI13dynamic_arrayI7SubMeshLj4EEEEvRT_17TransferMetaFlags
f0f:_Array_InternalArray__set_Item_TisILTokenInfo_t2325775114_m309595583_gshared
hW:__ZN29AudioEffectInternalDefinition9CreateDSPEPN4FMOD6SystemEPvPfP23UnityAudioAmbisonicDataPP25UnityAudioSpatializerData
wdj:_AnimationLayerMixerPlayable_SetLayerAdditive_m2323380745
QDe:_UNITY_tt_face_vary_cvt
Mdh:_TlsStream_ReadInt24_m3096782201
hBc:__Z28DidLoadAllAssembliesCallbackv
d7d:__ZNK5physx2Sc15ClothFabricCore9getPhasesEPNS_18PxClothFabricPhaseEj
lkb:__ZN35RegisterRuntimeInitializeAndCleanup22ExecuteInitializationsEv
MZe:_TripleDESCryptoServiceProvider_CreateEncryptor_m450924958
mRi:_UriParser_GetParser_m544052729
kBj:_Text_get_font_m2857203289
$zm:b100
AAa:__ZN23PreloadManagerOperation14SetFinalTimingEffff
i:DYNAMICTOP_PTR
l5i:_MethodBuilder_fixup_m1765890582
f3a:__Z11CopyTextureP7TextureiiS0_ii
SLb:__ZN13BuildSettings8TransferI18StreamedBinaryReadILb0EEEEvRT_
kmg:_MissingFieldException__ctor_m4282575076
BLf:_Decimal_Equals_m2592017260
Pac:__ZN10GameObject15InitializeClassEv
vKd:__ZN5physx3Scb17ArticulationJoint9syncStateEv
vRd:__ZNK5physx2Gu29EPASupportMapPairRelativeImplINS0_8CapsuleVENS0_4BoxVEE18doWarmStartSupportEiiRNS_6shdfnd3aos5Vec3VES8_S8_
zoi:_RemotingConfiguration_RegisterTypes_m2378540395
Fuc:__Z38Renderer_Get_Custom_PropSortingLayerIDP12Il2CppObject
o4d:__ZN5physx17PxsThresholdTable5buildERKNS_18PxsThresholdStreamE
bLj:_InternalEnumerator_1_System_Collections_IEnumerator_get_Current_m767948013_gshared
Xqj:_DelegatePInvokeWrapper_CSSMeasureFunc_t1554030124
myh:_Enumerator_get_CurrentValue_m3438280969_AdjustorThunk
yu:__ZN13AnimationClip10FloatCurveC2ERKS0_
_Vd:__ZN9BoxPruner12updateObjectERK5IAABBt
K3c:__ZN5physx2Sc10NPhaseCore32createActorPairContactReportDataEv
XZd:__ZN5physx2Gu22pcmContactPlaneCapsuleERKNS0_13GeometryUnionES3_RKNS_11PxTransformES6_RKfRNS0_5CacheERNS0_13ContactBufferE
DFk:__ZN15dense_hashtableINSt3__24pairIK10KeyWrapperINS1_IPK12PropertyInfoP11Il2CppClassEEEjEES9_17ReflectionMapHashIS8_EN14dense_hash_mapIS9_jSD_NS9_14EqualsComparerINS0_8equal_toIS8_EEEENS0_9allocatorISB_EEE9SelectKeyESI_SK_E12resize_deltaEjj
cke:__ZN5physx6shdfnd4sortIPvNS0_4LessIS2_EENS0_19ReflectionAllocatorINS_24NpPtrTableStorageManager8PtrBlockILi4EEEEEEEvPT_jRKT0_RKT1_j
Fpj:_Color_ToString_m3373877040
iBj:_Text_get_cachedTextGeneratorForLayout_m116487342
Mlk:__ZL11decimalLog2P19il2cpp_decimal_repr
dNb:__ZN15ResourceManager10Dependency8TransferI14SafeBinaryReadEEvRT_
aUd:__ZNK5physx29BroadPhaseBatchUpdateWorkTask7getNameEv
dKg:_Collection_1_System_Collections_IList_Remove_m3800279569_gshared
u0k:_GC_extend_size_map
lBj:_Text_FontTextureChanged_m495427969
H7f:_NumberFormatter_RoundDecimal_m2957290908
JW:__ZN4FMOD6System9setDriverEi
Qic:__ZNK9Transform11GetRotationEv
Auc:__Z36Register_UnityEngine_GameObject_Findv
aJd:__ZN5physx2Sc5Scene26setVisualizationCullingBoxERKNS_9PxBounds3E
QYf:_Array_InternalArray__ICollection_Add_TisSingle_t1397266774_m1873979703_gshared
Sye:_pshinter_get_globals_funcs
fXb:__Z18Transfer_BlittableI24GenerateTypeTreeTransferLb0EyEvRK29SerializationCommandArgumentsR31RuntimeSerializationCommandInfo
Bpa:__ZN8Material14CreateMaterialER6ShaderN6Object9HideFlagsEb
qBi:_TimeSpan_get_Minutes_m4278980001_AdjustorThunk
Qrc:__Z60Register_UnityEngine_AsyncOperation_get_allowSceneActivationv
F9i:_MonoMethodInfo_get_method_info_m88651774
Hub:__ZNK17InstancedPropInfo15RenderInstancesERK15RenderNodeQueuePK17BatchInstanceDataj17ShaderChannelMaskPFbPvS6_iR11MeshBuffersR16DrawBuffersRangeRiSC_E
dEc:__Z31GUIStyle_CUSTOM_GetFontInternalP12Il2CppObject
Dxe:_tt_cmap12_char_map_binary
mme:__Z27GetMeshAssetPathDescriptivePK4Mesh
Epa:__Z25GetBuiltinResourceManagerv
NOd:__ZN5physx2Sq16BucketPrunerCore20allocateSortedMemoryEj
bt:__ZN6Motion21AddSelfToDependenciesER8UserList
wSk:__ZN6il2cpp2gc8GCHandle15GetTargetHandleEP12Il2CppObjectii
pcg:_Int32_System_IConvertible_ToByte_m3832391412
pi:_llvm_trap
s9:__ZNSt3__27__sort5IRNS_6__lessIN12_GLOBAL__N_114ParamNameIndexES3_EEPS3_EEjT0_S7_S7_S7_S7_T_
k0k:_GC_unpromote_black_lists
pIb:__Z14SkinGenericCPUILi2ELb1ELb0EEvR12SkinMeshInfo
RZj:_X509Certificate_VerifySignature_m3988463526
R0k:_get_index
Bt:__ZN11UnityEngine9Animation14GenericBinding8TransferI14SafeBinaryReadEEvRT_
f8k:_UnityEventBase_FindMethod_m1055565284
jXd:__ZNK5physx14SingleAABBTask7getNameEv
bbg:_GuidParser_AtEnd_m3409982497
Sbe:__ZN5physx11HullLibrary11calchullgenEPNS_6float3Eiif
G1g:_KeyBuilder_Key_m876696100
j5a:__Z26scripting_method_get_class18ScriptingMethodPtr
JCk:__ZN15dense_hashtableINSt3__24pairIK10KeyWrapperINS1_IPK14Il2CppAssemblyP11Il2CppClassEEEjEES9_17ReflectionMapHashIS8_EN14dense_hash_mapIS9_jSD_NS9_14EqualsComparerINS0_8equal_toIS8_EEEENS0_9allocatorISB_EEE9SelectKeyESI_SK_EC2ERKSN_j
t4a:__ZN17CollisionMeshData20VertexDataHasChangedEv
qwk:__ZN6il2cpp2vm21ThreadPoolCompartment12DetachThreadEP12Il2CppThread
Fsi:_SByte_System_IConvertible_ToInt16_m885121451_AdjustorThunk
YEf:_Decimal_stripStyles_m1823381019
mKa:__ZN13GfxDeviceGLES30SetBackBufferColorDepthSurfaceEP17RenderSurfaceBaseS1_
YFc:__Z52Register_UnityEngine_GUIUtility_get_systemCopyBufferv
D4f:_LayoutGroup_SetProperty_TisBoolean_t97287965_m3903959758_gshared
Ikc:__ZN16StreamedResource8TransferI18StreamedBinaryReadILb0EEEEvRT_
qvc:__Z49Register_UnityEngine_Input_get_imeCompositionModev
sId:__ZN5physx6shdfnd5ArrayINS_12PxActorShapeENS0_19ReflectionAllocatorIS2_EEE8recreateEj
F3b:__ZN15dense_hashtableINSt3__24pairIKiN4core17string_with_labelILi1EEEEEi18SInt32HashFunctionN14dense_hash_mapIiS5_S7_NS0_8equal_toIiEE13stl_allocatorIS6_L18MemLabelIdentifier1ELi16EEE9SelectKeyESA_SD_E12resize_deltaEjj
rfb:__ZNK20OcclusionCullingData22GetStaticRendererCountEv
Pve:_UNITY_tt_face_free_ps_names
bp:FUNCTION_TABLE_iiiiifi
Q8a:__ZNK6Camera17GetSkyboxMaterialEv
eDm:_emscripten_glDisableVertexAttribArray__wrapper
Mkj:_AudioClipPlayable_GetStartDelay_m2331193064_AdjustorThunk
ete:__ZNSt3__26vectorIN20TextRenderingPrivate8FontImpl13CharacterInfoE13stl_allocatorIS3_L18MemLabelIdentifier34ELi16EEE6insertENS_11__wrap_iterIPKS3_EERS9_
rng:_MonoType_GetAttributeFlagsImpl_m167182975
Bbh:_EncryptedData_get_EncryptedContent_m3205649670
XLd:__ZN5physx2Sc5Scene31setClothInterCollisionStiffnessEf
gHb:__ZN12MeshRenderer18CalculateLocalAABBER4AABBRKS_RK4Mesh
utd:__ZN5physx2Sc9ClothCore20setMotionConstraintsEPKNS_31PxClothParticleMotionConstraintE
Rob:__ZN21UnityDefaultAllocatorI17LowLevelAllocatorE8AllocateEji
SXd:__ZN5physx23PxcContactCapsuleConvexERKNS_2Gu13GeometryUnionES3_RKNS_11PxTransformES6_RKfRNS_10PxcNpCacheERNS0_13ContactBufferE
KHe:__ZL28InitializeUIScriptingClassesv
zrc:__Z43AssetBundleRequest_Get_Custom_PropAllAssetsP12Il2CppObject
f8h:__Z54RuntimeInvoker_Vector2_t2156229523_Vector3_t3722313464PFvvEPK10MethodInfoPvPS4_
gAa:__ZN10UnityScene10ClearRootsEv
mpe:__Z50Register_UnityEngine_BoxCollider_INTERNAL_get_sizev
QTg:_ReadOnlyCollection_1_System_Collections_IList_set_Item_m2162444692_gshared
u_a:__ZN12HandlerChain10AtomicMoveER13FileEntryDataS1_
Dia:__ZZN15DirectorManager15InitializeClassEvEN48PreLateUpdateDirectorDeferredEvaluateRegistrator7ForwardEv
E3e:_String_Format_m2556382932
WUh:__Z68RuntimeInvoker_Int64_t3736567304_IntPtr_t_MonoIOErrorU26_t1548853198PFvvEPK10MethodInfoPvPS4_
zH:__ZN7mecanim9animation20CreateAvatarConstantEPNS_8skeleton8SkeletonEPNS1_13SkeletonPoseTIN4math4trsXEEES8_PNS_5human5HumanES3_iRKS6_RNS_6memory9AllocatorE
Lvh:_AsnEncodedData_Default_m4101664970
DGb:__ZN14CompressedMesh8TransferI19StreamedBinaryWriteILb0EEEEvRT_
Obd:__ZN5physx6shdfnd5ArrayIPvNS0_15InlineAllocatorILj256ENS0_19ReflectionAllocatorINS_14NpRigidDynamicEEEEEE15growAndPushBackERKS2_
xrc:__Z58AssetBundleCreateRequest_CUSTOM_DisableCompatibilityChecksP12Il2CppObject
ank:__GLOBAL__sub_I_Class_cpp
Tzg:_List_1_System_Collections_IList_Add_m3014885234_gshared
L_c:__ZN5physx3Cct9SweepTest13onOriginShiftERKNS_6PxVec3E
vzj:_Selectable_set_isPointerInside_m701571657
hub:__ZN24GenerateTypeTreeTransfer8TransferI21PlatformShaderDefinesEEvRT_PKc17TransferMetaFlags
NMb:__ZNK15ResourceManager22GetTypeVirtualInternalEv
EBg:_List_1_set_Capacity_m2707586410_gshared
Wpe:__ZN13TextRendering4Font23VirtualRedirectTransferER24GenerateTypeTreeTransfer
xJi:_X509SubjectKeyIdentifierExtension_ToString_m12089275
E9h:__Z106RuntimeInvoker_RuntimeObject_RuntimeObject_Int32_t2950945753_Int16_t2552820387_RuntimeObject_RuntimeObjectPFvvEPK10MethodInfoPvPS4_
gHi:_UnhandledExceptionEventArgs__ctor_m224348470
XXc:__ZN5physx6shdfnd5ArrayINS_11PxDebugLineENS0_19ReflectionAllocatorIS2_EEE15growAndPushBackERKS2_
QTd:__ZN5physx25solveContactConcludeBlockEPKNS_23PxcSolverConstraintDescEjRNS_16PxcSolverContextE
Z6j:_UnityEvent_4_GetDelegate_m1058124614_gshared
PXd:__ZN5physx21PxcContactPlaneConvexERKNS_2Gu13GeometryUnionES3_RKNS_11PxTransformES6_RKfRNS_10PxcNpCacheERNS0_13ContactBufferE
QWf:_Array_InternalArray__IndexOf_TisByte_t1134296376_m929524687_gshared
H7e:_ExecuteEvents_get_dragHandler_m3849431675
L5a:__ZN11HaloManager17RenderGeometryJobEP25DynamicVBOGeometryJobDataj
qOf:_Enum_System_IConvertible_ToDateTime_m3823814707
YN:__ZNSt3__227__insertion_sort_incompleteIRPFbN7mecanim9animation13MuscleIndexIdES3_EPS3_EEbT0_S8_T_
zij:_AnimatorControllerPlayable_Play_m3825152479_AdjustorThunk
qDm:_emscripten_glBlendEquation__wrapper
kKk:__ZN15dense_hashtableINSt3__24pairIK10KeyWrapperIP11Il2CppClassES4_EES5_N6il2cpp8metadata16SZArrayClassHashEN14dense_hash_mapIS5_S4_SA_NS5_14EqualsComparerINS9_19SZArrayClassCompareEEENS0_9allocatorIS7_EEE9SelectKeyESE_SG_E13set_empty_keyERKS7_
wqm:__ZNSt3__212basic_stringIcNS_11char_traitsIcEENS_9allocatorIcEEE6__initEPKcj
uk:_emscripten_set_fullscreenchange_callback
rCd:__ZN5physx2Sc5Scene11preAllocateEjjjjj
wWg:_ReadOnlyCollection_1_System_Collections_IList_Insert_m4085855595_gshared
qNi:_PatternCompiler_NewLink_m3699449496
c9j:_Object_Instantiate_TisRuntimeObject_m864675153_gshared
Q4:__ZN11UnityEngine15CloudWebService14DataDispatcher22ResetNetworkRetryIndexEv
B8k:_FontTextureRebuildCallback_Invoke_m738606150
_a:invoke_vifiiiiiiiiiiiiiiiiiiiiiiiiiiii
zk:_emscripten_glDrawArrays
Sbl:_GUIScrollGroup_CalcWidth_m1770021799
Soe:__Z40CapsuleCollider_Get_Custom_PropDirectionP12Il2CppObject
k0a:__ZZ23InitPlayerLoopCallbacksvEN43EarlyUpdateExecuteMainThreadJobsRegistrator7ForwardEv
r4:__ZN11UnityEngine15CloudWebService19SessionEventManagerC2Ev
Puf:_Char_System_IConvertible_ToSingle_m2690985411_AdjustorThunk
yXg:_Comparison_1_Invoke_m668117148_gshared
llh:_DictionaryNodeEnumerator_FailFast_m2494733641
Zil:_MonoBehaviour_StopAllCoroutines_m4105189447
Zfl:_Input_INTERNAL_get_mouseScrollDelta_m3373247492
VSe:__ZN13RuntimeStaticI14dynamic_bitsetLb0EE16StaticInitializeEPv
Klj:_AudioClip_InvokePCMSetPositionCallback_Internal_m1983196106
nu:__ZN13AnimationClip10FloatCurve8TransferI14SafeBinaryReadEEvRT_
V$c:__ZN5physx3Ext9MassProps13rotateInertiaERKNS_7PxMat33ERKNS_6PxQuatE
nbg:_Int16_System_IConvertible_ToDecimal_m660016172
ofj:_AnimatorControllerPlayable_GetBool_m2647664928
A$:__ZL19CleanupModule_Audiov
D9k:_GUI_DoButton_m3132457439
kCg:_List_1_Find_m2257431514_gshared
YLi:_IntervalCollection_CopyTo_m2976848759
tcf:_CanvasUpdateRegistry_ObjectValidForUpdate_m2723813849
Fxg:_List_1_RemoveAt_m1433290785_gshared
zUb:__Z29Transfer_Blittable_ArrayFieldI14SafeBinaryReadiEvRT_R9ArrayInfoRK23StaticTransferFieldInfo
gxk:__ZN6il2cpp6icalls8mscorlib6System8MonoType8GetFieldEP20Il2CppReflectionTypeP12Il2CppStringi
qak:_KeyValuePair_2_ToString_m2983173998_AdjustorThunk
Ksk:__ZN15dense_hashtableINSt3__24pairIK10KeyWrapperIN6il2cpp5utils13dynamic_arrayIPK10Il2CppTypeLj4EEEEPFvvEEESA_NS3_8metadata19Il2CppSignatureHashEN14dense_hash_mapISA_SD_SG_NSA_14EqualsComparerINSF_22Il2CppSignatureCompareEEENS0_9allocatorISE_EEE9SelectKeyESK_SM_E5clearEv
mYe:_SHA256Managed_ProcessBlock_m2297835517
szm:_emscripten_glVertexAttrib3fv__wrapper
dDf:_Convert_ToBoolean_m4098720762
qWg:_ReadOnlyCollection_1_System_Collections_ICollection_CopyTo_m511916545_gshared
_uh:_WebHeaderCollection_Set_m2824231721
pZf:_Array_InternalArray__ICollection_CopyTo_TisArraySegment_1_t283560987_m3190072976_gshared
z$i:_AssemblyName__ctor_m1753467291
lAj:_Slider_set_minValue_m3431883418
Gqc:__ZN8Material10GetTextureEN9ShaderLab16FastPropertyNameE
TDh:_Enumerator_System_Collections_IEnumerator_get_Current_m1657817602_gshared
ccc:__ZNK28MonoBehaviourPropertyBinding13GetFloatValueERKN11UnityEngine9Animation10BoundCurveE
ZZf:_Array_InternalArray__ICollection_CopyTo_TisMark_t3471605523_m3650504988_gshared
nTi:_HttpUtility_writeCharBytes_m3932331197
eNb:__ZN14SafeBinaryRead21TransferSTLStyleArrayINSt3__26vectorI4PPtrI6ObjectE13stl_allocatorIS5_L18MemLabelIdentifier51ELi16EEEEEEvRT_17TransferMetaFlags
H2k:_GC_generic_malloc
tOd:__ZNK5physx2Sq12BucketPruner7overlapERKNS0_9ShapeDataERNS0_14PrunerCallbackE
kcc:__ZNSt3__26vectorI16MessageForwarder13stl_allocatorIS1_L18MemLabelIdentifier6ELi8EEE6resizeEj
HUa:__Z19GetVertexFormatSize12VertexFormat
K2g:_KeyPairPersistence__ProtectMachine_m813172390
zOj:_InternalEnumerator_1_get_Current_m2279868857_AdjustorThunk
Rwg:_List_1_set_Item_m4249175531_gshared
lr:__ZN14SafeBinaryRead21TransferSTLStyleArrayI13dynamic_arrayIiLj4EEEEvRT_17TransferMetaFlags
rla:__ZN15dense_hashtableINSt3__24pairIKN4core12basic_stringIcNS2_20StringStorageDefaultIcEEEE13dynamic_arrayI4PPtrI6SpriteELj4EEEES6_20StringHash32FunctionIS6_EN14dense_hash_mapIS6_SC_SF_NS0_8equal_toIS6_EE13stl_allocatorISD_L18MemLabelIdentifier79ELi16EEE9SelectKeyESI_SL_E9set_valueEPSD_RKSD_
OUd:__ZN5physx23PxsBroadPhaseContextSap7destroyEv
Jwf:_ArrayListWrapper_Clear_m2625302714
Pvb:__ZN19LightProbeOcclusion8TransferI14SafeBinaryReadEEvRT_
_Qd:__ZN5physx19PxcGetMaterialShapeEPKNS_12PxsShapeCoreEjRNS_18PxcNpThreadContextEPNS_15PxsMaterialInfoE
IDm:_emscripten_glIsTexture__wrapper
zYf:_Array_InternalArray__ICollection_Add_TisDouble_t594665363_m4118067936_gshared
Uch:_CipherSuiteCollection_System_Collections_IEnumerable_GetEnumerator_m3240848888
Trm:_llvm_bswap_i32
PXg:_Comparison_1_BeginInvoke_m3417636795_gshared
h8k:_UnityEventBase_RemoveListener_m748247232
SJa:__ZN9GfxDevice25ReleaseAsyncCommandHeaderEPN21GfxDeviceAsyncCommand3ArgE
Zfm:_SpaceAttribute__ctor_m731325146
F_j:_X509Crl_Parse_m3164013387
Mme:__ZZN14PhysicsManager15InitializeClassEvEN40FixedUpdatePhysicsFixedUpdateRegistrator7ForwardEv
vUa:__ZN21UniformBufferTFMethod20IsBoneCountSupportedEi
wfk:_InvokableCall_1__ctor_m513361773_gshared
sMf:_Delegate_CreateDelegate_m466794306
Tif:_HorizontalLayoutGroup_CalculateLayoutInputHorizontal_m750541069
eYk:__ZN6il2cpp6icalls8mscorlib6System11Environment11get_NewLineEv
rOf:_Enum_System_IConvertible_ToDecimal_m3435237785
BRj:_ResourceReader_CreateResourceInfo_m1818330740
Ege:__ZNSt3__26__treeINS_12__value_typeI9ShapePair16TriggerStayStateEENS_19__map_value_compareIS2_S4_NS_4lessIS2_EELb1EEENS_9allocatorIS4_EEE7destroyEPNS_11__tree_nodeIS4_PvEE
fua:__ZN6Shader27MarkShaderStateNotSupportedEPKS_
MWi:_WebHeaderCollection_get_Count_m1469674434
LYc:__Z13raycast_planeRKN5physx10PxGeometryERKNS_11PxTransformERKNS_6PxVec3ES8_fNS_7PxFlagsINS_9PxHitFlag4EnumEtEEjPNS_12PxRaycastHitEbPFbRSD_PvESG_
jYj:_NetscapeCertTypeExtension_Decode_m251886799
yai:__Z135RuntimeInvoker_RuntimeObject_Ray_t3785851493_RaycastHitU26_t2429360258_Single_t1397266774_Int32_t2950945753_RuntimeObject_RuntimeObjectPFvvEPK10MethodInfoPvPS4_
Dib:__ZN10GameObject21EnsureUniqueTransformEbb
XTa:__ZN25TransformFeedbackSkinning8SkinMeshERK18VertexStreamSourceP9GfxBufferP17GPUSkinPoseBufferS4_ii17ShaderChannelMaskb
eEh:_Enumerator_System_Collections_IEnumerator_get_Current_m3263171317_AdjustorThunk
CPk:__ZN15dense_hashtableINSt3__24pairIK10KeyWrapperIP14Il2CppIUnknownEjEES5_N6il2cpp5utils11PointerHashIS3_EEN14dense_hash_mapIS5_jSB_NS5_14EqualsComparerINS0_8equal_toIS4_EEEENS0_9allocatorIS7_EEE9SelectKeyESG_SI_E12resize_deltaEjj
Xaj:_ResolveEventArgs__ctor_m1455935166
Xhm:_TextEditor_SelectNone_m739021335
TCi:_Type_Equals_m1673304139
Bkg:_SynchronizedReader_Read_m1388613247
wke:__ZN5physx9NpFactory14createInstanceEv
Zag:_Guid_ToString_m4056316049
q$c:__ZN5physx2Cm12RenderBufferD2Ev
n4c:__ZL32GeomOverlapCallback_PlaneCapsuleRKN5physx10PxGeometryERKNS_11PxTransformES2_S5_PNS_2Gu12TriggerCacheE
Qtd:__ZN5physx2Sc9ClothCore13setGlobalPoseERKNS_11PxTransformE
Wte:_pshinter_module_class_pic_free
Rwj:_Scrollbar_OnPointerDown_m3213715319
H9e:_StandaloneInputModule__ctor_m2419721820
Nq:__Z17CalculateGlobalSM23TransformAccessReadOnlyRKN4math7_float4E
tIe:__ZZN2UI14CanvasRenderer15InitializeClassEvEN32FunctorImpl_826kTransformChanged4CallEPviR11MessageData
Nyf:_CollectionBase_System_Collections_IList_Contains_m2994901969
Auh:_TcpClient_Connect_m3508995652
ym:_emscripten_glLoadIdentity
zkb:__ZNSt3__26vectorINS_4pairIN4core12basic_stringIcNS2_20StringStorageDefaultIcEEEEPK17MessageIdentifierEENS_9allocatorISA_EEE26__swap_out_circular_bufferERNS_14__split_bufferISA_RSC_EEPSA_
YFf:_Convert_ToInt16_m2896657713
Fdb:__Z29CullShadowCastersWithoutUmbraR9IndexListRK17CullingParametersPK4AABBjj
W7a:__ZN6Camera28DefaultPerformRenderFunctionclEPS_13RenderingPathP11CullResults
eXc:__ZN5physx2Gu21sweepCapsuleTrianglesEjPKNS_10PxTriangleERKNS0_7CapsuleERKNS_6PxVec3EfPKjRNS_7PxFlagsINS_9PxHitFlag4EnumEtEERfRS7_SI_RjSI_SF_bPKNS0_3BoxE
hr:__ZN4AABB8TransferI14SafeBinaryReadEEvRT_
nNk:__ZN6il2cpp2vm8Liveness8FromRootEP12Il2CppObjectPv
pHb:__ZN12MeshRenderer23VirtualRedirectTransferER19StreamedBinaryWriteILb0EE
iBb:__ZN18StreamedBinaryReadILb0EE21TransferSTLStyleArrayI13dynamic_arrayI12LightmapDataLj4EEEEvRT_17TransferMetaFlags
Cwc:__Z49Register_UnityEngine_MonoBehaviour_StartCoroutinev
Fmb:__Z11MD5ToStringPh
bvc:__Z38Input_Get_Custom_PropCompositionStringv
$xh:_Enumerator_System_Collections_IEnumerator_Reset_m4049981541_AdjustorThunk
W5c:__ZNK5physx2Sc14ConstraintCore13getBreakForceERfS2_
b2c:__ZN5physx2Sc8ShapeSim21destroyLowLevelVolumeEv
wdm:_RectTransform_set_anchoredPosition_m1454079598
cL:__ZN7mecanim12statemachine18TransitionConstant8TransferI19StreamedBinaryWriteILb0EEEEvRT_
apk:__ZN6il2cpp2vm5Class19GetArrayElementSizeEPK11Il2CppClass
g4g:_ContentInfo_get_ASN1_m1776225219
Eze:_cf2_builder_moveTo
z2:__ZN9JSONWrite8TransferIN4core12basic_stringIcNS1_20StringStorageDefaultIcEEEEEEvRT_PKc17TransferMetaFlags
Nie:__ZThn116_N5physx7profile8ZoneImplINS_28PxProfileNameProviderForwardEED1Ev
abm:_RangeInt_get_end_m2761784640_AdjustorThunk
WGf:_Convert_ToSingle_m2533452644
Fqm:__ZNSt3__212basic_stringIcNS_11char_traitsIcEENS_9allocatorIcEEE6resizeEjc
CAd:__ZN5physx2Sc8BodyCore17setAngularDampingEf
ZLb:__ZN14PlayerSettings16CheckConsistencyEv
i$:__ZN11AudioModule30GetOrCreateDSPFromCustomFilterEP17AudioCustomFilter
l2a:__ZN19AtomicPageAllocatorD2Ev
R6e:_EventTrigger_OnPointerEnter_m986348926
M$j:_EqualityComparer_1_System_Collections_IEqualityComparer_Equals_m2459214470_gshared
s9d:__ZNK5physx2Gu12TriangleMesh24getTriangleMaterialIndexEj
nke:__ZN5physx6shdfnd5ArrayIPvNS0_19ReflectionAllocatorINS_24NpPtrTableStorageManager8PtrBlockILi64EEEEEE4copyINS0_15InlineAllocatorILj256ES7_EEEEvRKNS1_IS2_T_EE
cQk:__ZN6il2cpp6icalls8mscorlib6System13GlobalizationL20culture_lcid_locatorEPKvS5_
PZe:_X509Certificate__ctor_m1413707489
QFc:__Z40GUIUtility_Set_Custom_PropTextFieldInputh
bjj:_AnimatorStateInfo_get_loop_m1486238854_AdjustorThunk
_sm:dynCall_vifiiiiiiiiiiiii
Oyb:__ZNK12CubemapArray16ExtractImageImplEP14ImageReferenceNS0_8BlitModeEbi
Bwc:__Z63Register_UnityEngine_MonoBehaviour_StartCoroutine_Auto_Internalv
uvb:__ZN5Light8TransferI19StreamedBinaryWriteILb0EEEEvRT_
Doc:__ZN10systeminfo24GetSystemLanguageCultureEi
bhl:_Material_SetInt_m1704877877
Kwm:_glTexStorage3D__wrapper
__h:__Z240RuntimeInvoker_RuntimeObject_Int16_t2552820387_RuntimeObject_Int32_t2950945753_Int32_t2950945753_Int32_t2950945753_SByte_t1669577662_SByte_t1669577662_SByte_t1669577662_SByte_t1669577662_Int16_t2552820387_SByte_t1669577662_SByte_t1669577662PFvvEPK10MethodInfoPvPS4_
jMb:__ZN10VRSettings8TransferI14SafeBinaryReadEEvRT_
uDi:_Type_IsMarshalByRefImpl_m914778231
_7d:__ZN5physx13BigConvexData15exportExtraDataERNS_22PxSerializationContextE
aWb:__Z22TransferField_NonArrayI17RemapPPtrTransfer27Converter_SimpleNativeClassI8GradientEEvRK23StaticTransferFieldInfoR31RuntimeSerializationCommandInfoRT0_
pej:_AnimationOffsetPlayable_SetRotation_m3038741426_AdjustorThunk
Ozf:_Hashtable__ctor_m2302711321
na:invoke_viifiiii
gFj:_InternalEnumerator_1_get_Current_m2100201398_gshared
mum:dynCall_viiiiiif
L_f:_Array_InternalArray__Insert_TisSlot_t3975888750_m2502256387_gshared
O2a:__ZN22PerThreadPageAllocator14AcquireNewPageEj
bgl:_Input_get_touchCount_m844052757
G_:__ZN24AudioScriptBufferManager15DidReloadDomainEv
oYg:_Func_2_Invoke_m3516477887_gshared
D3e:_String_ToString_m3872792296
Bgg:_FileStream_GetSecureFileName_m449783930
C9a:__ZN6Camera13ClearNoSkyboxEb
tlg:_UnexceptionalStreamWriter_Flush_m82278468
j0c:__ZN5physx6shdfnd21atomicCompareExchangeEPViii
pfk:_InvokableCall_1__ctor_m3421292816_gshared
UKj:_InternalEnumerator_1_get_Current_m3911557813_gshared
$rk:__ZNK15dense_hashtableI10KeyWrapperIPK17Il2CppGenericInstES4_N6il2cpp8metadata21Il2CppGenericInstHashEN14dense_hash_setIS4_S7_NS4_14EqualsComparerINS6_24Il2CppGenericInstCompareEEENSt3__29allocatorIS4_EEE8IdentityESB_SE_E12test_deletedEj
Ekl:_Physics_RaycastAll_m1264095660
vtd:__ZNK5physx2Sc9ClothCore26getNbParticleAccelerationsEv
C5e:_BaseInput_get_touchCount_m1263753282
Dha:__ZNSt3__27__sort5IR17CompareInstanceIDPP6ObjectEEjT0_S6_S6_S6_S6_T_
Eqh:_SslStream_Write_m462410050
Brb:__ZNSt3__26vectorI17SortingLayerEntryNS_9allocatorIS1_EEE12__move_rangeEPS1_S5_S5_
wui:_DecoderReplacementFallbackBuffer_Reset_m3943028589
_Ma:__ZN18GfxFramebufferGLES10InvalidateEv
$pd:__ZN5physx7NpCloth16lockParticleDataENS_7PxFlagsINS_16PxDataAccessFlag4EnumEhEE
oSi:_CloseEventArgs__ctor_m2614728653
lbf:_LayoutRebuilder_MarkLayoutRootForRebuild_m1241498911
Hyi:_CompressedStack_CreateCopy_m2591279216
DXe:_RSAPKCS1KeyExchangeFormatter_CreateKeyExchange_m1611814432
ogk:_UnityAction_1_Invoke_m85073476_gshared
p8:__ZN10MemoryPoolD2Ev
ev:__ZN17AnimationCurveTplI11QuaternionfE8TransferI14SafeBinaryReadEEvRT_
rgd:__ZN5physx7NpActor13getOwnerSceneERKNS_7PxActorE
LBc:__ZNSt3__26__treeINS_12__value_typeIN4core12basic_stringIcNS2_20StringStorageDefaultIcEEEEN5IMGUI12NamedControlEEENS_19__map_value_compareIS6_S9_NS_4lessIS6_EELb1EEENS_9allocatorIS9_EEE7destroyEPNS_11__tree_nodeIS9_PvEE
zSd:__ZN5physx18PxcNpThreadContextC2EfffRKNS_2Cm12RenderOutputERNS_17PxcNpMemBlockPoolEb
Hvh:_AsnEncodedData_KeyUsageExtension_m1792651780
Nkl:_Plane_ToString_m3330286989
nQd:__ZN5physx2Cm12DelegateTaskINS_13PxsCCDContextEXadL_ZNS2_14postCCDAdvanceEPNS_10PxBaseTaskEEEE11runInternalEv
bth:_Socket_EndReceive_m2385446150
Gdm:_RectTransform_add_reapplyDrivenProperties_m1599223970
bVk:__ZN6il2cpp2os5posix15PosixWaitObjectD2Ev
upe:__Z44Register_UnityEngine_MeshCollider_get_convexv
opm:___mmap
jqc:__ZN9Scripting26RaiseArgumentNullExceptionEPKc
k9d:__ZN5physx2Gu12TriangleMeshD0Ev
WDf:_DateTime_CoreParse_m428043272
lCm:b120
v7:__ZL18InternalLogConsolePKcz
BJi:_Capture__ctor_m539415522
iom:_lseek
SIj:_InternalEnumerator_1_get_Current_m685192625_gshared
KRj:_ResourceReader_ReadValueVer1_m183253382
Fca:__Z37scripting_method_get_nth_argumenttype18ScriptingMethodPtri
_X:__ZN11AudioSource16UpdatePauseStateEv
kha:__ZL52StaticUnregisterSceneLoadedCallback_LightmapSettingsPv
NB:__ZN7mecanim5human25HumanPoseAddAdditiveLayerERNS0_9HumanPoseERKS1_fRKNS_6bitsetILj70EEE
Dwc:__Z48Register_UnityEngine_MonoBehaviour_StopCoroutinev
Dqd:__ZN5physx7NpCloth24setParticleAccelerationsEPKNS_6PxVec4E
D6k:__ZN6il2cpp5utils25NativeDelegateMethodCache17AddNativeDelegateEPFvvEPK10MethodInfo
Mof:_LayoutRebuilder_U3CRebuildU3Em__5_m1288787547
gpd:__ZN5physx3Scb5Shape18setMaterialsHelperEPKPNS_10PxMaterialEt
N8a:__ZN27DeviceViewProjMatricesStateD2Ev
B7c:__ZN5physx6shdfnd5ArrayINS_19PxsArticulationLinkENS0_19ReflectionAllocatorIS2_EEE8recreateEj
qWb:__Z18Transfer_BlittableI24GenerateTypeTreeTransferLb0E8Vector3fEvRK29SerializationCommandArgumentsR31RuntimeSerializationCommandInfo
ZXh:__Z73RuntimeInvoker_RuntimeObject_IntPtr_t_Int32_t2950945753_Int32_t2950945753PFvvEPK10MethodInfoPvPS4_
BZg:_SimpleCollator_FilterExtender_m72900315
dRk:__ZN15dense_hashtableINSt3__24pairIK10KeyWrapperINS1_IPKcS4_EEEiEES6_24NamespaceAndNamePairHashN14dense_hash_mapIS6_iS9_NS6_14EqualsComparerI26NamespaceAndNamePairEqualsEENS0_9allocatorIS8_EEE9SelectKeyESD_SF_E14squash_deletedEv
Spe:__ZNK13TextRendering4Font22GetTypeVirtualInternalEv
U3g:_SymmetricTransform_CheckInput_m1829858759
wyj:_ScrollRect_EnsureLayoutHasRebuilt_m3415112783
Y$i:_Binder_FindMostDerivedMatch_m239579024
uDf:_Convert_ToByte_m3824130483
Vmj:_Camera_get_eventMask_m588573340
aLe:__ZN21UnityAnalyticsManagerD0Ev
NDa:__ZN6prcoreL10inner_flipILj2EEEvPhS1_j
Mwi:_StringBuilder_Append_m2383614642
KIc:__ZN9JSONWrite8TransferIbEEvRT_PKc17TransferMetaFlags
LTf:_PlayableOutputHandle_IsPlayableOutputOfType_TisRuntimeObject_m4199110699_AdjustorThunk
mob:__ZN12TLSAllocatorI14StackAllocatorED0Ev
egm:_SphereCollider_set_radius_m1324035550
iLb:__ZN11TimeManager16CheckConsistencyEv
x5c:__ZN5physx3Scb5Scene12addRigidBodyERNS0_4BodyEb
f6a:__ZN21GfxDeviceAsyncCommand10ArgScratch15ThreadedCleanupEv
hzm:_emscripten_glDeleteTextures__wrapper
nkj:_AudioClipPlayable_INTERNAL_CALL_InternalCreateAudioClipPlayable_m2290526197
Njc:__Z14DoubleToStringd
n4e:_StringComparer_GetHashCode_m2080455020
RVb:__ZN12NativeBufferI27Converter_UnityEngineObjectE15SetupForWritingER9ArrayInfo
t9j:_GameObject_GetComponentsInChildren_TisRuntimeObject_m2701674466_gshared
rgm:_DataUtility_GetOuterUV_m2841609030
Iug:_List_1_CheckCollection_m2118769249_gshared
_e:_glTexImage3D
zef:_DefaultControls_SetDefaultColorTransitionValues_m2033775311
Ufg:_Path_IsPathRooted_m3515805419
I$f:_Array_InternalArray__set_Item_TisChar_t3634460470_m741842250_gshared
yUc:__ZNK5physx2Gu17ShrunkConvexHullV10planeShiftEjRKNS_6shdfnd3aos6FloatVE
EZd:__ZN5physx2GuL35fullContactsGenerationCapsuleConvexERKNS0_8CapsuleVERKNS0_11ConvexHullVERKNS_6shdfnd3aos15PsMatTransformVERKNS8_12PsTransformVESE_PNS0_17PersistentContactERjRNS0_13ContactBufferEbRNS0_25PersistentContactManifoldERNS8_5Vec3VERKNS8_6FloatVEb
Wbd:__ZNK5physx14PxArticulation19getConcreteTypeNameEv
hJf:_DateTime_AddMilliseconds_m3713972790_AdjustorThunk
gWd:__ZN3MBP17populateNewRegionERK5IAABB
efl:_GUIStyle_SetMouseTooltip_m1947978187
Xn:FUNCTION_TABLE_vifiiiiiiiiiiiii
KVe:_RC2_Create_m2052783340
oag:_Guid__ctor_m3421080095_AdjustorThunk
hf:_JS_SystemInfo_GetCurrentCanvasWidth
Jpc:__ZL34GetComponentsImplementationRecurseILb1ELi0ELi1EEbR10GameObjectbRK17CompareParametersRK39GetComponentsImplementation_ReturnValue
UNf:_Double_Equals_m1674752021
Plf:_InputField_OnDisable_m1824300767
Sil:_MonoBehaviour_StartCoroutine_m828785117
GYg:_CodePointIndexer_ToIndex_m1008730487
eOk:__ZN6il2cpp2vm14PlatformInvoke30MarshalCSharpStringToCppStringEP12Il2CppString
tkm:_Transform_set_parent_m1032008535
dCf:_SortedList_Clone_m928094797
NYc:__Z11raycast_boxRKN5physx10PxGeometryERKNS_11PxTransformERKNS_6PxVec3ES8_fNS_7PxFlagsINS_9PxHitFlag4EnumEtEEjPNS_12PxRaycastHitEbPFbRSD_PvESG_
CMb:__ZN10VRSettings8TransferI18StreamedBinaryReadILb0EEEEvRT_
MA:__ZN22AnimationMixerPlayable12MixerProcessEP35AnimationPlayableEvaluationConstantP32AnimationPlayableEvaluationInputP33AnimationPlayableEvaluationOutputM17AnimationPlayableFvS1_S3_S5_EPFvS1_S3_S5_ESA_PFvS5_S1_S3_S5_PN7mecanim16ValueArrayWeightEfEPFvS1_S3_S5_SD_fE
